TN:
SF:/home/runner/work/merklecpp/merklecpp/merklecpp.h
FN:100,103,_ZN6merkle5HashTILm32EEC2Ev
FN:1023,1079,_ZN6merkle5TreeTILm32EXadL_ZNS_L15sha256_compressERKNS_5HashTILm32EEES4_RS2_EEE7walk_toEmbOKSt8functionIFbRPNS6_4NodeEbEE
FN:107,110,_ZN6merkle5HashTILm32EEC2EPKh
FN:1084,1100,_ZN6merkle5TreeTILm32EXadL_ZNS_L15sha256_compressERKNS_5HashTILm32EEES4_RS2_EEE4pathEm
FN:1090,1090,_ZZN6merkle5TreeTILm32EXadL_ZNS_L15sha256_compressERKNS_5HashTILm32EEES4_RS2_EEE4pathEmENKUlPNS6_4NodeEbE_clES8_b
FN:1109,1286,_ZN6merkle5TreeTILm32EXadL_ZNS_L15sha256_compressERKNS_5HashTILm32EEES4_RS2_EEE9past_pathEmm
FN:1290,1329,_ZN6merkle5TreeTILm32EXadL_ZNS_L15sha256_compressERKNS_5HashTILm32EEES4_RS2_EEE9serialiseERSt6vectorIhSaIhEE
FN:1316,1316,_ZZN6merkle5TreeTILm32EXadL_ZNS_L15sha256_compressERKNS_5HashTILm32EEES4_RS2_EEE9serialiseERSt6vectorIhSaIhEEENKUlRPNS6_4NodeEbE_clESD_b
FN:1335,1377,_ZN6merkle5TreeTILm32EXadL_ZNS_L15sha256_compressERKNS_5HashTILm32EEES4_RS2_EEE9serialiseEmmRSt6vectorIhSaIhEE
FN:1364,1364,_ZZN6merkle5TreeTILm32EXadL_ZNS_L15sha256_compressERKNS_5HashTILm32EEES4_RS2_EEE9serialiseEmmRSt6vectorIhSaIhEEENKUlRPNS6_4NodeEbE_clESD_b
FN:1381,1385,_ZN6merkle5TreeTILm32EXadL_ZNS_L15sha256_compressERKNS_5HashTILm32EEES4_RS2_EEE11deserialiseERKSt6vectorIhSaIhEE
FN:1390,1467,_ZN6merkle5TreeTILm32EXadL_ZNS_L15sha256_compressERKNS_5HashTILm32EEES4_RS2_EEE11deserialiseERKSt6vectorIhSaIhEERm
FN:142,149,_ZN6merkle5HashTILm32EEC2ERKSt6vectorIhSaIhEERm
FN:1488,1502,_ZNK6merkle5TreeTILm32EXadL_ZNS_L15sha256_compressERKNS_5HashTILm32EEES4_RS2_EEE4leafEm
FN:1508,1511,_ZNK6merkle5TreeTILm32EXadL_ZNS_L15sha256_compressERKNS_5HashTILm32EEES4_RS2_EEE10num_leavesEv
FN:1517,1520,_ZNK6merkle5TreeTILm32EXadL_ZNS_L15sha256_compressERKNS_5HashTILm32EEES4_RS2_EEE9min_indexEv
FN:1526,1530,_ZNK6merkle5TreeTILm32EXadL_ZNS_L15sha256_compressERKNS_5HashTILm32EEES4_RS2_EEE9max_indexEv
FN:1534,1537,_ZNK6merkle5TreeTILm32EXadL_ZNS_L15sha256_compressERKNS_5HashTILm32EEES4_RS2_EEE5emptyEv
FN:1543,1550,_ZN6merkle5TreeTILm32EXadL_ZNS_L15sha256_compressERKNS_5HashTILm32EEES4_RS2_EEE4sizeEv
FN:1555,1572,_ZN6merkle5TreeTILm32EXadL_ZNS_L15sha256_compressERKNS_5HashTILm32EEES4_RS2_EEE15serialised_sizeEv
FN:1561,1561,_ZZN6merkle5TreeTILm32EXadL_ZNS_L15sha256_compressERKNS_5HashTILm32EEES4_RS2_EEE15serialised_sizeEvENKUlRPNS6_4NodeEbE_clES9_b
FN:1578,1591,_ZN6merkle5TreeTILm32EXadL_ZNS_L15sha256_compressERKNS_5HashTILm32EEES4_RS2_EEE15serialised_sizeEmm
FN:1581,1581,_ZZN6merkle5TreeTILm32EXadL_ZNS_L15sha256_compressERKNS_5HashTILm32EEES4_RS2_EEE15serialised_sizeEmmENKUlRPNS6_4NodeEbE_clES9_b
FN:1622,1630,_ZNK6merkle5TreeTILm32EXadL_ZNS_L15sha256_compressERKNS_5HashTILm32EEES4_RS2_EEE10Statistics9to_stringEv
FN:1638,1689,_ZNK6merkle5TreeTILm32EXadL_ZNS_L15sha256_compressERKNS_5HashTILm32EEES4_RS2_EEE9to_stringEm
FN:1735,1748,_ZNK6merkle5TreeTILm32EXadL_ZNS_L15sha256_compressERKNS_5HashTILm32EEES4_RS2_EEE9leaf_nodeEm
FN:1755,1798,_ZNK6merkle5TreeTILm32EXadL_ZNS_L15sha256_compressERKNS_5HashTILm32EEES4_RS2_EEE4hashEPNS6_4NodeEm
FN:179,193,_ZNK6merkle5HashTILm32EE9to_stringB5cxx11Emb
FN:1801,1815,_ZN6merkle5TreeTILm32EXadL_ZNS_L15sha256_compressERKNS_5HashTILm32EEES4_RS2_EEE12compute_rootEv
FN:1822,1855,_ZN6merkle5TreeTILm32EXadL_ZNS_L15sha256_compressERKNS_5HashTILm32EEES4_RS2_EEE24continue_insertion_stackEPNS6_4NodeES8_
FN:1860,1910,_ZN6merkle5TreeTILm32EXadL_ZNS_L15sha256_compressERKNS_5HashTILm32EEES4_RS2_EEE23process_insertion_stackEb
FN:1915,1930,_ZN6merkle5TreeTILm32EXadL_ZNS_L15sha256_compressERKNS_5HashTILm32EEES4_RS2_EEE11insert_leafERPNS6_4NodeES8_
FN:1935,1954,_ZN6merkle5TreeTILm32EXadL_ZNS_L15sha256_compressERKNS_5HashTILm32EEES4_RS2_EEE13insert_leavesEb
FN:196,200,_ZN6merkle5HashTILm32EEaSERKS1_
FN:1965,2030,_ZN6merkleL15sha256_compressERKNS_5HashTILm32EEES3_RS1_
FN:203,206,_ZNK6merkle5HashTILm32EEeqERKS1_
FN:209,212,_ZNK6merkle5HashTILm32EEneERKS1_
FN:216,223,_ZNK6merkle5HashTILm32EE9serialiseERSt6vectorIhSaIhEE
FN:228,239,_ZN6merkle5HashTILm32EE11deserialiseERKSt6vectorIhSaIhEERm
FN:290,299,_ZN6merkle5PathTILm32EXadL_ZNS_L15sha256_compressERKNS_5HashTILm32EEES4_RS2_EEEC2ES4_mONSt7__cxx114listINS6_Ut0_ESaIS9_EEEm
FN:327,357,_ZNK6merkle5PathTILm32EXadL_ZNS_L15sha256_compressERKNS_5HashTILm32EEES4_RS2_EEE4rootEv
FN:362,365,_ZNK6merkle5PathTILm32EXadL_ZNS_L15sha256_compressERKNS_5HashTILm32EEES4_RS2_EEE6verifyES4_
FN:369,381,_ZNK6merkle5PathTILm32EXadL_ZNS_L15sha256_compressERKNS_5HashTILm32EEES4_RS2_EEE9serialiseERSt6vectorIhSaIhEE
FN:415,420,_ZNK6merkle5PathTILm32EXadL_ZNS_L15sha256_compressERKNS_5HashTILm32EEES4_RS2_EEEcvSt6vectorIhSaIhEEEv
FN:429,439,_ZNK6merkle5PathTILm32EXadL_ZNS_L15sha256_compressERKNS_5HashTILm32EEES4_RS2_EEE15serialised_sizeEv
FN:464,467,_ZNK6merkle5PathTILm32EXadL_ZNS_L15sha256_compressERKNS_5HashTILm32EEES4_RS2_EEE5beginEv
FN:470,473,_ZNK6merkle5PathTILm32EXadL_ZNS_L15sha256_compressERKNS_5HashTILm32EEES4_RS2_EEE3endEv
FN:478,489,_ZNK6merkle5PathTILm32EXadL_ZNS_L15sha256_compressERKNS_5HashTILm32EEES4_RS2_EEE9to_stringEmb
FN:48,67,_ZN6merkleL18convert_endiannessEj
FN:492,495,_ZNK6merkle5PathTILm32EXadL_ZNS_L15sha256_compressERKNS_5HashTILm32EEES4_RS2_EEE4leafEv
FN:498,516,_ZNK6merkle5PathTILm32EXadL_ZNS_L15sha256_compressERKNS_5HashTILm32EEES4_RS2_EEEeqERKS6_
FN:519,522,_ZN6merkle5PathTILm32EXadL_ZNS_L15sha256_compressERKNS_5HashTILm32EEES4_RS2_EEEneERKS6_
FN:555,564,_ZN6merkle5TreeTILm32EXadL_ZNS_L15sha256_compressERKNS_5HashTILm32EEES4_RS2_EEE4Node4makeES4_
FN:569,579,_ZN6merkle5TreeTILm32EXadL_ZNS_L15sha256_compressERKNS_5HashTILm32EEES4_RS2_EEE4Node4makeEPS7_S8_
FN:588,631,_ZN6merkle5TreeTILm32EXadL_ZNS_L15sha256_compressERKNS_5HashTILm32EEES4_RS2_EEE4Node9copy_nodeEPKS7_PSt6vectorIPS7_SaISB_EEPmmmm
FN:636,645,_ZN6merkle5TreeTILm32EXadL_ZNS_L15sha256_compressERKNS_5HashTILm32EEES4_RS2_EEE4Node9invariantEv
FN:647,654,_ZN6merkle5TreeTILm32EXadL_ZNS_L15sha256_compressERKNS_5HashTILm32EEES4_RS2_EEE4NodeD2Ev
FN:659,664,_ZNK6merkle5TreeTILm32EXadL_ZNS_L15sha256_compressERKNS_5HashTILm32EEES4_RS2_EEE4Node7is_fullEv
FN:667,678,_ZN6merkle5TreeTILm32EXadL_ZNS_L15sha256_compressERKNS_5HashTILm32EEES4_RS2_EEE4Node12update_sizesEv
FN:69,77,_ZN6merkleL18serialise_uint64_tEmRSt6vectorIhSaIhEE
FN:712,712,_ZN6merkle5TreeTILm32EXadL_ZNS_L15sha256_compressERKNS_5HashTILm32EEES4_RS2_EEEC2Ev
FN:715,718,_ZN6merkle5TreeTILm32EXadL_ZNS_L15sha256_compressERKNS_5HashTILm32EEES4_RS2_EEEC2ERKS6_
FN:734,737,_ZN6merkle5TreeTILm32EXadL_ZNS_L15sha256_compressERKNS_5HashTILm32EEES4_RS2_EEEC2ERKSt6vectorIhSaIhEE
FN:755,762,_ZN6merkle5TreeTILm32EXadL_ZNS_L15sha256_compressERKNS_5HashTILm32EEES4_RS2_EEED2Ev
FN:765,768,_ZN6merkle5TreeTILm32EXadL_ZNS_L15sha256_compressERKNS_5HashTILm32EEES4_RS2_EEE9invariantEv
FN:779,786,_ZN6merkle5TreeTILm32EXadL_ZNS_L15sha256_compressERKNS_5HashTILm32EEES4_RS2_EEE6insertES4_
FN:79,89,_ZN6merkleL20deserialise_uint64_tERKSt6vectorIhSaIhEERm
FN:812,845,_ZN6merkle5TreeTILm32EXadL_ZNS_L15sha256_compressERKNS_5HashTILm32EEES4_RS2_EEE8flush_toEm
FN:822,822,_ZZN6merkle5TreeTILm32EXadL_ZNS_L15sha256_compressERKNS_5HashTILm32EEES4_RS2_EEE8flush_toEmENKUlRPNS6_4NodeEbE_clES9_b
FN:851,937,_ZN6merkle5TreeTILm32EXadL_ZNS_L15sha256_compressERKNS_5HashTILm32EEES4_RS2_EEE10retract_toEm
FN:878,878,_ZZN6merkle5TreeTILm32EXadL_ZNS_L15sha256_compressERKNS_5HashTILm32EEES4_RS2_EEE10retract_toEmENKUlRPNS6_4NodeEbE_clES9_b
FN:942,969,_ZN6merkle5TreeTILm32EXadL_ZNS_L15sha256_compressERKNS_5HashTILm32EEES4_RS2_EEEaSERKS6_
FN:973,983,_ZN6merkle5TreeTILm32EXadL_ZNS_L15sha256_compressERKNS_5HashTILm32EEES4_RS2_EEE4rootEv
FN:992,1014,_ZN6merkle5TreeTILm32EXadL_ZNS_L15sha256_compressERKNS_5HashTILm32EEES4_RS2_EEE9past_rootEm
FNDA:37753101,_ZN6merkle5HashTILm32EEC2Ev
FNDA:129613,_ZN6merkle5TreeTILm32EXadL_ZNS_L15sha256_compressERKNS_5HashTILm32EEES4_RS2_EEE7walk_toEmbOKSt8functionIFbRPNS6_4NodeEbEE
FNDA:8392,_ZN6merkle5HashTILm32EEC2EPKh
FNDA:19812,_ZN6merkle5TreeTILm32EXadL_ZNS_L15sha256_compressERKNS_5HashTILm32EEES4_RS2_EEE4pathEm
FNDA:224716,_ZZN6merkle5TreeTILm32EXadL_ZNS_L15sha256_compressERKNS_5HashTILm32EEES4_RS2_EEE4pathEmENKUlPNS6_4NodeEbE_clES8_b
FNDA:2447,_ZN6merkle5TreeTILm32EXadL_ZNS_L15sha256_compressERKNS_5HashTILm32EEES4_RS2_EEE9past_pathEmm
FNDA:34,_ZN6merkle5TreeTILm32EXadL_ZNS_L15sha256_compressERKNS_5HashTILm32EEES4_RS2_EEE9serialiseERSt6vectorIhSaIhEE
FNDA:320,_ZZN6merkle5TreeTILm32EXadL_ZNS_L15sha256_compressERKNS_5HashTILm32EEES4_RS2_EEE9serialiseERSt6vectorIhSaIhEEENKUlRPNS6_4NodeEbE_clESD_b
FNDA:1004,_ZN6merkle5TreeTILm32EXadL_ZNS_L15sha256_compressERKNS_5HashTILm32EEES4_RS2_EEE9serialiseEmmRSt6vectorIhSaIhEE
FNDA:8432,_ZZN6merkle5TreeTILm32EXadL_ZNS_L15sha256_compressERKNS_5HashTILm32EEES4_RS2_EEE9serialiseEmmRSt6vectorIhSaIhEEENKUlRPNS6_4NodeEbE_clESD_b
FNDA:1038,_ZN6merkle5TreeTILm32EXadL_ZNS_L15sha256_compressERKNS_5HashTILm32EEES4_RS2_EEE11deserialiseERKSt6vectorIhSaIhEE
FNDA:1038,_ZN6merkle5TreeTILm32EXadL_ZNS_L15sha256_compressERKNS_5HashTILm32EEES4_RS2_EEE11deserialiseERKSt6vectorIhSaIhEERm
FNDA:6027,_ZN6merkle5HashTILm32EEC2ERKSt6vectorIhSaIhEERm
FNDA:7715,_ZNK6merkle5TreeTILm32EXadL_ZNS_L15sha256_compressERKNS_5HashTILm32EEES4_RS2_EEE4leafEm
FNDA:13989747,_ZNK6merkle5TreeTILm32EXadL_ZNS_L15sha256_compressERKNS_5HashTILm32EEES4_RS2_EEE10num_leavesEv
FNDA:5531867,_ZNK6merkle5TreeTILm32EXadL_ZNS_L15sha256_compressERKNS_5HashTILm32EEES4_RS2_EEE9min_indexEv
FNDA:13761420,_ZNK6merkle5TreeTILm32EXadL_ZNS_L15sha256_compressERKNS_5HashTILm32EEES4_RS2_EEE9max_indexEv
FNDA:2106,_ZNK6merkle5TreeTILm32EXadL_ZNS_L15sha256_compressERKNS_5HashTILm32EEES4_RS2_EEE5emptyEv
FNDA:64,_ZN6merkle5TreeTILm32EXadL_ZNS_L15sha256_compressERKNS_5HashTILm32EEES4_RS2_EEE4sizeEv
FNDA:1068,_ZN6merkle5TreeTILm32EXadL_ZNS_L15sha256_compressERKNS_5HashTILm32EEES4_RS2_EEE15serialised_sizeEv
FNDA:8344,_ZZN6merkle5TreeTILm32EXadL_ZNS_L15sha256_compressERKNS_5HashTILm32EEES4_RS2_EEE15serialised_sizeEvENKUlRPNS6_4NodeEbE_clES9_b
FNDA:1004,_ZN6merkle5TreeTILm32EXadL_ZNS_L15sha256_compressERKNS_5HashTILm32EEES4_RS2_EEE15serialised_sizeEmm
FNDA:8432,_ZZN6merkle5TreeTILm32EXadL_ZNS_L15sha256_compressERKNS_5HashTILm32EEES4_RS2_EEE15serialised_sizeEmmENKUlRPNS6_4NodeEbE_clES9_b
FNDA:2,_ZNK6merkle5TreeTILm32EXadL_ZNS_L15sha256_compressERKNS_5HashTILm32EEES4_RS2_EEE10Statistics9to_stringEv
FNDA:1,_ZNK6merkle5TreeTILm32EXadL_ZNS_L15sha256_compressERKNS_5HashTILm32EEES4_RS2_EEE9to_stringEm
FNDA:22259,_ZNK6merkle5TreeTILm32EXadL_ZNS_L15sha256_compressERKNS_5HashTILm32EEES4_RS2_EEE9leaf_nodeEm
FNDA:120780,_ZNK6merkle5TreeTILm32EXadL_ZNS_L15sha256_compressERKNS_5HashTILm32EEES4_RS2_EEE4hashEPNS6_4NodeEm
FNDA:74,_ZNK6merkle5HashTILm32EE9to_stringB5cxx11Emb
FNDA:151932,_ZN6merkle5TreeTILm32EXadL_ZNS_L15sha256_compressERKNS_5HashTILm32EEES4_RS2_EEE12compute_rootEv
FNDA:4713355,_ZN6merkle5TreeTILm32EXadL_ZNS_L15sha256_compressERKNS_5HashTILm32EEES4_RS2_EEE24continue_insertion_stackEPNS6_4NodeES8_
FNDA:4827902,_ZN6merkle5TreeTILm32EXadL_ZNS_L15sha256_compressERKNS_5HashTILm32EEES4_RS2_EEE23process_insertion_stackEb
FNDA:4713852,_ZN6merkle5TreeTILm32EXadL_ZNS_L15sha256_compressERKNS_5HashTILm32EEES4_RS2_EEE11insert_leafERPNS6_4NodeES8_
FNDA:151932,_ZN6merkle5TreeTILm32EXadL_ZNS_L15sha256_compressERKNS_5HashTILm32EEES4_RS2_EEE13insert_leavesEb
FNDA:33085367,_ZN6merkle5HashTILm32EEaSERKS1_
FNDA:5608747,_ZN6merkleL15sha256_compressERKNS_5HashTILm32EEES3_RS1_
FNDA:6026,_ZNK6merkle5HashTILm32EEeqERKS1_
FNDA:43281,_ZNK6merkle5HashTILm32EEneERKS1_
FNDA:32079,_ZNK6merkle5HashTILm32EE9serialiseERSt6vectorIhSaIhEE
FNDA:6027,_ZN6merkle5HashTILm32EE11deserialiseERKSt6vectorIhSaIhEERm
FNDA:22259,_ZN6merkle5PathTILm32EXadL_ZNS_L15sha256_compressERKNS_5HashTILm32EEES4_RS2_EEEC2ES4_mONSt7__cxx114listINS6_Ut0_ESaIS9_EEEm
FNDA:7908,_ZNK6merkle5PathTILm32EXadL_ZNS_L15sha256_compressERKNS_5HashTILm32EEES4_RS2_EEE4rootEv
FNDA:5022,_ZNK6merkle5PathTILm32EXadL_ZNS_L15sha256_compressERKNS_5HashTILm32EEES4_RS2_EEE6verifyES4_
FNDA:1132,_ZNK6merkle5PathTILm32EXadL_ZNS_L15sha256_compressERKNS_5HashTILm32EEES4_RS2_EEE9serialiseERSt6vectorIhSaIhEE
FNDA:11,_ZNK6merkle5PathTILm32EXadL_ZNS_L15sha256_compressERKNS_5HashTILm32EEES4_RS2_EEEcvSt6vectorIhSaIhEEEv
FNDA:1121,_ZNK6merkle5PathTILm32EXadL_ZNS_L15sha256_compressERKNS_5HashTILm32EEES4_RS2_EEE15serialised_sizeEv
FNDA:16233,_ZNK6merkle5PathTILm32EXadL_ZNS_L15sha256_compressERKNS_5HashTILm32EEES4_RS2_EEE5beginEv
FNDA:16233,_ZNK6merkle5PathTILm32EXadL_ZNS_L15sha256_compressERKNS_5HashTILm32EEES4_RS2_EEE3endEv
FNDA:11,_ZNK6merkle5PathTILm32EXadL_ZNS_L15sha256_compressERKNS_5HashTILm32EEES4_RS2_EEE9to_stringEmb
FNDA:134609928,_ZN6merkleL18convert_endiannessEj
FNDA:16233,_ZNK6merkle5PathTILm32EXadL_ZNS_L15sha256_compressERKNS_5HashTILm32EEES4_RS2_EEE4leafEv
FNDA:2447,_ZNK6merkle5PathTILm32EXadL_ZNS_L15sha256_compressERKNS_5HashTILm32EEES4_RS2_EEEeqERKS6_
FNDA:1443,_ZN6merkle5PathTILm32EXadL_ZNS_L15sha256_compressERKNS_5HashTILm32EEES4_RS2_EEEneERKS6_
FNDA:32748686,_ZN6merkle5TreeTILm32EXadL_ZNS_L15sha256_compressERKNS_5HashTILm32EEES4_RS2_EEE4Node4makeES4_
FNDA:4726736,_ZN6merkle5TreeTILm32EXadL_ZNS_L15sha256_compressERKNS_5HashTILm32EEES4_RS2_EEE4Node4makeEPS7_S8_
FNDA:43214551,_ZN6merkle5TreeTILm32EXadL_ZNS_L15sha256_compressERKNS_5HashTILm32EEES4_RS2_EEE4Node9copy_nodeEPKS7_PSt6vectorIPS7_SaISB_EEPmmmm
FNDA:3090007889,_ZN6merkle5TreeTILm32EXadL_ZNS_L15sha256_compressERKNS_5HashTILm32EEES4_RS2_EEE4Node9invariantEv
FNDA:37475422,_ZN6merkle5TreeTILm32EXadL_ZNS_L15sha256_compressERKNS_5HashTILm32EEES4_RS2_EEE4NodeD2Ev
FNDA:26852891,_ZNK6merkle5TreeTILm32EXadL_ZNS_L15sha256_compressERKNS_5HashTILm32EEES4_RS2_EEE4Node7is_fullEv
FNDA:50045554,_ZN6merkle5TreeTILm32EXadL_ZNS_L15sha256_compressERKNS_5HashTILm32EEES4_RS2_EEE4Node12update_sizesEv
FNDA:5472,_ZN6merkleL18serialise_uint64_tEmRSt6vectorIhSaIhEE
FNDA:602,_ZN6merkle5TreeTILm32EXadL_ZNS_L15sha256_compressERKNS_5HashTILm32EEES4_RS2_EEEC2Ev
FNDA:1443,_ZN6merkle5TreeTILm32EXadL_ZNS_L15sha256_compressERKNS_5HashTILm32EEES4_RS2_EEEC2ERKS6_
FNDA:1037,_ZN6merkle5TreeTILm32EXadL_ZNS_L15sha256_compressERKNS_5HashTILm32EEES4_RS2_EEEC2ERKSt6vectorIhSaIhEE
FNDA:3082,_ZN6merkle5TreeTILm32EXadL_ZNS_L15sha256_compressERKNS_5HashTILm32EEES4_RS2_EEED2Ev
FNDA:1825398,_ZN6merkle5TreeTILm32EXadL_ZNS_L15sha256_compressERKNS_5HashTILm32EEES4_RS2_EEE9invariantEv
FNDA:11237562,_ZN6merkle5TreeTILm32EXadL_ZNS_L15sha256_compressERKNS_5HashTILm32EEES4_RS2_EEE6insertES4_
FNDA:2076,_ZN6merkleL20deserialise_uint64_tERKSt6vectorIhSaIhEERm
FNDA:91197,_ZN6merkle5TreeTILm32EXadL_ZNS_L15sha256_compressERKNS_5HashTILm32EEES4_RS2_EEE8flush_toEm
FNDA:806336,_ZZN6merkle5TreeTILm32EXadL_ZNS_L15sha256_compressERKNS_5HashTILm32EEES4_RS2_EEE8flush_toEmENKUlRPNS6_4NodeEbE_clES9_b
FNDA:4587598,_ZN6merkle5TreeTILm32EXadL_ZNS_L15sha256_compressERKNS_5HashTILm32EEES4_RS2_EEE10retract_toEm
FNDA:193815,_ZZN6merkle5TreeTILm32EXadL_ZNS_L15sha256_compressERKNS_5HashTILm32EEES4_RS2_EEE10retract_toEmENKUlRPNS6_4NodeEbE_clES9_b
FNDA:1443,_ZN6merkle5TreeTILm32EXadL_ZNS_L15sha256_compressERKNS_5HashTILm32EEES4_RS2_EEEaSERKS6_
FNDA:18834,_ZN6merkle5TreeTILm32EXadL_ZNS_L15sha256_compressERKNS_5HashTILm32EEES4_RS2_EEE4rootEv
FNDA:16233,_ZN6merkle5TreeTILm32EXadL_ZNS_L15sha256_compressERKNS_5HashTILm32EEES4_RS2_EEE9past_rootEm
FNF:74
FNH:74
DA:48,134609928
DA:50,134609928
DA:53,134609928
DA:69,5472
DA:71,5472
DA:72,5472
DA:73,49248
DA:75,43776
DA:77,5472
DA:79,2076
DA:82,2076
DA:83,2076
DA:84,18684
DA:86,16608
DA:88,2076
DA:100,37753101
DA:102,37753101
DA:103,37753101
DA:107,8392
DA:109,8392
DA:110,8392
DA:142,6027
DA:144,6027
DA:146,0
DA:148,6027
DA:149,6027
DA:179,74
DA:182,74
DA:183,74
DA:184,354
DA:186,280
DA:187,280
DA:188,280
DA:190,280
DA:192,74
DA:196,33085367
DA:198,33085367
DA:199,33085367
DA:203,6026
DA:205,6026
DA:209,43281
DA:211,43281
DA:216,32079
DA:219,1058607
DA:221,1026528
DA:223,32079
DA:228,6027
DA:231,6027
DA:233,0
DA:235,198891
DA:237,192864
DA:239,6027
DA:290,22259
DA:295,22259
DA:296,22259
DA:297,22259
DA:298,22259
DA:299,22259
DA:327,7908
DA:329,7908
DA:330,7908
DA:334,103572
DA:336,95664
DA:342,49233
DA:350,46431
DA:356,7908
DA:362,5022
DA:364,5022
DA:369,1132
DA:372,1132
DA:373,1132
DA:374,1132
DA:375,1132
DA:376,17660
DA:378,16528
DA:379,16528
DA:381,1132
DA:415,11
DA:417,11
DA:418,11
DA:419,11
DA:420,0
DA:429,1121
DA:435,1121
DA:438,1121
DA:464,16233
DA:466,16233
DA:470,16233
DA:472,16233
DA:478,11
DA:481,11
DA:482,11
DA:483,51
DA:486,40
DA:488,22
DA:489,11
DA:492,16233
DA:494,16233
DA:498,2447
DA:500,2447
DA:502,0
DA:504,2447
DA:505,2447
DA:506,28018
DA:508,25571
DA:510,0
DA:512,25571
DA:513,25571
DA:515,2447
DA:519,1443
DA:521,1443
DA:555,32748686
DA:557,32748686
DA:558,32748686
DA:559,32748686
DA:560,32748686
DA:561,32748686
DA:562,32748686
DA:563,32748686
DA:569,4726736
DA:571,4726736
DA:572,4726736
DA:573,4726736
DA:574,4726736
DA:575,4726736
DA:576,4726736
DA:577,4726736
DA:578,4726736
DA:588,43214551
DA:596,43214551
DA:598,21717846
DA:601,21496705
DA:602,21496705
DA:603,21496705
DA:604,21496705
DA:605,42993410
DA:606,21496705
DA:612,42993410
DA:613,21496705
DA:619,21496705
DA:621,10633953
DA:623,10633255
DA:627,698
DA:630,21496705
DA:636,3090007889
DA:638,3090007889
DA:639,3090007889
DA:640,3090007889
DA:641,3090007889
DA:642,3090007889
DA:643,3090007889
DA:644,3090007889
DA:647,37475422
DA:649,37475422
DA:652,37475422
DA:653,37475422
DA:654,37475422
DA:659,26852891
DA:661,26852891
DA:662,26852891
DA:663,26852891
DA:667,50045554
DA:669,50045554
DA:671,17255537
DA:672,17255537
DA:676,32790017
DA:678,50045554
DA:712,602
DA:715,1443
DA:716,1443
DA:717,1443
DA:718,1443
DA:734,1037
DA:735,1037
DA:736,1037
DA:737,1037
DA:755,3082
DA:757,3082
DA:758,4553
DA:760,1471
DA:762,3082
DA:765,1825398
DA:767,1825398
DA:779,11237562
DA:784,11237562
DA:785,11237562
DA:786,11237562
DA:812,91197
DA:815,91197
DA:817,91197
DA:819,6129
DA:822,85068
DA:823,806336
DA:829,584213
DA:831,0
DA:833,584213
DA:834,584213
DA:835,584213
DA:836,584213
DA:838,806336
DA:841,85068
DA:842,170136
DA:843,170136
DA:844,85068
DA:851,4587598
DA:854,4587598
DA:856,4587598
DA:858,0
DA:861,4587598
DA:863,0
DA:866,4587598
DA:868,4565975
DA:869,11307912
DA:871,6741937
DA:872,6741937
DA:874,4565975
DA:878,21623
DA:879,193815
DA:880,193815
DA:881,193815
DA:887,59453
DA:889,59453
DA:890,59453
DA:891,59453
DA:893,59453
DA:895,59453
DA:896,59453
DA:897,59453
DA:899,59453
DA:901,48540
DA:904,59453
DA:910,1337
DA:913,59453
DA:918,59453
DA:920,134362
DA:924,21623
DA:926,21623
DA:927,21623
DA:929,21623
DA:933,0
DA:936,21623
DA:942,1443
DA:944,1443
DA:945,1443
DA:947,0
DA:949,1443
DA:950,1443
DA:951,1443
DA:952,1443
DA:954,1443
DA:955,1443
DA:956,1443
DA:961,221141
DA:963,219698
DA:965,1443
DA:966,1443
DA:967,1443
DA:968,1443
DA:973,18834
DA:976,18834
DA:977,18834
DA:978,18834
DA:982,18834
DA:992,16233
DA:995,16233
DA:997,16233
DA:998,16233
DA:1005,198850
DA:1007,182617
DA:1009,89511
DA:1013,32466
DA:1014,16233
DA:1023,129613
DA:1026,129613
DA:1028,0
DA:1031,129613
DA:1033,129613
DA:1035,129613
DA:1036,129613
DA:1037,129613
DA:1039,129613
DA:1041,129613
DA:1043,1829593
DA:1045,1699980
DA:1046,1699980
DA:1047,1699980
DA:1049,315543
DA:1057,1699980
DA:1059,1250395
DA:1061,59453
DA:1063,1190942
DA:1065,1640527
DA:1066,1640527
DA:1069,129613
DA:1071,337166
DA:1073,315543
DA:1074,315543
DA:1078,129613
DA:1084,19812
DA:1087,19812
DA:1088,19812
DA:1090,19812
DA:1091,224716
DA:1092,224716
DA:1093,224716
DA:1094,224716
DA:1095,224716
DA:1099,39624
DA:1100,19812
DA:1109,2447
DA:1113,2447
DA:1115,2447
DA:1116,4894
DA:1117,4894
DA:1119,0
DA:1122,2447
DA:1124,2447
DA:1130,2447
DA:1131,2447
DA:1132,2447
DA:1133,2447
DA:1135,2447
DA:1136,2447
DA:1137,2447
DA:1138,2447
DA:1139,2447
DA:1141,2447
DA:1142,2447
DA:1145,32609
DA:1147,30162
DA:1148,30162
DA:1149,30162
DA:1161,30162
DA:1163,2343
DA:1164,2343
DA:1169,2343
DA:1172,30162
DA:1175,9328
DA:1176,9328
DA:1178,6694
DA:1180,4737
DA:1181,4737
DA:1182,4737
DA:1183,4737
DA:1185,6694
DA:1191,20834
DA:1193,20834
DA:1194,20834
DA:1195,20834
DA:1196,20834
DA:1197,20834
DA:1199,20834
DA:1204,19717
DA:1206,10812
DA:1207,10812
DA:1208,10812
DA:1209,10812
DA:1211,19717
DA:1215,30162
DA:1216,30162
DA:1217,30162
DA:1239,2447
DA:1242,2447
DA:1244,2343
DA:1246,20938
DA:1248,18491
DA:1251,2447
DA:1256,2343
DA:1257,2343
DA:1259,2343
DA:1261,10812
DA:1263,8469
DA:1271,2343
DA:1272,2343
DA:1273,2343
DA:1274,2343
DA:1279,7184
DA:1281,4737
DA:1285,4894
DA:1286,2447
DA:1290,34
DA:1294,34
DA:1295,34
DA:1296,34
DA:1297,357
DA:1299,323
DA:1301,388
DA:1303,354
DA:1306,34
DA:1310,34
DA:1315,34
DA:1316,34
DA:1317,320
DA:1319,222
DA:1321,320
DA:1324,256
DA:1326,222
DA:1328,34
DA:1329,34
DA:1335,1004
DA:1340,1004
DA:1341,3012
DA:1342,3012
DA:1344,0
DA:1347,1004
DA:1348,1004
DA:1349,8719
DA:1351,7715
DA:1354,1004
DA:1358,1004
DA:1363,1004
DA:1364,1004
DA:1365,8432
DA:1367,5805
DA:1369,8432
DA:1372,6809
DA:1374,5805
DA:1376,1004
DA:1377,1004
DA:1381,1038
DA:1383,1038
DA:1384,1038
DA:1385,1038
DA:1390,1038
DA:1394,1038
DA:1395,1038
DA:1396,1038
DA:1398,0
DA:1400,1038
DA:1401,1038
DA:1402,1038
DA:1403,1038
DA:1404,1038
DA:1406,1038
DA:1407,1038
DA:1409,1038
DA:1410,9430
DA:1412,8392
DA:1413,8392
DA:1414,8392
DA:1417,1038
DA:1418,1038
DA:1419,1038
DA:1420,1038
DA:1421,12450
DA:1424,11412
DA:1426,6027
DA:1428,6027
DA:1429,6027
DA:1430,6027
DA:1431,6027
DA:1432,6027
DA:1441,30187
DA:1443,18775
DA:1445,5394
DA:1449,13381
DA:1453,11412
DA:1454,11412
DA:1456,11412
DA:1457,11412
DA:1460,1038
DA:1462,1038
DA:1464,1038
DA:1465,1038
DA:1467,1038
DA:1488,7715
DA:1491,7715
DA:1493,0
DA:1495,7715
DA:1498,251
DA:1499,251
DA:1501,7464
DA:1508,13989747
DA:1510,13989747
DA:1517,5531867
DA:1519,5531867
DA:1526,13761420
DA:1528,13761420
DA:1529,13761420
DA:1534,2106
DA:1536,2106
DA:1543,64
DA:1545,64
DA:1547,0
DA:1549,64
DA:1555,1068
DA:1557,1068
DA:1559,1068
DA:1561,1068
DA:1562,8344
DA:1564,6245
DA:1566,8344
DA:1571,2136
DA:1578,1004
DA:1580,1004
DA:1581,1004
DA:1582,8432
DA:1584,5805
DA:1586,8432
DA:1590,1004
DA:1622,2
DA:1624,2
DA:1625,2
DA:1626,2
DA:1627,2
DA:1628,2
DA:1629,4
DA:1630,2
DA:1638,1
DA:1640,3
DA:1641,1
DA:1642,1
DA:1643,1
DA:1645,1
DA:1647,0
DA:1648,0
DA:1651,1
DA:1653,0
DA:1657,1
DA:1658,1
DA:1659,6
DA:1661,5
DA:1662,26
DA:1664,21
DA:1665,21
DA:1666,21
DA:1668,10
DA:1670,21
DA:1672,10
DA:1674,21
DA:1676,5
DA:1677,5
DA:1678,5
DA:1683,1
DA:1684,1
DA:1685,1
DA:1686,1
DA:1688,1
DA:1689,1
DA:1735,22259
DA:1738,22259
DA:1740,0
DA:1742,22259
DA:1744,0
DA:1745,0
DA:1747,22259
DA:1755,120780
DA:1761,120780
DA:1762,120780
DA:1763,120780
DA:1765,10830206
DA:1767,10709426
DA:1768,10709426
DA:1770,10709426
DA:1772,2311743
DA:1774,8397683
DA:1776,2982580
DA:1780,5415103
DA:1781,5415103
DA:1783,0
DA:1785,5415103
DA:1786,5415103
DA:1794,5415103
DA:1795,5415103
DA:1798,120780
DA:1801,151932
DA:1803,151932
DA:1804,151932
DA:1806,0
DA:1808,151932
DA:1809,151932
DA:1810,151932
DA:1812,120780
DA:1813,120780
DA:1815,151932
DA:1822,4713355
DA:1824,7541234
DA:1829,12254589
DA:1831,12254589
DA:1833,4713355
DA:1834,4713355
DA:1835,4713355
DA:1836,4713355
DA:1839,7541234
DA:1840,7541234
DA:1841,7541234
DA:1842,7541234
DA:1843,7541234
DA:1844,7541234
DA:1846,0
DA:1847,0
DA:1851,7541234
DA:1852,7541234
DA:1860,4827902
DA:1871,4827902
DA:1872,4827902
DA:1874,4827902
DA:1875,4827902
DA:1877,7551881
DA:1879,7426687
DA:1880,7426687
DA:1881,7426687
DA:1882,7426687
DA:1884,7426687
DA:1886,0
DA:1890,7426687
DA:1892,7426687
DA:1893,7426687
DA:1895,7426687
DA:1897,7426687
DA:1903,4702708
DA:1907,125194
DA:1909,125194
DA:1915,4713852
DA:1920,4713852
DA:1921,4713852
DA:1923,497
DA:1927,4713355
DA:1928,4713355
DA:1930,4713852
DA:1935,151932
DA:1937,151932
DA:1944,4832240
DA:1946,4713852
DA:1948,118388
DA:1950,151932
DA:1952,114547
DA:1954,151932
DA:1965,5608747
DA:1978,5608747
DA:1979,5608747
DA:1984,5608747
DA:1986,95348699
DA:1987,89739952
DA:1990,274828603
DA:1991,269219856
DA:1992,269219856
DA:1993,269219856
DA:1994,269219856
DA:1995,269219856
DA:1996,269219856
DA:1997,269219856
DA:2001,50478723
DA:2002,44869976
DA:2005,364568555
DA:2006,358959808
DA:2007,358959808
DA:2008,358959808
DA:2009,358959808
DA:2010,358959808
DA:2011,358959808
DA:2012,358959808
DA:2013,358959808
DA:2014,358959808
DA:2015,358959808
DA:2016,358959808
DA:2017,358959808
DA:2018,358959808
DA:2019,358959808
DA:2020,358959808
DA:2021,358959808
DA:2022,358959808
DA:2023,358959808
DA:2024,358959808
DA:2027,50478723
DA:2028,44869976
DA:2030,5608747
LF:667
LH:640
end_of_record
TN:
SF:/home/runner/work/merklecpp/merklecpp/test/demo_tree.cpp
FN:18,91,main
FNDA:1,main
FNF:1
FNH:1
DA:18,1
DA:22,1
DA:24,1
DA:27,1
DA:28,12
DA:30,11
DA:32,1
DA:33,1
DA:36,1
DA:37,12
DA:39,11
DA:40,11
DA:41,11
DA:42,11
DA:43,11
DA:45,0
DA:47,11
DA:48,11
DA:51,1
DA:52,1
DA:53,1
DA:54,1
DA:56,0
DA:59,1
DA:60,1
DA:79,0
DA:81,0
DA:82,0
DA:83,0
DA:84,0
DA:86,0
DA:87,0
DA:88,0
DA:90,1
LF:34
LH:24
end_of_record
TN:
SF:/home/runner/work/merklecpp/merklecpp/test/flush.cpp
FN:14,86,main
FNDA:1,main
FNF:1
FNH:1
DA:14,1
DA:16,1
DA:17,1
DA:18,1
DA:19,1
DA:24,1
DA:25,1
DA:26,1
DA:33,1
DA:34,1
DA:36,33
DA:40,32
DA:41,32
DA:43,32
DA:45,32
DA:46,979983
DA:48,979951
DA:49,979951
DA:51,49157
DA:52,49157
DA:56,544
DA:58,512
DA:59,512
DA:60,512
DA:62,0
DA:66,32
DA:68,1
DA:69,1
DA:70,1
DA:72,32
DA:74,0
DA:76,0
DA:77,0
DA:78,0
DA:79,0
DA:81,0
DA:82,0
DA:83,0
DA:85,1
LF:39
LH:30
end_of_record
TN:
SF:/home/runner/work/merklecpp/merklecpp/test/partial_serialisation.cpp
FN:17,139,main
FNDA:1,main
FNF:1
FNH:1
DA:17,1
DA:19,1
DA:20,1
DA:21,1
DA:22,1
DA:27,1
DA:28,1
DA:29,1
DA:36,1
DA:37,1
DA:38,1
DA:39,1
DA:41,65
DA:44,64
DA:46,64
DA:47,64
DA:48,64
DA:51,64
DA:52,254670
DA:54,254606
DA:55,254606
DA:56,254606
DA:57,254606
DA:59,12666
DA:60,12666
DA:61,12666
DA:62,12666
DA:64,254606
DA:66,12756
DA:67,12756
DA:68,12756
DA:69,12756
DA:73,1068
DA:74,1068
DA:77,1004
DA:78,1004
DA:79,1004
DA:81,437
DA:85,1004
DA:86,1004
DA:89,1004
DA:92,1004
DA:93,1004
DA:94,1004
DA:95,1004
DA:96,1004
DA:97,1004
DA:98,1004
DA:100,1004
DA:101,2008
DA:102,2008
DA:105,0
DA:107,0
DA:108,0
DA:111,1004
DA:113,1004
DA:114,1004
DA:115,12
DA:117,1
DA:118,1
DA:119,1
DA:120,1
DA:122,1004
DA:123,64
DA:125,0
DA:127,0
DA:128,0
DA:129,0
DA:130,0
DA:131,0
DA:133,0
DA:134,0
DA:135,0
DA:136,0
DA:138,1
LF:75
LH:62
end_of_record
TN:
SF:/home/runner/work/merklecpp/merklecpp/test/past_paths.cpp
FN:15,29,_Z14past_root_specRKN6merkle5TreeTILm32EXadL_ZNS_L15sha256_compressERKNS_5HashTILm32EEES4_RS2_EEEEmm
FN:31,169,main
FNDA:1443,_Z14past_root_specRKN6merkle5TreeTILm32EXadL_ZNS_L15sha256_compressERKNS_5HashTILm32EEES4_RS2_EEEEmm
FNDA:1,main
FNF:2
FNH:2
DA:15,1443
DA:18,1443
DA:19,1443
DA:20,1443
DA:25,1443
DA:26,1443
DA:27,1443
DA:28,2886
DA:29,1443
DA:31,1
DA:33,1
DA:34,1
DA:35,1
DA:36,1
DA:38,1
DA:43,1
DA:44,1
DA:45,1
DA:52,1
DA:53,1
DA:54,1
DA:56,1
DA:58,1
DA:59,25
DA:61,24
DA:62,24
DA:64,24
DA:65,24
DA:67,24
DA:68,219722
DA:70,219698
DA:78,1467
DA:79,1467
DA:82,1443
DA:83,1443
DA:84,1443
DA:86,728
DA:89,1443
DA:90,1443
DA:92,1443
DA:94,68
DA:96,20
DA:97,20
DA:98,20
DA:116,1443
DA:117,1443
DA:118,1443
DA:129,1443
DA:131,0
DA:134,1443
DA:136,0
DA:139,1443
DA:141,0
DA:144,1443
DA:146,24
DA:147,24
DA:148,24
DA:151,1443
DA:152,1443
DA:153,24
DA:154,1
DA:155,0
DA:157,0
DA:158,0
DA:159,0
DA:160,0
DA:161,0
DA:163,0
DA:164,0
DA:165,0
DA:166,0
DA:168,1
LF:72
LH:59
end_of_record
TN:
SF:/home/runner/work/merklecpp/merklecpp/test/past_root.cpp
FN:17,141,main
FNDA:1,main
FNF:1
FNH:1
DA:17,1
DA:19,1
DA:20,1
DA:21,1
DA:22,1
DA:24,1
DA:30,64
DA:32,63
DA:35,63
DA:37,63
DA:38,2142
DA:40,2079
DA:41,2079
DA:43,63
DA:46,63
DA:47,2142
DA:49,2079
DA:52,2142
DA:54,2079
DA:55,2079
DA:57,0
DA:58,0
DA:59,0
DA:60,0
DA:61,0
DA:63,2079
DA:64,63
DA:66,1
DA:69,1
DA:70,1
DA:76,1
DA:77,1
DA:79,65
DA:82,64
DA:83,64
DA:84,64
DA:85,64
DA:89,64
DA:90,236302
DA:92,236238
DA:93,236238
DA:95,11707
DA:98,64
DA:101,64
DA:102,236302
DA:104,236238
DA:108,11771
DA:110,11707
DA:111,11707
DA:112,11707
DA:114,0
DA:115,0
DA:116,0
DA:117,0
DA:119,11707
DA:121,64
DA:123,1
DA:124,1
DA:125,1
DA:127,64
DA:129,0
DA:131,0
DA:132,0
DA:133,0
DA:134,0
DA:136,0
DA:137,0
DA:138,0
DA:140,1
LF:69
LH:52
end_of_record
TN:
SF:/home/runner/work/merklecpp/merklecpp/test/paths.cpp
FN:15,88,main
FNDA:1,main
FNF:1
FNH:1
DA:15,1
DA:17,1
DA:18,1
DA:19,1
DA:20,1
DA:25,1
DA:26,1
DA:27,1
DA:34,1
DA:35,1
DA:37,65
DA:40,64
DA:41,64
DA:43,64
DA:44,64
DA:46,64
DA:48,64
DA:49,2109850
DA:51,2109786
DA:53,64
DA:55,1185
DA:58,1121
DA:59,1121
DA:60,1121
DA:62,0
DA:64,1121
DA:65,1121
DA:66,1121
DA:68,0
DA:70,1121
DA:71,64
DA:73,1
DA:74,1
DA:76,0
DA:78,0
DA:79,0
DA:80,0
DA:81,0
DA:83,0
DA:84,0
DA:85,0
DA:87,1
LF:42
LH:32
end_of_record
TN:
SF:/home/runner/work/merklecpp/merklecpp/test/retract.cpp
FN:15,99,main
FNDA:1,main
FNF:1
FNH:1
DA:15,1
DA:17,1
DA:18,1
DA:19,1
DA:20,1
DA:25,1
DA:26,1
DA:27,1
DA:34,1
DA:35,1
DA:37,129
DA:40,128
DA:41,128
DA:43,128
DA:45,128
DA:46,4326633
DA:48,4326505
DA:49,4326505
DA:51,2164226
DA:52,2164226
DA:53,2164226
DA:54,2164226
DA:55,2164226
DA:56,2164226
DA:58,0
DA:62,4326505
DA:64,215701
DA:65,215701
DA:69,468
DA:71,468
DA:72,468
DA:73,468
DA:75,128
DA:79,128
DA:81,1
DA:82,1
DA:83,1
DA:85,128
DA:87,0
DA:89,0
DA:90,0
DA:91,0
DA:92,0
DA:94,0
DA:95,0
DA:96,0
DA:98,1
LF:47
LH:38
end_of_record
TN:
SF:/home/runner/work/merklecpp/merklecpp/test/serialisation.cpp
FN:17,113,main
FNDA:1,main
FNF:1
FNH:1
DA:17,1
DA:19,1
DA:20,1
DA:21,1
DA:22,1
DA:27,1
DA:28,1
DA:34,1
DA:35,1
DA:36,1
DA:38,33
DA:41,32
DA:42,32
DA:43,32
DA:46,32
DA:47,575094
DA:49,575062
DA:50,575062
DA:51,575062
DA:52,575062
DA:54,28831
DA:55,28831
DA:56,28831
DA:57,28831
DA:59,575062
DA:61,28778
DA:62,28778
DA:63,28778
DA:64,28778
DA:69,32
DA:70,32
DA:73,32
DA:76,32
DA:77,64
DA:78,64
DA:79,32
DA:80,96
DA:81,32
DA:84,0
DA:86,0
DA:87,0
DA:90,32
DA:92,1
DA:93,1
DA:95,1
DA:97,32
DA:99,0
DA:101,0
DA:102,0
DA:103,0
DA:104,0
DA:105,0
DA:107,0
DA:108,0
DA:109,0
DA:110,0
DA:112,1
LF:57
LH:44
end_of_record
TN:
SF:/home/runner/work/merklecpp/merklecpp/test/serialise_to_file.cpp
FN:19,87,main
FNDA:1,main
FNF:1
FNH:1
DA:19,1
DA:23,1
DA:25,1
DA:26,1
DA:27,12
DA:29,11
DA:31,1
DA:32,1
DA:36,1
DA:37,1
DA:39,1
DA:40,1
DA:41,1
DA:42,369
DA:44,368
DA:45,368
DA:47,1
DA:48,1
DA:49,1
DA:50,1
DA:53,1
DA:54,1
DA:56,1
DA:57,1
DA:58,1
DA:59,370
DA:61,369
DA:62,369
DA:64,1
DA:65,1
DA:66,1
DA:67,1
DA:68,1
DA:70,0
DA:72,1
DA:73,1
DA:75,0
DA:77,0
DA:78,0
DA:79,0
DA:80,0
DA:82,0
DA:83,0
DA:84,0
DA:86,1
LF:45
LH:36
end_of_record
TN:
SF:/home/runner/work/merklecpp/merklecpp/test/time_large_trees.cpp
FN:17,150,main
FNDA:1,main
FNF:1
FNH:1
DA:17,1
DA:22,1
DA:23,1
DA:29,1
DA:31,1
DA:32,1
DA:33,1
DA:34,131073
DA:36,131072
DA:37,131072
DA:39,1024
DA:42,1
DA:43,1
DA:45,1
DA:46,1
DA:47,1
DA:48,2
DA:49,1
DA:137,1
DA:138,0
DA:140,0
DA:141,0
DA:142,0
DA:143,0
DA:145,0
DA:146,0
DA:147,0
DA:149,1
LF:28
LH:20
end_of_record
TN:
SF:/home/runner/work/merklecpp/merklecpp/test/util.h
FN:11,22,_Z11make_hashesmm
FN:39,44,_Z12random_indexRN6merkle5TreeTILm32EXadL_ZNS_L15sha256_compressERKNS_5HashTILm32EEES4_RS2_EEEE
FN:46,57,_Z11get_timeoutv
FN:59,69,_Z9timed_outdRKNSt6chrono10time_pointINS_3_V212system_clockENS_8durationIlSt5ratioILl1ELl1000000000EEEEEE
FNDA:451,_Z11make_hashesmm
FNDA:353763,_Z12random_indexRN6merkle5TreeTILm32EXadL_ZNS_L15sha256_compressERKNS_5HashTILm32EEES4_RS2_EEEE
FNDA:7,_Z11get_timeoutv
FNDA:3952,_Z9timed_outdRKNSt6chrono10time_pointINS_3_V212system_clockENS_8durationIlSt5ratioILl1ELl1000000000EEEEEE
FNF:4
FNH:4
DA:11,451
DA:13,451
DA:14,451
DA:15,8632156
DA:17,8631705
DA:18,8665227
DA:21,902
DA:22,0
DA:39,353763
DA:42,353763
DA:43,353763
DA:46,7
DA:48,7
DA:49,7
DA:50,7
DA:52,0
DA:53,0
DA:55,7
DA:56,7
DA:59,3952
DA:63,3952
DA:65,3952
DA:66,3952
DA:67,3952
DA:68,3952
LF:25
LH:22
end_of_record
TN:
SF:/usr/include/c++/13/bits/alloc_traits.h
FNF:0
FNH:0
DA:482,431765
DA:517,431765
DA:538,66312768
DA:542,66312768
DA:562,36492190
DA:574,272636
DA:588,1038
DA:661,46400
DA:675,46400
DA:792,11417
DA:948,257644
DA:949,257644
LF:12
LH:12
end_of_record
TN:
SF:/usr/include/c++/13/bits/allocated_ptr.h
FN:53,55,_ZNSt15__allocated_ptrISaISt10_List_nodeIN6merkle5PathTILm32EXadL_ZNS1_L15sha256_compressERKNS1_5HashTILm32EEES6_RS4_EEEUt0_EEEEC2ERSB_PSA_
FN:53,55,_ZNSt15__allocated_ptrISaISt23_Sp_counted_ptr_inplaceIN6merkle5HashTILm32EEESaIvELN9__gnu_cxx12_Lock_policyE2EEEEC2ERS8_PS7_
FN:53,55,_ZNSt15__allocated_ptrISaISt23_Sp_counted_ptr_inplaceIN6merkle5PathTILm32EXadL_ZNS1_L15sha256_compressERKNS1_5HashTILm32EEES6_RS4_EEEESaIvELN9__gnu_cxx12_Lock_policyE2EEEEC2ERSD_PSC_
FN:71,75,_ZNSt15__allocated_ptrISaISt10_List_nodeIN6merkle5PathTILm32EXadL_ZNS1_L15sha256_compressERKNS1_5HashTILm32EEES6_RS4_EEEUt0_EEEED2Ev
FN:71,75,_ZNSt15__allocated_ptrISaISt23_Sp_counted_ptr_inplaceIN6merkle5HashTILm32EEESaIvELN9__gnu_cxx12_Lock_policyE2EEEED2Ev
FN:71,75,_ZNSt15__allocated_ptrISaISt23_Sp_counted_ptr_inplaceIN6merkle5PathTILm32EXadL_ZNS1_L15sha256_compressERKNS1_5HashTILm32EEES6_RS4_EEEESaIvELN9__gnu_cxx12_Lock_policyE2EEEED2Ev
FN:79,83,_ZNSt15__allocated_ptrISaISt10_List_nodeIN6merkle5PathTILm32EXadL_ZNS1_L15sha256_compressERKNS1_5HashTILm32EEES6_RS4_EEEUt0_EEEEaSEDn
FN:79,83,_ZNSt15__allocated_ptrISaISt23_Sp_counted_ptr_inplaceIN6merkle5HashTILm32EEESaIvELN9__gnu_cxx12_Lock_policyE2EEEEaSEDn
FN:79,83,_ZNSt15__allocated_ptrISaISt23_Sp_counted_ptr_inplaceIN6merkle5PathTILm32EXadL_ZNS1_L15sha256_compressERKNS1_5HashTILm32EEES6_RS4_EEEESaIvELN9__gnu_cxx12_Lock_policyE2EEEEaSEDn
FN:86,86,_ZNSt15__allocated_ptrISaISt23_Sp_counted_ptr_inplaceIN6merkle5HashTILm32EEESaIvELN9__gnu_cxx12_Lock_policyE2EEEE3getEv
FN:86,86,_ZNSt15__allocated_ptrISaISt23_Sp_counted_ptr_inplaceIN6merkle5PathTILm32EXadL_ZNS1_L15sha256_compressERKNS1_5HashTILm32EEES6_RS4_EEEESaIvELN9__gnu_cxx12_Lock_policyE2EEEE3getEv
FN:96,99,_ZSt18__allocate_guardedISaISt23_Sp_counted_ptr_inplaceIN6merkle5HashTILm32EEESaIvELN9__gnu_cxx12_Lock_policyE2EEEESt15__allocated_ptrIT_ERSA_
FN:96,99,_ZSt18__allocate_guardedISaISt23_Sp_counted_ptr_inplaceIN6merkle5PathTILm32EXadL_ZNS1_L15sha256_compressERKNS1_5HashTILm32EEES6_RS4_EEEESaIvELN9__gnu_cxx12_Lock_policyE2EEEESt15__allocated_ptrIT_ERSF_
FNDA:286670,_ZNSt15__allocated_ptrISaISt10_List_nodeIN6merkle5PathTILm32EXadL_ZNS1_L15sha256_compressERKNS1_5HashTILm32EEES6_RS4_EEEUt0_EEEEC2ERSB_PSA_
FNDA:48282,_ZNSt15__allocated_ptrISaISt23_Sp_counted_ptr_inplaceIN6merkle5HashTILm32EEESaIvELN9__gnu_cxx12_Lock_policyE2EEEEC2ERS8_PS7_
FNDA:44518,_ZNSt15__allocated_ptrISaISt23_Sp_counted_ptr_inplaceIN6merkle5PathTILm32EXadL_ZNS1_L15sha256_compressERKNS1_5HashTILm32EEES6_RS4_EEEESaIvELN9__gnu_cxx12_Lock_policyE2EEEEC2ERSD_PSC_
FNDA:286670,_ZNSt15__allocated_ptrISaISt10_List_nodeIN6merkle5PathTILm32EXadL_ZNS1_L15sha256_compressERKNS1_5HashTILm32EEES6_RS4_EEEUt0_EEEED2Ev
FNDA:48282,_ZNSt15__allocated_ptrISaISt23_Sp_counted_ptr_inplaceIN6merkle5HashTILm32EEESaIvELN9__gnu_cxx12_Lock_policyE2EEEED2Ev
FNDA:44518,_ZNSt15__allocated_ptrISaISt23_Sp_counted_ptr_inplaceIN6merkle5PathTILm32EXadL_ZNS1_L15sha256_compressERKNS1_5HashTILm32EEES6_RS4_EEEESaIvELN9__gnu_cxx12_Lock_policyE2EEEED2Ev
FNDA:286670,_ZNSt15__allocated_ptrISaISt10_List_nodeIN6merkle5PathTILm32EXadL_ZNS1_L15sha256_compressERKNS1_5HashTILm32EEES6_RS4_EEEUt0_EEEEaSEDn
FNDA:24141,_ZNSt15__allocated_ptrISaISt23_Sp_counted_ptr_inplaceIN6merkle5HashTILm32EEESaIvELN9__gnu_cxx12_Lock_policyE2EEEEaSEDn
FNDA:22259,_ZNSt15__allocated_ptrISaISt23_Sp_counted_ptr_inplaceIN6merkle5PathTILm32EXadL_ZNS1_L15sha256_compressERKNS1_5HashTILm32EEES6_RS4_EEEESaIvELN9__gnu_cxx12_Lock_policyE2EEEEaSEDn
FNDA:24141,_ZNSt15__allocated_ptrISaISt23_Sp_counted_ptr_inplaceIN6merkle5HashTILm32EEESaIvELN9__gnu_cxx12_Lock_policyE2EEEE3getEv
FNDA:22259,_ZNSt15__allocated_ptrISaISt23_Sp_counted_ptr_inplaceIN6merkle5PathTILm32EXadL_ZNS1_L15sha256_compressERKNS1_5HashTILm32EEES6_RS4_EEEESaIvELN9__gnu_cxx12_Lock_policyE2EEEE3getEv
FNDA:24141,_ZSt18__allocate_guardedISaISt23_Sp_counted_ptr_inplaceIN6merkle5HashTILm32EEESaIvELN9__gnu_cxx12_Lock_policyE2EEEESt15__allocated_ptrIT_ERSA_
FNDA:22259,_ZSt18__allocate_guardedISaISt23_Sp_counted_ptr_inplaceIN6merkle5PathTILm32EXadL_ZNS1_L15sha256_compressERKNS1_5HashTILm32EEES6_RS4_EEEESaIvELN9__gnu_cxx12_Lock_policyE2EEEESt15__allocated_ptrIT_ERSF_
FNF:13
FNH:13
DA:53,379470
DA:54,379470
DA:55,379470
DA:71,379470
DA:73,379470
DA:74,46400
DA:75,379470
DA:79,333070
DA:81,333070
DA:82,333070
DA:86,46400
DA:96,46400
DA:98,46400
LF:13
LH:13
end_of_record
TN:
SF:/usr/include/c++/13/bits/allocator.h
FNF:0
FNH:0
DA:163,49912
DA:168,24335
DA:178,92800
DA:184,93913
DA:217,0
LF:5
LH:4
end_of_record
TN:
SF:/usr/include/c++/13/bits/basic_string.h
FN:664,666,_ZNSt7__cxx1112basic_stringIcSt11char_traitsIcESaIcEEC2IS3_EEmcRKS3_
FNDA:75,_ZNSt7__cxx1112basic_stringIcSt11char_traitsIcESaIcEEC2IS3_EEmcRKS3_
FNF:1
FNH:1
DA:355,0
DA:664,75
DA:665,75
DA:666,75
LF:4
LH:3
end_of_record
TN:
SF:/usr/include/c++/13/bits/basic_string.tcc
FN:221,252,_ZNSt7__cxx1112basic_stringIcSt11char_traitsIcESaIcEE12_M_constructIPcEEvT_S7_St20forward_iterator_tag
FN:239,239,_ZZNSt7__cxx1112basic_stringIcSt11char_traitsIcESaIcEE12_M_constructIPcEEvT_S7_St20forward_iterator_tagEN6_GuardC2EPS4_
FN:242,242,_ZZNSt7__cxx1112basic_stringIcSt11char_traitsIcESaIcEE12_M_constructIPcEEvT_S7_St20forward_iterator_tagEN6_GuardD2Ev
FNDA:0,_ZNSt7__cxx1112basic_stringIcSt11char_traitsIcESaIcEE12_M_constructIPcEEvT_S7_St20forward_iterator_tag
FNDA:0,_ZZNSt7__cxx1112basic_stringIcSt11char_traitsIcESaIcEE12_M_constructIPcEEvT_S7_St20forward_iterator_tagEN6_GuardC2EPS4_
FNDA:0,_ZZNSt7__cxx1112basic_stringIcSt11char_traitsIcESaIcEE12_M_constructIPcEEvT_S7_St20forward_iterator_tagEN6_GuardD2Ev
FNF:3
FNH:0
DA:221,0
DA:225,0
DA:227,0
DA:229,0
DA:230,0
DA:239,0
DA:242,0
DA:245,0
DA:247,0
DA:249,0
DA:251,0
DA:252,0
LF:12
LH:0
end_of_record
TN:
SF:/usr/include/c++/13/bits/chrono.h
FN:1141,1143,_ZNSt6chronomiINS_3_V212system_clockENS_8durationIlSt5ratioILl1ELl1000000000EEEES6_EENSt11common_typeIJT0_T1_EE4typeERKNS_10time_pointIT_S8_EERKNSC_ISD_S9_EE
FN:273,291,_ZNSt6chrono13duration_castINS_8durationIlSt5ratioILl1ELl1000000000EEEElS3_EENSt9enable_ifIXsrNS_13__is_durationIT_EE5valueES7_E4typeERKNS1_IT0_T1_EE
FN:573,574,_ZNSt6chrono8durationIlSt5ratioILl1ELl1000000000EEEC1IlvEERKT_
FN:589,590,_ZNKSt6chrono8durationIlSt5ratioILl1ELl1000000000EEE5countEv
FN:710,717,_ZNSt6chronomiIlSt5ratioILl1ELl1000000000EElS2_EENSt11common_typeIJNS_8durationIT_T0_EENS4_IT1_T2_EEEE4typeERKS7_RKSA_
FN:949,950,_ZNKSt6chrono10time_pointINS_3_V212system_clockENS_8durationIlSt5ratioILl1ELl1000000000EEEEE16time_since_epochEv
FNDA:3953,_ZNSt6chronomiINS_3_V212system_clockENS_8durationIlSt5ratioILl1ELl1000000000EEEES6_EENSt11common_typeIJT0_T1_EE4typeERKNS_10time_pointIT_S8_EERKNSC_ISD_S9_EE
FNDA:3953,_ZNSt6chrono13duration_castINS_8durationIlSt5ratioILl1ELl1000000000EEEElS3_EENSt9enable_ifIXsrNS_13__is_durationIT_EE5valueES7_E4typeERKNS1_IT0_T1_EE
FNDA:3953,_ZNSt6chrono8durationIlSt5ratioILl1ELl1000000000EEEC1IlvEERKT_
FNDA:11859,_ZNKSt6chrono8durationIlSt5ratioILl1ELl1000000000EEE5countEv
FNDA:3953,_ZNSt6chronomiIlSt5ratioILl1ELl1000000000EElS2_EENSt11common_typeIJNS_8durationIT_T0_EENS4_IT1_T2_EEEE4typeERKS7_RKSA_
FNDA:7906,_ZNKSt6chrono10time_pointINS_3_V212system_clockENS_8durationIlSt5ratioILl1ELl1000000000EEEEE16time_since_epochEv
FNF:6
FNH:6
DA:273,3953
DA:277,3953
DA:573,3953
DA:574,3953
DA:589,11859
DA:590,11859
DA:710,3953
DA:716,3953
DA:949,7906
DA:950,7906
DA:1141,3953
DA:1143,3953
LF:12
LH:12
end_of_record
TN:
SF:/usr/include/c++/13/bits/cpp_type_traits.h
FN:607,608,_ZSt12__miter_baseIN9__gnu_cxx17__normal_iteratorIPKPN6merkle5TreeTILm32EXadL_ZNS2_L15sha256_compressERKNS2_5HashTILm32EEES7_RS5_EEE4NodeESt6vectorISB_SaISB_EEEEET_SI_
FN:607,608,_ZSt12__miter_baseIN9__gnu_cxx17__normal_iteratorIPPN6merkle5TreeTILm32EXadL_ZNS2_L15sha256_compressERKNS2_5HashTILm32EEES7_RS5_EEE4NodeESt6vectorISB_SaISB_EEEEET_SH_
FN:607,608,_ZSt12__miter_baseIPKhET_S2_
FN:607,608,_ZSt12__miter_baseIPPN6merkle5TreeTILm32EXadL_ZNS0_L15sha256_compressERKNS0_5HashTILm32EEES5_RS3_EEE4NodeEET_SB_
FNDA:2076,_ZSt12__miter_baseIN9__gnu_cxx17__normal_iteratorIPKPN6merkle5TreeTILm32EXadL_ZNS2_L15sha256_compressERKNS2_5HashTILm32EEES7_RS5_EEE4NodeESt6vectorISB_SaISB_EEEEET_SI_
FNDA:170136,_ZSt12__miter_baseIN9__gnu_cxx17__normal_iteratorIPPN6merkle5TreeTILm32EXadL_ZNS2_L15sha256_compressERKNS2_5HashTILm32EEES7_RS5_EEE4NodeESt6vectorISB_SaISB_EEEEET_SH_
FNDA:66187518,_ZSt12__miter_baseIPKhET_S2_
FNDA:10198,_ZSt12__miter_baseIPPN6merkle5TreeTILm32EXadL_ZNS0_L15sha256_compressERKNS0_5HashTILm32EEES5_RS3_EEE4NodeEET_SB_
FNF:4
FNH:4
DA:607,66369928
DA:608,66369928
LF:2
LH:2
end_of_record
TN:
SF:/usr/include/c++/13/bits/invoke.h
FN:104,117,_ZSt10__invoke_rIbRZN6merkle5TreeTILm32EXadL_ZNS0_L15sha256_compressERKNS0_5HashTILm32EEES5_RS3_EEE10retract_toEmEUlRPNS7_4NodeEbE_JSA_bEENSt9enable_ifIX16is_invocable_r_vIT_T0_DpT1_EESE_E4typeEOSF_DpOSG_
FN:104,117,_ZSt10__invoke_rIbRZN6merkle5TreeTILm32EXadL_ZNS0_L15sha256_compressERKNS0_5HashTILm32EEES5_RS3_EEE15serialised_sizeEmmEUlRPNS7_4NodeEbE_JSA_bEENSt9enable_ifIX16is_invocable_r_vIT_T0_DpT1_EESE_E4typeEOSF_DpOSG_
FN:104,117,_ZSt10__invoke_rIbRZN6merkle5TreeTILm32EXadL_ZNS0_L15sha256_compressERKNS0_5HashTILm32EEES5_RS3_EEE15serialised_sizeEvEUlRPNS7_4NodeEbE_JSA_bEENSt9enable_ifIX16is_invocable_r_vIT_T0_DpT1_EESE_E4typeEOSF_DpOSG_
FN:104,117,_ZSt10__invoke_rIbRZN6merkle5TreeTILm32EXadL_ZNS0_L15sha256_compressERKNS0_5HashTILm32EEES5_RS3_EEE4pathEmEUlPNS7_4NodeEbE_JRS9_bEENSt9enable_ifIX16is_invocable_r_vIT_T0_DpT1_EESE_E4typeEOSF_DpOSG_
FN:104,117,_ZSt10__invoke_rIbRZN6merkle5TreeTILm32EXadL_ZNS0_L15sha256_compressERKNS0_5HashTILm32EEES5_RS3_EEE8flush_toEmEUlRPNS7_4NodeEbE_JSA_bEENSt9enable_ifIX16is_invocable_r_vIT_T0_DpT1_EESE_E4typeEOSF_DpOSG_
FN:104,117,_ZSt10__invoke_rIbRZN6merkle5TreeTILm32EXadL_ZNS0_L15sha256_compressERKNS0_5HashTILm32EEES5_RS3_EEE9serialiseERSt6vectorIhSaIhEEEUlRPNS7_4NodeEbE_JSE_bEENSt9enable_ifIX16is_invocable_r_vIT_T0_DpT1_EESI_E4typeEOSJ_DpOSK_
FN:104,117,_ZSt10__invoke_rIbRZN6merkle5TreeTILm32EXadL_ZNS0_L15sha256_compressERKNS0_5HashTILm32EEES5_RS3_EEE9serialiseEmmRSt6vectorIhSaIhEEEUlRPNS7_4NodeEbE_JSE_bEENSt9enable_ifIX16is_invocable_r_vIT_T0_DpT1_EESI_E4typeEOSJ_DpOSK_
FN:60,61,_ZSt13__invoke_implIbRZN6merkle5TreeTILm32EXadL_ZNS0_L15sha256_compressERKNS0_5HashTILm32EEES5_RS3_EEE10retract_toEmEUlRPNS7_4NodeEbE_JSA_bEET_St14__invoke_otherOT0_DpOT1_
FN:60,61,_ZSt13__invoke_implIbRZN6merkle5TreeTILm32EXadL_ZNS0_L15sha256_compressERKNS0_5HashTILm32EEES5_RS3_EEE15serialised_sizeEmmEUlRPNS7_4NodeEbE_JSA_bEET_St14__invoke_otherOT0_DpOT1_
FN:60,61,_ZSt13__invoke_implIbRZN6merkle5TreeTILm32EXadL_ZNS0_L15sha256_compressERKNS0_5HashTILm32EEES5_RS3_EEE15serialised_sizeEvEUlRPNS7_4NodeEbE_JSA_bEET_St14__invoke_otherOT0_DpOT1_
FN:60,61,_ZSt13__invoke_implIbRZN6merkle5TreeTILm32EXadL_ZNS0_L15sha256_compressERKNS0_5HashTILm32EEES5_RS3_EEE4pathEmEUlPNS7_4NodeEbE_JRS9_bEET_St14__invoke_otherOT0_DpOT1_
FN:60,61,_ZSt13__invoke_implIbRZN6merkle5TreeTILm32EXadL_ZNS0_L15sha256_compressERKNS0_5HashTILm32EEES5_RS3_EEE8flush_toEmEUlRPNS7_4NodeEbE_JSA_bEET_St14__invoke_otherOT0_DpOT1_
FN:60,61,_ZSt13__invoke_implIbRZN6merkle5TreeTILm32EXadL_ZNS0_L15sha256_compressERKNS0_5HashTILm32EEES5_RS3_EEE9serialiseERSt6vectorIhSaIhEEEUlRPNS7_4NodeEbE_JSE_bEET_St14__invoke_otherOT0_DpOT1_
FN:60,61,_ZSt13__invoke_implIbRZN6merkle5TreeTILm32EXadL_ZNS0_L15sha256_compressERKNS0_5HashTILm32EEES5_RS3_EEE9serialiseEmmRSt6vectorIhSaIhEEEUlRPNS7_4NodeEbE_JSE_bEET_St14__invoke_otherOT0_DpOT1_
FNDA:193815,_ZSt10__invoke_rIbRZN6merkle5TreeTILm32EXadL_ZNS0_L15sha256_compressERKNS0_5HashTILm32EEES5_RS3_EEE10retract_toEmEUlRPNS7_4NodeEbE_JSA_bEENSt9enable_ifIX16is_invocable_r_vIT_T0_DpT1_EESE_E4typeEOSF_DpOSG_
FNDA:8432,_ZSt10__invoke_rIbRZN6merkle5TreeTILm32EXadL_ZNS0_L15sha256_compressERKNS0_5HashTILm32EEES5_RS3_EEE15serialised_sizeEmmEUlRPNS7_4NodeEbE_JSA_bEENSt9enable_ifIX16is_invocable_r_vIT_T0_DpT1_EESE_E4typeEOSF_DpOSG_
FNDA:8344,_ZSt10__invoke_rIbRZN6merkle5TreeTILm32EXadL_ZNS0_L15sha256_compressERKNS0_5HashTILm32EEES5_RS3_EEE15serialised_sizeEvEUlRPNS7_4NodeEbE_JSA_bEENSt9enable_ifIX16is_invocable_r_vIT_T0_DpT1_EESE_E4typeEOSF_DpOSG_
FNDA:224716,_ZSt10__invoke_rIbRZN6merkle5TreeTILm32EXadL_ZNS0_L15sha256_compressERKNS0_5HashTILm32EEES5_RS3_EEE4pathEmEUlPNS7_4NodeEbE_JRS9_bEENSt9enable_ifIX16is_invocable_r_vIT_T0_DpT1_EESE_E4typeEOSF_DpOSG_
FNDA:806336,_ZSt10__invoke_rIbRZN6merkle5TreeTILm32EXadL_ZNS0_L15sha256_compressERKNS0_5HashTILm32EEES5_RS3_EEE8flush_toEmEUlRPNS7_4NodeEbE_JSA_bEENSt9enable_ifIX16is_invocable_r_vIT_T0_DpT1_EESE_E4typeEOSF_DpOSG_
FNDA:320,_ZSt10__invoke_rIbRZN6merkle5TreeTILm32EXadL_ZNS0_L15sha256_compressERKNS0_5HashTILm32EEES5_RS3_EEE9serialiseERSt6vectorIhSaIhEEEUlRPNS7_4NodeEbE_JSE_bEENSt9enable_ifIX16is_invocable_r_vIT_T0_DpT1_EESI_E4typeEOSJ_DpOSK_
FNDA:8432,_ZSt10__invoke_rIbRZN6merkle5TreeTILm32EXadL_ZNS0_L15sha256_compressERKNS0_5HashTILm32EEES5_RS3_EEE9serialiseEmmRSt6vectorIhSaIhEEEUlRPNS7_4NodeEbE_JSE_bEENSt9enable_ifIX16is_invocable_r_vIT_T0_DpT1_EESI_E4typeEOSJ_DpOSK_
FNDA:193815,_ZSt13__invoke_implIbRZN6merkle5TreeTILm32EXadL_ZNS0_L15sha256_compressERKNS0_5HashTILm32EEES5_RS3_EEE10retract_toEmEUlRPNS7_4NodeEbE_JSA_bEET_St14__invoke_otherOT0_DpOT1_
FNDA:8432,_ZSt13__invoke_implIbRZN6merkle5TreeTILm32EXadL_ZNS0_L15sha256_compressERKNS0_5HashTILm32EEES5_RS3_EEE15serialised_sizeEmmEUlRPNS7_4NodeEbE_JSA_bEET_St14__invoke_otherOT0_DpOT1_
FNDA:8344,_ZSt13__invoke_implIbRZN6merkle5TreeTILm32EXadL_ZNS0_L15sha256_compressERKNS0_5HashTILm32EEES5_RS3_EEE15serialised_sizeEvEUlRPNS7_4NodeEbE_JSA_bEET_St14__invoke_otherOT0_DpOT1_
FNDA:224716,_ZSt13__invoke_implIbRZN6merkle5TreeTILm32EXadL_ZNS0_L15sha256_compressERKNS0_5HashTILm32EEES5_RS3_EEE4pathEmEUlPNS7_4NodeEbE_JRS9_bEET_St14__invoke_otherOT0_DpOT1_
FNDA:806336,_ZSt13__invoke_implIbRZN6merkle5TreeTILm32EXadL_ZNS0_L15sha256_compressERKNS0_5HashTILm32EEES5_RS3_EEE8flush_toEmEUlRPNS7_4NodeEbE_JSA_bEET_St14__invoke_otherOT0_DpOT1_
FNDA:320,_ZSt13__invoke_implIbRZN6merkle5TreeTILm32EXadL_ZNS0_L15sha256_compressERKNS0_5HashTILm32EEES5_RS3_EEE9serialiseERSt6vectorIhSaIhEEEUlRPNS7_4NodeEbE_JSE_bEET_St14__invoke_otherOT0_DpOT1_
FNDA:8432,_ZSt13__invoke_implIbRZN6merkle5TreeTILm32EXadL_ZNS0_L15sha256_compressERKNS0_5HashTILm32EEES5_RS3_EEE9serialiseEmmRSt6vectorIhSaIhEEEUlRPNS7_4NodeEbE_JSE_bEET_St14__invoke_otherOT0_DpOT1_
FNF:14
FNH:14
DA:60,1250395
DA:61,1250395
DA:104,1250395
DA:114,1250395
DA:116,1250395
LF:5
LH:5
end_of_record
TN:
SF:/usr/include/c++/13/bits/list.tcc
FN:66,83,_ZNSt7__cxx1110_List_baseIN6merkle5PathTILm32EXadL_ZNS1_L15sha256_compressERKNS1_5HashTILm32EEES6_RS4_EEEUt0_ESaIS9_EE8_M_clearEv
FNDA:51859,_ZNSt7__cxx1110_List_baseIN6merkle5PathTILm32EXadL_ZNS1_L15sha256_compressERKNS1_5HashTILm32EEES6_RS4_EEEUt0_ESaIS9_EE8_M_clearEv
FNF:1
FNH:1
DA:66,51859
DA:70,51859
DA:71,333843
DA:73,281984
DA:74,281984
DA:75,281984
DA:77,281984
DA:81,281984
DA:83,51859
LF:9
LH:9
end_of_record
TN:
SF:/usr/include/c++/13/bits/move.h
FN:189,200,_ZSt4swapImENSt9enable_ifIXsrSt6__and_IJSt6__not_ISt15__is_tuple_likeIT_EESt21is_move_constructibleIS4_ESt18is_move_assignableIS4_EEE5valueEvE4typeERS4_SE_
FN:51,52,_ZSt11__addressofIKZN6merkle5TreeTILm32EXadL_ZNS0_L15sha256_compressERKNS0_5HashTILm32EEES5_RS3_EEE10retract_toEmEUlRPNS7_4NodeEbE_EPT_RSD_
FN:51,52,_ZSt11__addressofIKZN6merkle5TreeTILm32EXadL_ZNS0_L15sha256_compressERKNS0_5HashTILm32EEES5_RS3_EEE15serialised_sizeEmmEUlRPNS7_4NodeEbE_EPT_RSD_
FN:51,52,_ZSt11__addressofIKZN6merkle5TreeTILm32EXadL_ZNS0_L15sha256_compressERKNS0_5HashTILm32EEES5_RS3_EEE15serialised_sizeEvEUlRPNS7_4NodeEbE_EPT_RSD_
FN:51,52,_ZSt11__addressofIKZN6merkle5TreeTILm32EXadL_ZNS0_L15sha256_compressERKNS0_5HashTILm32EEES5_RS3_EEE4pathEmEUlPNS7_4NodeEbE_EPT_RSC_
FN:51,52,_ZSt11__addressofIKZN6merkle5TreeTILm32EXadL_ZNS0_L15sha256_compressERKNS0_5HashTILm32EEES5_RS3_EEE8flush_toEmEUlRPNS7_4NodeEbE_EPT_RSD_
FN:51,52,_ZSt11__addressofIKZN6merkle5TreeTILm32EXadL_ZNS0_L15sha256_compressERKNS0_5HashTILm32EEES5_RS3_EEE9serialiseERSt6vectorIhSaIhEEEUlRPNS7_4NodeEbE_EPT_RSH_
FN:51,52,_ZSt11__addressofIKZN6merkle5TreeTILm32EXadL_ZNS0_L15sha256_compressERKNS0_5HashTILm32EEES5_RS3_EEE9serialiseEmmRSt6vectorIhSaIhEEEUlRPNS7_4NodeEbE_EPT_RSH_
FN:51,52,_ZSt11__addressofIN6merkle5HashTILm32EEEEPT_RS3_
FN:51,52,_ZSt11__addressofIPN6merkle5TreeTILm32EXadL_ZNS0_L15sha256_compressERKNS0_5HashTILm32EEES5_RS3_EEE4NodeEEPT_RSA_
FN:51,52,_ZSt11__addressofISaISt10_List_nodeIN6merkle5PathTILm32EXadL_ZNS1_L15sha256_compressERKNS1_5HashTILm32EEES6_RS4_EEEUt0_EEEEPT_RSC_
FN:51,52,_ZSt11__addressofISaISt23_Sp_counted_ptr_inplaceIN6merkle5HashTILm32EEESaIvELN9__gnu_cxx12_Lock_policyE2EEEEPT_RS9_
FN:51,52,_ZSt11__addressofISaISt23_Sp_counted_ptr_inplaceIN6merkle5PathTILm32EXadL_ZNS1_L15sha256_compressERKNS1_5HashTILm32EEES6_RS4_EEEESaIvELN9__gnu_cxx12_Lock_policyE2EEEEPT_RSE_
FN:70,71,_ZSt7forwardIN6merkle5HashTILm32EEEEOT_RNSt16remove_referenceIS3_E4typeE
FN:70,71,_ZSt7forwardIN6merkle5PathTILm32EXadL_ZNS0_L15sha256_compressERKNS0_5HashTILm32EEES5_RS3_EEEUt0_EEOT_RNSt16remove_referenceIS9_E4typeE
FN:70,71,_ZSt7forwardIN6merkle5TreeTILm32EXadL_ZNS0_L15sha256_compressERKNS0_5HashTILm32EEES5_RS3_EEEUt_EEOT_RNSt16remove_referenceIS9_E4typeE
FN:70,71,_ZSt7forwardINSt7__cxx114listIN6merkle5PathTILm32EXadL_ZNS2_L15sha256_compressERKNS2_5HashTILm32EEES7_RS5_EEEUt0_ESaISA_EEEEOT_RNSt16remove_referenceISD_E4typeE
FN:70,71,_ZSt7forwardIPN6merkle5TreeTILm32EXadL_ZNS0_L15sha256_compressERKNS0_5HashTILm32EEES5_RS3_EEE4NodeEEOT_RNSt16remove_referenceISA_E4typeE
FN:70,71,_ZSt7forwardIRKN6merkle5HashTILm32EEEEOT_RNSt16remove_referenceIS5_E4typeE
FN:70,71,_ZSt7forwardIRKPN6merkle5TreeTILm32EXadL_ZNS0_L15sha256_compressERKNS0_5HashTILm32EEES5_RS3_EEE4NodeEEOT_RNSt16remove_referenceISC_E4typeE
FN:70,71,_ZSt7forwardIRKSt21piecewise_construct_tEOT_RNSt16remove_referenceIS3_E4typeE
FN:70,71,_ZSt7forwardIRKZN6merkle5TreeTILm32EXadL_ZNS0_L15sha256_compressERKNS0_5HashTILm32EEES5_RS3_EEE10retract_toEmEUlRPNS7_4NodeEbE_EOT_RNSt16remove_referenceISE_E4typeE
FN:70,71,_ZSt7forwardIRKZN6merkle5TreeTILm32EXadL_ZNS0_L15sha256_compressERKNS0_5HashTILm32EEES5_RS3_EEE15serialised_sizeEmmEUlRPNS7_4NodeEbE_EOT_RNSt16remove_referenceISE_E4typeE
FN:70,71,_ZSt7forwardIRKZN6merkle5TreeTILm32EXadL_ZNS0_L15sha256_compressERKNS0_5HashTILm32EEES5_RS3_EEE15serialised_sizeEvEUlRPNS7_4NodeEbE_EOT_RNSt16remove_referenceISE_E4typeE
FN:70,71,_ZSt7forwardIRKZN6merkle5TreeTILm32EXadL_ZNS0_L15sha256_compressERKNS0_5HashTILm32EEES5_RS3_EEE4pathEmEUlPNS7_4NodeEbE_EOT_RNSt16remove_referenceISD_E4typeE
FN:70,71,_ZSt7forwardIRKZN6merkle5TreeTILm32EXadL_ZNS0_L15sha256_compressERKNS0_5HashTILm32EEES5_RS3_EEE8flush_toEmEUlRPNS7_4NodeEbE_EOT_RNSt16remove_referenceISE_E4typeE
FN:70,71,_ZSt7forwardIRKZN6merkle5TreeTILm32EXadL_ZNS0_L15sha256_compressERKNS0_5HashTILm32EEES5_RS3_EEE9serialiseERSt6vectorIhSaIhEEEUlRPNS7_4NodeEbE_EOT_RNSt16remove_referenceISI_E4typeE
FN:70,71,_ZSt7forwardIRKZN6merkle5TreeTILm32EXadL_ZNS0_L15sha256_compressERKNS0_5HashTILm32EEES5_RS3_EEE9serialiseEmmRSt6vectorIhSaIhEEEUlRPNS7_4NodeEbE_EOT_RNSt16remove_referenceISI_E4typeE
FN:70,71,_ZSt7forwardIRKhEOT_RNSt16remove_referenceIS2_E4typeE
FN:70,71,_ZSt7forwardIRKmEOT_RNSt16remove_referenceIS2_E4typeE
FN:70,71,_ZSt7forwardIRPN6merkle5TreeTILm32EXadL_ZNS0_L15sha256_compressERKNS0_5HashTILm32EEES5_RS3_EEE4NodeEEOT_RNSt16remove_referenceISB_E4typeE
FN:70,71,_ZSt7forwardIRPSt13_Rb_tree_nodeISt4pairIKmN6merkle5HashTILm32EEEEEEOT_RNSt16remove_referenceISA_E4typeE
FN:70,71,_ZSt7forwardIRPSt18_Rb_tree_node_baseEOT_RNSt16remove_referenceIS3_E4typeE
FN:70,71,_ZSt7forwardIRZN6merkle5TreeTILm32EXadL_ZNS0_L15sha256_compressERKNS0_5HashTILm32EEES5_RS3_EEE10retract_toEmEUlRPNS7_4NodeEbE_EOT_RNSt16remove_referenceISD_E4typeE
FN:70,71,_ZSt7forwardIRZN6merkle5TreeTILm32EXadL_ZNS0_L15sha256_compressERKNS0_5HashTILm32EEES5_RS3_EEE15serialised_sizeEmmEUlRPNS7_4NodeEbE_EOT_RNSt16remove_referenceISD_E4typeE
FN:70,71,_ZSt7forwardIRZN6merkle5TreeTILm32EXadL_ZNS0_L15sha256_compressERKNS0_5HashTILm32EEES5_RS3_EEE15serialised_sizeEvEUlRPNS7_4NodeEbE_EOT_RNSt16remove_referenceISD_E4typeE
FN:70,71,_ZSt7forwardIRZN6merkle5TreeTILm32EXadL_ZNS0_L15sha256_compressERKNS0_5HashTILm32EEES5_RS3_EEE4pathEmEUlPNS7_4NodeEbE_EOT_RNSt16remove_referenceISC_E4typeE
FN:70,71,_ZSt7forwardIRZN6merkle5TreeTILm32EXadL_ZNS0_L15sha256_compressERKNS0_5HashTILm32EEES5_RS3_EEE8flush_toEmEUlRPNS7_4NodeEbE_EOT_RNSt16remove_referenceISD_E4typeE
FN:70,71,_ZSt7forwardIRZN6merkle5TreeTILm32EXadL_ZNS0_L15sha256_compressERKNS0_5HashTILm32EEES5_RS3_EEE9serialiseERSt6vectorIhSaIhEEEUlRPNS7_4NodeEbE_EOT_RNSt16remove_referenceISH_E4typeE
FN:70,71,_ZSt7forwardIRZN6merkle5TreeTILm32EXadL_ZNS0_L15sha256_compressERKNS0_5HashTILm32EEES5_RS3_EEE9serialiseEmmRSt6vectorIhSaIhEEEUlRPNS7_4NodeEbE_EOT_RNSt16remove_referenceISH_E4typeE
FN:70,71,_ZSt7forwardIRmEOT_RNSt16remove_referenceIS1_E4typeE
FN:70,71,_ZSt7forwardISt5tupleIJEEEOT_RNSt16remove_referenceIS2_E4typeE
FN:70,71,_ZSt7forwardISt5tupleIJRKmEEEOT_RNSt16remove_referenceIS4_E4typeE
FN:70,71,_ZSt7forwardIZN6merkle5TreeTILm32EXadL_ZNS0_L15sha256_compressERKNS0_5HashTILm32EEES5_RS3_EEE10retract_toEmEUlRPNS7_4NodeEbE_EOT_RNSt16remove_referenceISC_E4typeE
FN:70,71,_ZSt7forwardIZN6merkle5TreeTILm32EXadL_ZNS0_L15sha256_compressERKNS0_5HashTILm32EEES5_RS3_EEE15serialised_sizeEmmEUlRPNS7_4NodeEbE_EOT_RNSt16remove_referenceISC_E4typeE
FN:70,71,_ZSt7forwardIZN6merkle5TreeTILm32EXadL_ZNS0_L15sha256_compressERKNS0_5HashTILm32EEES5_RS3_EEE15serialised_sizeEvEUlRPNS7_4NodeEbE_EOT_RNSt16remove_referenceISC_E4typeE
FN:70,71,_ZSt7forwardIZN6merkle5TreeTILm32EXadL_ZNS0_L15sha256_compressERKNS0_5HashTILm32EEES5_RS3_EEE4pathEmEUlPNS7_4NodeEbE_EOT_RNSt16remove_referenceISB_E4typeE
FN:70,71,_ZSt7forwardIZN6merkle5TreeTILm32EXadL_ZNS0_L15sha256_compressERKNS0_5HashTILm32EEES5_RS3_EEE8flush_toEmEUlRPNS7_4NodeEbE_EOT_RNSt16remove_referenceISC_E4typeE
FN:70,71,_ZSt7forwardIZN6merkle5TreeTILm32EXadL_ZNS0_L15sha256_compressERKNS0_5HashTILm32EEES5_RS3_EEE9serialiseERSt6vectorIhSaIhEEEUlRPNS7_4NodeEbE_EOT_RNSt16remove_referenceISG_E4typeE
FN:70,71,_ZSt7forwardIZN6merkle5TreeTILm32EXadL_ZNS0_L15sha256_compressERKNS0_5HashTILm32EEES5_RS3_EEE9serialiseEmmRSt6vectorIhSaIhEEEUlRPNS7_4NodeEbE_EOT_RNSt16remove_referenceISG_E4typeE
FN:70,71,_ZSt7forwardIbEOT_RNSt16remove_referenceIS0_E4typeE
FN:70,71,_ZSt7forwardIhEOT_RNSt16remove_referenceIS0_E4typeE
FN:70,71,_ZSt7forwardImEOT_RNSt16remove_referenceIS0_E4typeE
FN:97,98,_ZSt4moveIRN6merkle5HashTILm32EEEEONSt16remove_referenceIT_E4typeEOS5_
FN:97,98,_ZSt4moveIRN6merkle5PathTILm32EXadL_ZNS0_L15sha256_compressERKNS0_5HashTILm32EEES5_RS3_EEEUt0_EEONSt16remove_referenceIT_E4typeEOSB_
FN:97,98,_ZSt4moveIRN6merkle5TreeTILm32EXadL_ZNS0_L15sha256_compressERKNS0_5HashTILm32EEES5_RS3_EEEUt_EEONSt16remove_referenceIT_E4typeEOSB_
FN:97,98,_ZSt4moveIRNSt7__cxx114listIN6merkle5PathTILm32EXadL_ZNS2_L15sha256_compressERKNS2_5HashTILm32EEES7_RS5_EEEUt0_ESaISA_EEEEONSt16remove_referenceIT_E4typeEOSF_
FN:97,98,_ZSt4moveIRPN6merkle5TreeTILm32EXadL_ZNS0_L15sha256_compressERKNS0_5HashTILm32EEES5_RS3_EEE4NodeEEONSt16remove_referenceIT_E4typeEOSC_
FN:97,98,_ZSt4moveIRSaIcEEONSt16remove_referenceIT_E4typeEOS3_
FN:97,98,_ZSt4moveIRhEONSt16remove_referenceIT_E4typeEOS2_
FN:97,98,_ZSt4moveIRmEONSt16remove_referenceIT_E4typeEOS2_
FNDA:1165,_ZSt4swapImENSt9enable_ifIXsrSt6__and_IJSt6__not_ISt15__is_tuple_likeIT_EESt21is_move_constructibleIS4_ESt18is_move_assignableIS4_EEE5valueEvE4typeERS4_SE_
FNDA:193815,_ZSt11__addressofIKZN6merkle5TreeTILm32EXadL_ZNS0_L15sha256_compressERKNS0_5HashTILm32EEES5_RS3_EEE10retract_toEmEUlRPNS7_4NodeEbE_EPT_RSD_
FNDA:8432,_ZSt11__addressofIKZN6merkle5TreeTILm32EXadL_ZNS0_L15sha256_compressERKNS0_5HashTILm32EEES5_RS3_EEE15serialised_sizeEmmEUlRPNS7_4NodeEbE_EPT_RSD_
FNDA:8344,_ZSt11__addressofIKZN6merkle5TreeTILm32EXadL_ZNS0_L15sha256_compressERKNS0_5HashTILm32EEES5_RS3_EEE15serialised_sizeEvEUlRPNS7_4NodeEbE_EPT_RSD_
FNDA:224716,_ZSt11__addressofIKZN6merkle5TreeTILm32EXadL_ZNS0_L15sha256_compressERKNS0_5HashTILm32EEES5_RS3_EEE4pathEmEUlPNS7_4NodeEbE_EPT_RSC_
FNDA:806336,_ZSt11__addressofIKZN6merkle5TreeTILm32EXadL_ZNS0_L15sha256_compressERKNS0_5HashTILm32EEES5_RS3_EEE8flush_toEmEUlRPNS7_4NodeEbE_EPT_RSD_
FNDA:320,_ZSt11__addressofIKZN6merkle5TreeTILm32EXadL_ZNS0_L15sha256_compressERKNS0_5HashTILm32EEES5_RS3_EEE9serialiseERSt6vectorIhSaIhEEEUlRPNS7_4NodeEbE_EPT_RSH_
FNDA:8432,_ZSt11__addressofIKZN6merkle5TreeTILm32EXadL_ZNS0_L15sha256_compressERKNS0_5HashTILm32EEES5_RS3_EEE9serialiseEmmRSt6vectorIhSaIhEEEUlRPNS7_4NodeEbE_EPT_RSH_
FNDA:34378389,_ZSt11__addressofIN6merkle5HashTILm32EEEEPT_RS3_
FNDA:10198,_ZSt11__addressofIPN6merkle5TreeTILm32EXadL_ZNS0_L15sha256_compressERKNS0_5HashTILm32EEES5_RS3_EEE4NodeEEPT_RSA_
FNDA:286670,_ZSt11__addressofISaISt10_List_nodeIN6merkle5PathTILm32EXadL_ZNS1_L15sha256_compressERKNS1_5HashTILm32EEES6_RS4_EEEUt0_EEEEPT_RSC_
FNDA:48282,_ZSt11__addressofISaISt23_Sp_counted_ptr_inplaceIN6merkle5HashTILm32EEESaIvELN9__gnu_cxx12_Lock_policyE2EEEEPT_RS9_
FNDA:44518,_ZSt11__addressofISaISt23_Sp_counted_ptr_inplaceIN6merkle5PathTILm32EXadL_ZNS1_L15sha256_compressERKNS1_5HashTILm32EEES6_RS4_EEEESaIvELN9__gnu_cxx12_Lock_policyE2EEEEPT_RSE_
FNDA:22918926,_ZSt7forwardIN6merkle5HashTILm32EEEEOT_RNSt16remove_referenceIS3_E4typeE
FNDA:1146680,_ZSt7forwardIN6merkle5PathTILm32EXadL_ZNS0_L15sha256_compressERKNS0_5HashTILm32EEES5_RS3_EEEUt0_EEOT_RNSt16remove_referenceIS9_E4typeE
FNDA:36766028,_ZSt7forwardIN6merkle5TreeTILm32EXadL_ZNS0_L15sha256_compressERKNS0_5HashTILm32EEES5_RS3_EEEUt_EEOT_RNSt16remove_referenceIS9_E4typeE
FNDA:155813,_ZSt7forwardINSt7__cxx114listIN6merkle5PathTILm32EXadL_ZNS2_L15sha256_compressERKNS2_5HashTILm32EEES7_RS5_EEEUt0_ESaISA_EEEEOT_RNSt16remove_referenceISD_E4typeE
FNDA:34435622,_ZSt7forwardIPN6merkle5TreeTILm32EXadL_ZNS0_L15sha256_compressERKNS0_5HashTILm32EEES5_RS3_EEE4NodeEEOT_RNSt16remove_referenceISA_E4typeE
FNDA:17594374,_ZSt7forwardIRKN6merkle5HashTILm32EEEEOT_RNSt16remove_referenceIS5_E4typeE
FNDA:42251595,_ZSt7forwardIRKPN6merkle5TreeTILm32EXadL_ZNS0_L15sha256_compressERKNS0_5HashTILm32EEES5_RS3_EEE4NodeEEOT_RNSt16remove_referenceISC_E4typeE
FNDA:82716,_ZSt7forwardIRKSt21piecewise_construct_tEOT_RNSt16remove_referenceIS3_E4typeE
FNDA:0,_ZSt7forwardIRKZN6merkle5TreeTILm32EXadL_ZNS0_L15sha256_compressERKNS0_5HashTILm32EEES5_RS3_EEE10retract_toEmEUlRPNS7_4NodeEbE_EOT_RNSt16remove_referenceISE_E4typeE
FNDA:0,_ZSt7forwardIRKZN6merkle5TreeTILm32EXadL_ZNS0_L15sha256_compressERKNS0_5HashTILm32EEES5_RS3_EEE15serialised_sizeEmmEUlRPNS7_4NodeEbE_EOT_RNSt16remove_referenceISE_E4typeE
FNDA:0,_ZSt7forwardIRKZN6merkle5TreeTILm32EXadL_ZNS0_L15sha256_compressERKNS0_5HashTILm32EEES5_RS3_EEE15serialised_sizeEvEUlRPNS7_4NodeEbE_EOT_RNSt16remove_referenceISE_E4typeE
FNDA:0,_ZSt7forwardIRKZN6merkle5TreeTILm32EXadL_ZNS0_L15sha256_compressERKNS0_5HashTILm32EEES5_RS3_EEE4pathEmEUlPNS7_4NodeEbE_EOT_RNSt16remove_referenceISD_E4typeE
FNDA:0,_ZSt7forwardIRKZN6merkle5TreeTILm32EXadL_ZNS0_L15sha256_compressERKNS0_5HashTILm32EEES5_RS3_EEE8flush_toEmEUlRPNS7_4NodeEbE_EOT_RNSt16remove_referenceISE_E4typeE
FNDA:0,_ZSt7forwardIRKZN6merkle5TreeTILm32EXadL_ZNS0_L15sha256_compressERKNS0_5HashTILm32EEES5_RS3_EEE9serialiseERSt6vectorIhSaIhEEEUlRPNS7_4NodeEbE_EOT_RNSt16remove_referenceISI_E4typeE
FNDA:0,_ZSt7forwardIRKZN6merkle5TreeTILm32EXadL_ZNS0_L15sha256_compressERKNS0_5HashTILm32EEES5_RS3_EEE9serialiseEmmRSt6vectorIhSaIhEEEUlRPNS7_4NodeEbE_EOT_RNSt16remove_referenceISI_E4typeE
FNDA:2069624,_ZSt7forwardIRKhEOT_RNSt16remove_referenceIS2_E4typeE
FNDA:13786,_ZSt7forwardIRKmEOT_RNSt16remove_referenceIS2_E4typeE
FNDA:5001580,_ZSt7forwardIRPN6merkle5TreeTILm32EXadL_ZNS0_L15sha256_compressERKNS0_5HashTILm32EEES5_RS3_EEE4NodeEEOT_RNSt16remove_referenceISB_E4typeE
FNDA:127,_ZSt7forwardIRPSt13_Rb_tree_nodeISt4pairIKmN6merkle5HashTILm32EEEEEEOT_RNSt16remove_referenceISA_E4typeE
FNDA:127,_ZSt7forwardIRPSt18_Rb_tree_node_baseEOT_RNSt16remove_referenceIS3_E4typeE
FNDA:387630,_ZSt7forwardIRZN6merkle5TreeTILm32EXadL_ZNS0_L15sha256_compressERKNS0_5HashTILm32EEES5_RS3_EEE10retract_toEmEUlRPNS7_4NodeEbE_EOT_RNSt16remove_referenceISD_E4typeE
FNDA:16864,_ZSt7forwardIRZN6merkle5TreeTILm32EXadL_ZNS0_L15sha256_compressERKNS0_5HashTILm32EEES5_RS3_EEE15serialised_sizeEmmEUlRPNS7_4NodeEbE_EOT_RNSt16remove_referenceISD_E4typeE
FNDA:16688,_ZSt7forwardIRZN6merkle5TreeTILm32EXadL_ZNS0_L15sha256_compressERKNS0_5HashTILm32EEES5_RS3_EEE15serialised_sizeEvEUlRPNS7_4NodeEbE_EOT_RNSt16remove_referenceISD_E4typeE
FNDA:449432,_ZSt7forwardIRZN6merkle5TreeTILm32EXadL_ZNS0_L15sha256_compressERKNS0_5HashTILm32EEES5_RS3_EEE4pathEmEUlPNS7_4NodeEbE_EOT_RNSt16remove_referenceISC_E4typeE
FNDA:1612672,_ZSt7forwardIRZN6merkle5TreeTILm32EXadL_ZNS0_L15sha256_compressERKNS0_5HashTILm32EEES5_RS3_EEE8flush_toEmEUlRPNS7_4NodeEbE_EOT_RNSt16remove_referenceISD_E4typeE
FNDA:640,_ZSt7forwardIRZN6merkle5TreeTILm32EXadL_ZNS0_L15sha256_compressERKNS0_5HashTILm32EEES5_RS3_EEE9serialiseERSt6vectorIhSaIhEEEUlRPNS7_4NodeEbE_EOT_RNSt16remove_referenceISH_E4typeE
FNDA:16864,_ZSt7forwardIRZN6merkle5TreeTILm32EXadL_ZNS0_L15sha256_compressERKNS0_5HashTILm32EEES5_RS3_EEE9serialiseEmmRSt6vectorIhSaIhEEEUlRPNS7_4NodeEbE_EOT_RNSt16remove_referenceISH_E4typeE
FNDA:172942,_ZSt7forwardIRmEOT_RNSt16remove_referenceIS1_E4typeE
FNDA:82716,_ZSt7forwardISt5tupleIJEEEOT_RNSt16remove_referenceIS2_E4typeE
FNDA:82716,_ZSt7forwardISt5tupleIJRKmEEEOT_RNSt16remove_referenceIS4_E4typeE
FNDA:64869,_ZSt7forwardIZN6merkle5TreeTILm32EXadL_ZNS0_L15sha256_compressERKNS0_5HashTILm32EEES5_RS3_EEE10retract_toEmEUlRPNS7_4NodeEbE_EOT_RNSt16remove_referenceISC_E4typeE
FNDA:3012,_ZSt7forwardIZN6merkle5TreeTILm32EXadL_ZNS0_L15sha256_compressERKNS0_5HashTILm32EEES5_RS3_EEE15serialised_sizeEmmEUlRPNS7_4NodeEbE_EOT_RNSt16remove_referenceISC_E4typeE
FNDA:3204,_ZSt7forwardIZN6merkle5TreeTILm32EXadL_ZNS0_L15sha256_compressERKNS0_5HashTILm32EEES5_RS3_EEE15serialised_sizeEvEUlRPNS7_4NodeEbE_EOT_RNSt16remove_referenceISC_E4typeE
FNDA:59436,_ZSt7forwardIZN6merkle5TreeTILm32EXadL_ZNS0_L15sha256_compressERKNS0_5HashTILm32EEES5_RS3_EEE4pathEmEUlPNS7_4NodeEbE_EOT_RNSt16remove_referenceISB_E4typeE
FNDA:255204,_ZSt7forwardIZN6merkle5TreeTILm32EXadL_ZNS0_L15sha256_compressERKNS0_5HashTILm32EEES5_RS3_EEE8flush_toEmEUlRPNS7_4NodeEbE_EOT_RNSt16remove_referenceISC_E4typeE
FNDA:102,_ZSt7forwardIZN6merkle5TreeTILm32EXadL_ZNS0_L15sha256_compressERKNS0_5HashTILm32EEES5_RS3_EEE9serialiseERSt6vectorIhSaIhEEEUlRPNS7_4NodeEbE_EOT_RNSt16remove_referenceISG_E4typeE
FNDA:3012,_ZSt7forwardIZN6merkle5TreeTILm32EXadL_ZNS0_L15sha256_compressERKNS0_5HashTILm32EEES5_RS3_EEE9serialiseEmmRSt6vectorIhSaIhEEEUlRPNS7_4NodeEbE_EOT_RNSt16remove_referenceISG_E4typeE
FNDA:5001580,_ZSt7forwardIbEOT_RNSt16remove_referenceIS0_E4typeE
FNDA:182029,_ZSt7forwardIhEOT_RNSt16remove_referenceIS0_E4typeE
FNDA:138684,_ZSt7forwardImEOT_RNSt16remove_referenceIS0_E4typeE
FNDA:11459463,_ZSt4moveIRN6merkle5HashTILm32EEEEONSt16remove_referenceIT_E4typeEOS5_
FNDA:573340,_ZSt4moveIRN6merkle5PathTILm32EXadL_ZNS0_L15sha256_compressERKNS0_5HashTILm32EEES5_RS3_EEEUt0_EEONSt16remove_referenceIT_E4typeEOSB_
FNDA:12254589,_ZSt4moveIRN6merkle5TreeTILm32EXadL_ZNS0_L15sha256_compressERKNS0_5HashTILm32EEES5_RS3_EEEUt_EEONSt16remove_referenceIT_E4typeEOSB_
FNDA:44518,_ZSt4moveIRNSt7__cxx114listIN6merkle5PathTILm32EXadL_ZNS2_L15sha256_compressERKNS2_5HashTILm32EEES7_RS5_EEEUt0_ESaISA_EEEEONSt16remove_referenceIT_E4typeEOSF_
FNDA:11481634,_ZSt4moveIRPN6merkle5TreeTILm32EXadL_ZNS0_L15sha256_compressERKNS0_5HashTILm32EEES5_RS3_EEE4NodeEEONSt16remove_referenceIT_E4typeEOSC_
FNDA:0,_ZSt4moveIRSaIcEEONSt16remove_referenceIT_E4typeEOS3_
FNDA:60673,_ZSt4moveIRhEONSt16remove_referenceIT_E4typeEOS2_
FNDA:3495,_ZSt4moveIRmEONSt16remove_referenceIT_E4typeEOS2_
FNF:61
FNH:53
DA:51,36018452
DA:52,36018452
DA:70,170987294
DA:71,170987294
DA:97,35877712
DA:98,35877712
DA:189,1165
DA:197,1165
DA:198,1165
DA:199,1165
DA:200,1165
LF:11
LH:11
end_of_record
TN:
SF:/usr/include/c++/13/bits/new_allocator.h
FN:104,104,_ZNSt15__new_allocatorIN6merkle5HashTILm32EEEED2Ev
FN:104,104,_ZNSt15__new_allocatorIN6merkle5TreeTILm32EXadL_ZNS0_L15sha256_compressERKNS0_5HashTILm32EEES5_RS3_EEEUt_EED2Ev
FN:104,104,_ZNSt15__new_allocatorIPN6merkle5TreeTILm32EXadL_ZNS0_L15sha256_compressERKNS0_5HashTILm32EEES5_RS3_EEE4NodeEED2Ev
FN:104,104,_ZNSt15__new_allocatorISt10_List_nodeIN6merkle5PathTILm32EXadL_ZNS1_L15sha256_compressERKNS1_5HashTILm32EEES6_RS4_EEEUt0_EEED2Ev
FN:104,104,_ZNSt15__new_allocatorISt13_Rb_tree_nodeISt4pairIKmN6merkle5HashTILm32EEEEEED2Ev
FN:104,104,_ZNSt15__new_allocatorISt23_Sp_counted_ptr_inplaceIN6merkle5HashTILm32EEESaIvELN9__gnu_cxx12_Lock_policyE2EEED2Ev
FN:104,104,_ZNSt15__new_allocatorISt23_Sp_counted_ptr_inplaceIN6merkle5PathTILm32EXadL_ZNS1_L15sha256_compressERKNS1_5HashTILm32EEES6_RS4_EEEESaIvELN9__gnu_cxx12_Lock_policyE2EEED2Ev
FN:104,104,_ZNSt15__new_allocatorIcED2Ev
FN:104,104,_ZNSt15__new_allocatorIhED2Ev
FN:126,152,_ZNSt15__new_allocatorIN6merkle5HashTILm32EEEE8allocateEmPKv
FN:126,152,_ZNSt15__new_allocatorIN6merkle5TreeTILm32EXadL_ZNS0_L15sha256_compressERKNS0_5HashTILm32EEES5_RS3_EEEUt_EE8allocateEmPKv
FN:126,152,_ZNSt15__new_allocatorIPN6merkle5TreeTILm32EXadL_ZNS0_L15sha256_compressERKNS0_5HashTILm32EEES5_RS3_EEE4NodeEE8allocateEmPKv
FN:126,152,_ZNSt15__new_allocatorISt10_List_nodeIN6merkle5PathTILm32EXadL_ZNS1_L15sha256_compressERKNS1_5HashTILm32EEES6_RS4_EEEUt0_EEE8allocateEmPKv
FN:126,152,_ZNSt15__new_allocatorISt13_Rb_tree_nodeISt4pairIKmN6merkle5HashTILm32EEEEEE8allocateEmPKv
FN:126,152,_ZNSt15__new_allocatorISt23_Sp_counted_ptr_inplaceIN6merkle5HashTILm32EEESaIvELN9__gnu_cxx12_Lock_policyE2EEE8allocateEmPKv
FN:126,152,_ZNSt15__new_allocatorISt23_Sp_counted_ptr_inplaceIN6merkle5PathTILm32EXadL_ZNS1_L15sha256_compressERKNS1_5HashTILm32EEES6_RS4_EEEESaIvELN9__gnu_cxx12_Lock_policyE2EEE8allocateEmPKv
FN:126,152,_ZNSt15__new_allocatorIhE8allocateEmPKv
FN:156,173,_ZNSt15__new_allocatorIN6merkle5HashTILm32EEEE10deallocateEPS2_m
FN:156,173,_ZNSt15__new_allocatorIN6merkle5TreeTILm32EXadL_ZNS0_L15sha256_compressERKNS0_5HashTILm32EEES5_RS3_EEEUt_EE10deallocateEPS8_m
FN:156,173,_ZNSt15__new_allocatorIPN6merkle5TreeTILm32EXadL_ZNS0_L15sha256_compressERKNS0_5HashTILm32EEES5_RS3_EEE4NodeEE10deallocateEPS9_m
FN:156,173,_ZNSt15__new_allocatorISt10_List_nodeIN6merkle5PathTILm32EXadL_ZNS1_L15sha256_compressERKNS1_5HashTILm32EEES6_RS4_EEEUt0_EEE10deallocateEPSA_m
FN:156,173,_ZNSt15__new_allocatorISt13_Rb_tree_nodeISt4pairIKmN6merkle5HashTILm32EEEEEE10deallocateEPS7_m
FN:156,173,_ZNSt15__new_allocatorISt23_Sp_counted_ptr_inplaceIN6merkle5HashTILm32EEESaIvELN9__gnu_cxx12_Lock_policyE2EEE10deallocateEPS7_m
FN:156,173,_ZNSt15__new_allocatorISt23_Sp_counted_ptr_inplaceIN6merkle5PathTILm32EXadL_ZNS1_L15sha256_compressERKNS1_5HashTILm32EEES6_RS4_EEEESaIvELN9__gnu_cxx12_Lock_policyE2EEE10deallocateEPSC_m
FN:156,173,_ZNSt15__new_allocatorIhE10deallocateEPhm
FNDA:451,_ZNSt15__new_allocatorIN6merkle5HashTILm32EEEED2Ev
FNDA:3082,_ZNSt15__new_allocatorIN6merkle5TreeTILm32EXadL_ZNS0_L15sha256_compressERKNS0_5HashTILm32EEES5_RS3_EEEUt_EED2Ev
FNDA:16482,_ZNSt15__new_allocatorIPN6merkle5TreeTILm32EXadL_ZNS0_L15sha256_compressERKNS0_5HashTILm32EEES5_RS3_EEE4NodeEED2Ev
FNDA:51859,_ZNSt15__new_allocatorISt10_List_nodeIN6merkle5PathTILm32EXadL_ZNS1_L15sha256_compressERKNS1_5HashTILm32EEES6_RS4_EEEUt0_EEED2Ev
FNDA:127,_ZNSt15__new_allocatorISt13_Rb_tree_nodeISt4pairIKmN6merkle5HashTILm32EEEEEED2Ev
FNDA:48282,_ZNSt15__new_allocatorISt23_Sp_counted_ptr_inplaceIN6merkle5HashTILm32EEESaIvELN9__gnu_cxx12_Lock_policyE2EEED2Ev
FNDA:44518,_ZNSt15__new_allocatorISt23_Sp_counted_ptr_inplaceIN6merkle5PathTILm32EXadL_ZNS1_L15sha256_compressERKNS1_5HashTILm32EEES6_RS4_EEEESaIvELN9__gnu_cxx12_Lock_policyE2EEED2Ev
FNDA:75,_ZNSt15__new_allocatorIcED2Ev
FNDA:2171,_ZNSt15__new_allocatorIhED2Ev
FNDA:6164,_ZNSt15__new_allocatorIN6merkle5HashTILm32EEEE8allocateEmPKv
FNDA:2261,_ZNSt15__new_allocatorIN6merkle5TreeTILm32EXadL_ZNS0_L15sha256_compressERKNS0_5HashTILm32EEES5_RS3_EEEUt_EE8allocateEmPKv
FNDA:54434,_ZNSt15__new_allocatorIPN6merkle5TreeTILm32EXadL_ZNS0_L15sha256_compressERKNS0_5HashTILm32EEES5_RS3_EEE4NodeEE8allocateEmPKv
FNDA:286670,_ZNSt15__new_allocatorISt10_List_nodeIN6merkle5PathTILm32EXadL_ZNS1_L15sha256_compressERKNS1_5HashTILm32EEES6_RS4_EEEUt0_EEE8allocateEmPKv
FNDA:13786,_ZNSt15__new_allocatorISt13_Rb_tree_nodeISt4pairIKmN6merkle5HashTILm32EEEEEE8allocateEmPKv
FNDA:24141,_ZNSt15__new_allocatorISt23_Sp_counted_ptr_inplaceIN6merkle5HashTILm32EEESaIvELN9__gnu_cxx12_Lock_policyE2EEE8allocateEmPKv
FNDA:22259,_ZNSt15__new_allocatorISt23_Sp_counted_ptr_inplaceIN6merkle5PathTILm32EXadL_ZNS1_L15sha256_compressERKNS1_5HashTILm32EEES6_RS4_EEEESaIvELN9__gnu_cxx12_Lock_policyE2EEE8allocateEmPKv
FNDA:22050,_ZNSt15__new_allocatorIhE8allocateEmPKv
FNDA:6164,_ZNSt15__new_allocatorIN6merkle5HashTILm32EEEE10deallocateEPS2_m
FNDA:2261,_ZNSt15__new_allocatorIN6merkle5TreeTILm32EXadL_ZNS0_L15sha256_compressERKNS0_5HashTILm32EEES5_RS3_EEEUt_EE10deallocateEPS8_m
FNDA:54434,_ZNSt15__new_allocatorIPN6merkle5TreeTILm32EXadL_ZNS0_L15sha256_compressERKNS0_5HashTILm32EEES5_RS3_EEE4NodeEE10deallocateEPS9_m
FNDA:286670,_ZNSt15__new_allocatorISt10_List_nodeIN6merkle5PathTILm32EXadL_ZNS1_L15sha256_compressERKNS1_5HashTILm32EEES6_RS4_EEEUt0_EEE10deallocateEPSA_m
FNDA:13786,_ZNSt15__new_allocatorISt13_Rb_tree_nodeISt4pairIKmN6merkle5HashTILm32EEEEEE10deallocateEPS7_m
FNDA:24141,_ZNSt15__new_allocatorISt23_Sp_counted_ptr_inplaceIN6merkle5HashTILm32EEESaIvELN9__gnu_cxx12_Lock_policyE2EEE10deallocateEPS7_m
FNDA:22259,_ZNSt15__new_allocatorISt23_Sp_counted_ptr_inplaceIN6merkle5PathTILm32EXadL_ZNS1_L15sha256_compressERKNS1_5HashTILm32EEES6_RS4_EEEESaIvELN9__gnu_cxx12_Lock_policyE2EEE10deallocateEPSC_m
FNDA:22050,_ZNSt15__new_allocatorIhE10deallocateEPhm
FNF:25
FNH:25
DA:88,142712
DA:92,24335
DA:104,167047
DA:126,431765
DA:134,431765
DA:138,0
DA:139,0
DA:140,0
DA:151,431765
DA:156,431765
DA:172,431765
DA:183,272636
DA:191,66312768
DA:198,36492190
DA:233,704401
LF:15
LH:12
end_of_record
TN:
SF:/usr/include/c++/13/bits/ptr_traits.h
FN:212,216,_ZSt12__to_addressISt23_Sp_counted_ptr_inplaceIN6merkle5HashTILm32EEESaIvELN9__gnu_cxx12_Lock_policyE2EEEPT_S9_
FN:212,216,_ZSt12__to_addressISt23_Sp_counted_ptr_inplaceIN6merkle5PathTILm32EXadL_ZNS1_L15sha256_compressERKNS1_5HashTILm32EEES6_RS4_EEEESaIvELN9__gnu_cxx12_Lock_policyE2EEEPT_SE_
FNDA:24141,_ZSt12__to_addressISt23_Sp_counted_ptr_inplaceIN6merkle5HashTILm32EEESaIvELN9__gnu_cxx12_Lock_policyE2EEEPT_S9_
FNDA:22259,_ZSt12__to_addressISt23_Sp_counted_ptr_inplaceIN6merkle5PathTILm32EXadL_ZNS1_L15sha256_compressERKNS1_5HashTILm32EEES6_RS4_EEEESaIvELN9__gnu_cxx12_Lock_policyE2EEEPT_SE_
FNF:2
FNH:2
DA:212,46400
DA:215,46400
LF:2
LH:2
end_of_record
TN:
SF:/usr/include/c++/13/bits/shared_ptr.h
FN:1005,1011,_ZSt11make_sharedIN6merkle5HashTILm32EEEJRKS2_EESt10shared_ptrINSt9enable_ifIXntsrSt8is_arrayIT_E5valueES8_E4typeEEDpOT0_
FN:1005,1011,_ZSt11make_sharedIN6merkle5PathTILm32EXadL_ZNS0_L15sha256_compressERKNS0_5HashTILm32EEES5_RS3_EEEEJS5_RmNSt7__cxx114listINS7_Ut0_ESaISB_EEES8_EESt10shared_ptrINSt9enable_ifIXntsrSt8is_arrayIT_E5valueESH_E4typeEEDpOT0_
FN:1005,1011,_ZSt11make_sharedIN6merkle5PathTILm32EXadL_ZNS0_L15sha256_compressERKNS0_5HashTILm32EEES5_RS3_EEEEJS5_RmNSt7__cxx114listINS7_Ut0_ESaISB_EEEmEESt10shared_ptrINSt9enable_ifIXntsrSt8is_arrayIT_E5valueESH_E4typeEEDpOT0_
FN:463,465,_ZNSt10shared_ptrIN6merkle5HashTILm32EEEEC2ISaIvEJRKS2_EEESt20_Sp_alloc_shared_tagIT_EDpOT0_
FN:463,465,_ZNSt10shared_ptrIN6merkle5PathTILm32EXadL_ZNS0_L15sha256_compressERKNS0_5HashTILm32EEES5_RS3_EEEEEC2ISaIvEJS5_RmNSt7__cxx114listINS7_Ut0_ESaISE_EEESB_EEESt20_Sp_alloc_shared_tagIT_EDpOT0_
FN:463,465,_ZNSt10shared_ptrIN6merkle5PathTILm32EXadL_ZNS0_L15sha256_compressERKNS0_5HashTILm32EEES5_RS3_EEEEEC2ISaIvEJS5_RmNSt7__cxx114listINS7_Ut0_ESaISE_EEEmEEESt20_Sp_alloc_shared_tagIT_EDpOT0_
FNDA:24141,_ZSt11make_sharedIN6merkle5HashTILm32EEEJRKS2_EESt10shared_ptrINSt9enable_ifIXntsrSt8is_arrayIT_E5valueES8_E4typeEEDpOT0_
FNDA:2447,_ZSt11make_sharedIN6merkle5PathTILm32EXadL_ZNS0_L15sha256_compressERKNS0_5HashTILm32EEES5_RS3_EEEEJS5_RmNSt7__cxx114listINS7_Ut0_ESaISB_EEES8_EESt10shared_ptrINSt9enable_ifIXntsrSt8is_arrayIT_E5valueESH_E4typeEEDpOT0_
FNDA:19812,_ZSt11make_sharedIN6merkle5PathTILm32EXadL_ZNS0_L15sha256_compressERKNS0_5HashTILm32EEES5_RS3_EEEEJS5_RmNSt7__cxx114listINS7_Ut0_ESaISB_EEEmEESt10shared_ptrINSt9enable_ifIXntsrSt8is_arrayIT_E5valueESH_E4typeEEDpOT0_
FNDA:24141,_ZNSt10shared_ptrIN6merkle5HashTILm32EEEEC2ISaIvEJRKS2_EEESt20_Sp_alloc_shared_tagIT_EDpOT0_
FNDA:2447,_ZNSt10shared_ptrIN6merkle5PathTILm32EXadL_ZNS0_L15sha256_compressERKNS0_5HashTILm32EEES5_RS3_EEEEEC2ISaIvEJS5_RmNSt7__cxx114listINS7_Ut0_ESaISE_EEESB_EEESt20_Sp_alloc_shared_tagIT_EDpOT0_
FNDA:19812,_ZNSt10shared_ptrIN6merkle5PathTILm32EXadL_ZNS0_L15sha256_compressERKNS0_5HashTILm32EEES5_RS3_EEEEEC2ISaIvEJS5_RmNSt7__cxx114listINS7_Ut0_ESaISE_EEEmEEESt20_Sp_alloc_shared_tagIT_EDpOT0_
FNF:6
FNH:6
DA:463,46400
DA:464,46400
DA:465,46400
DA:1005,46400
DA:1010,92800
LF:5
LH:5
end_of_record
TN:
SF:/usr/include/c++/13/bits/shared_ptr_base.h
FN:1068,1072,_ZNSt14__shared_countILN9__gnu_cxx12_Lock_policyE2EED2Ev
FN:129,130,_ZNSt16_Sp_counted_baseILN9__gnu_cxx12_Lock_policyE2EEC2Ev
FN:133,134,_ZNSt16_Sp_counted_baseILN9__gnu_cxx12_Lock_policyE2EED0Ev
FN:133,134,_ZNSt16_Sp_counted_baseILN9__gnu_cxx12_Lock_policyE2EED2Ev
FN:1347,1351,_ZNKSt19__shared_ptr_accessIN6merkle5HashTILm32EEELN9__gnu_cxx12_Lock_policyE2ELb0ELb0EEdeEv
FN:1347,1351,_ZNKSt19__shared_ptr_accessIN6merkle5PathTILm32EXadL_ZNS0_L15sha256_compressERKNS0_5HashTILm32EEES5_RS3_EEEELN9__gnu_cxx12_Lock_policyE2ELb0ELb0EEdeEv
FN:1354,1358,_ZNKSt19__shared_ptr_accessIN6merkle5HashTILm32EEELN9__gnu_cxx12_Lock_policyE2ELb0ELb0EEptEv
FN:1354,1358,_ZNKSt19__shared_ptr_accessIN6merkle5PathTILm32EXadL_ZNS0_L15sha256_compressERKNS0_5HashTILm32EEES5_RS3_EEEELN9__gnu_cxx12_Lock_policyE2ELb0ELb0EEptEv
FN:1362,1363,_ZNKSt19__shared_ptr_accessIN6merkle5HashTILm32EEELN9__gnu_cxx12_Lock_policyE2ELb0ELb0EE6_M_getEv
FN:1362,1363,_ZNKSt19__shared_ptr_accessIN6merkle5PathTILm32EXadL_ZNS0_L15sha256_compressERKNS0_5HashTILm32EEES5_RS3_EEEELN9__gnu_cxx12_Lock_policyE2ELb0ELb0EE6_M_getEv
FN:143,144,_ZNSt16_Sp_counted_baseILN9__gnu_cxx12_Lock_policyE2EE10_M_destroyEv
FN:1524,1524,_ZNSt12__shared_ptrIN6merkle5HashTILm32EEELN9__gnu_cxx12_Lock_policyE2EED2Ev
FN:1524,1524,_ZNSt12__shared_ptrIN6merkle5PathTILm32EXadL_ZNS0_L15sha256_compressERKNS0_5HashTILm32EEES5_RS3_EEEELN9__gnu_cxx12_Lock_policyE2EED2Ev
FN:1665,1666,_ZNKSt12__shared_ptrIN6merkle5HashTILm32EEELN9__gnu_cxx12_Lock_policyE2EE3getEv
FN:1665,1666,_ZNKSt12__shared_ptrIN6merkle5PathTILm32EXadL_ZNS0_L15sha256_compressERKNS0_5HashTILm32EEES5_RS3_EEEELN9__gnu_cxx12_Lock_policyE2EE3getEv
FN:1711,1713,_ZNSt12__shared_ptrIN6merkle5HashTILm32EEELN9__gnu_cxx12_Lock_policyE2EEC2ISaIvEJRKS2_EEESt20_Sp_alloc_shared_tagIT_EDpOT0_
FN:1711,1713,_ZNSt12__shared_ptrIN6merkle5PathTILm32EXadL_ZNS0_L15sha256_compressERKNS0_5HashTILm32EEES5_RS3_EEEELN9__gnu_cxx12_Lock_policyE2EEC2ISaIvEJS5_RmNSt7__cxx114listINS7_Ut0_ESaISG_EEESD_EEESt20_Sp_alloc_shared_tagIT_EDpOT0_
FN:1711,1713,_ZNSt12__shared_ptrIN6merkle5PathTILm32EXadL_ZNS0_L15sha256_compressERKNS0_5HashTILm32EEES5_RS3_EEEELN9__gnu_cxx12_Lock_policyE2EEC2ISaIvEJS5_RmNSt7__cxx114listINS7_Ut0_ESaISG_EEEmEEESt20_Sp_alloc_shared_tagIT_EDpOT0_
FN:172,193,_ZNSt16_Sp_counted_baseILN9__gnu_cxx12_Lock_policyE2EE19_M_release_last_useEv
FN:1765,1766,_ZNSt12__shared_ptrIN6merkle5HashTILm32EEELN9__gnu_cxx12_Lock_policyE2EE31_M_enable_shared_from_this_withIS2_S2_EENSt9enable_ifIXntsrNS5_15__has_esft_baseIT0_vEE5valueEvE4typeEPT_
FN:1765,1766,_ZNSt12__shared_ptrIN6merkle5PathTILm32EXadL_ZNS0_L15sha256_compressERKNS0_5HashTILm32EEES5_RS3_EEEELN9__gnu_cxx12_Lock_policyE2EE31_M_enable_shared_from_this_withIS7_S7_EENSt9enable_ifIXntsrNSA_15__has_esft_baseIT0_vEE5valueEvE4typeEPT_
FN:198,199,_ZNSt16_Sp_counted_baseILN9__gnu_cxx12_Lock_policyE2EE24_M_release_last_use_coldEv
FN:317,363,_ZNSt16_Sp_counted_baseILN9__gnu_cxx12_Lock_policyE2EE10_M_releaseEv
FN:470,470,_ZNSt14_Sp_ebo_helperILi0ESaIvELb1EEC2ERKS0_
FN:474,474,_ZNSt14_Sp_ebo_helperILi0ESaIvELb1EE6_S_getERS1_
FN:564,568,_ZNSt19_Sp_make_shared_tag5_S_tiEv
FN:587,587,_ZNSt23_Sp_counted_ptr_inplaceIN6merkle5HashTILm32EEESaIvELN9__gnu_cxx12_Lock_policyE2EE5_ImplC2ES3_
FN:587,587,_ZNSt23_Sp_counted_ptr_inplaceIN6merkle5PathTILm32EXadL_ZNS0_L15sha256_compressERKNS0_5HashTILm32EEES5_RS3_EEEESaIvELN9__gnu_cxx12_Lock_policyE2EE5_ImplC2ES8_
FN:589,589,_ZNSt23_Sp_counted_ptr_inplaceIN6merkle5HashTILm32EEESaIvELN9__gnu_cxx12_Lock_policyE2EE5_Impl8_M_allocEv
FN:589,589,_ZNSt23_Sp_counted_ptr_inplaceIN6merkle5PathTILm32EXadL_ZNS0_L15sha256_compressERKNS0_5HashTILm32EEES5_RS3_EEEESaIvELN9__gnu_cxx12_Lock_policyE2EE5_Impl8_M_allocEv
FN:599,606,_ZNSt23_Sp_counted_ptr_inplaceIN6merkle5HashTILm32EEESaIvELN9__gnu_cxx12_Lock_policyE2EEC2IJRKS2_EEES3_DpOT_
FN:599,606,_ZNSt23_Sp_counted_ptr_inplaceIN6merkle5PathTILm32EXadL_ZNS0_L15sha256_compressERKNS0_5HashTILm32EEES5_RS3_EEEESaIvELN9__gnu_cxx12_Lock_policyE2EEC2IJS5_RmNSt7__cxx114listINS7_Ut0_ESaISG_EEESD_EEES8_DpOT_
FN:599,606,_ZNSt23_Sp_counted_ptr_inplaceIN6merkle5PathTILm32EXadL_ZNS0_L15sha256_compressERKNS0_5HashTILm32EEES5_RS3_EEEESaIvELN9__gnu_cxx12_Lock_policyE2EEC2IJS5_RmNSt7__cxx114listINS7_Ut0_ESaISG_EEEmEEES8_DpOT_
FN:608,608,_ZNSt23_Sp_counted_ptr_inplaceIN6merkle5HashTILm32EEESaIvELN9__gnu_cxx12_Lock_policyE2EED0Ev
FN:608,608,_ZNSt23_Sp_counted_ptr_inplaceIN6merkle5HashTILm32EEESaIvELN9__gnu_cxx12_Lock_policyE2EED2Ev
FN:608,608,_ZNSt23_Sp_counted_ptr_inplaceIN6merkle5PathTILm32EXadL_ZNS0_L15sha256_compressERKNS0_5HashTILm32EEES5_RS3_EEEESaIvELN9__gnu_cxx12_Lock_policyE2EED0Ev
FN:608,608,_ZNSt23_Sp_counted_ptr_inplaceIN6merkle5PathTILm32EXadL_ZNS0_L15sha256_compressERKNS0_5HashTILm32EEES5_RS3_EEEESaIvELN9__gnu_cxx12_Lock_policyE2EED2Ev
FN:611,614,_ZNSt23_Sp_counted_ptr_inplaceIN6merkle5HashTILm32EEESaIvELN9__gnu_cxx12_Lock_policyE2EE10_M_disposeEv
FN:611,614,_ZNSt23_Sp_counted_ptr_inplaceIN6merkle5PathTILm32EXadL_ZNS0_L15sha256_compressERKNS0_5HashTILm32EEES5_RS3_EEEESaIvELN9__gnu_cxx12_Lock_policyE2EE10_M_disposeEv
FN:618,623,_ZNSt23_Sp_counted_ptr_inplaceIN6merkle5HashTILm32EEESaIvELN9__gnu_cxx12_Lock_policyE2EE10_M_destroyEv
FN:618,623,_ZNSt23_Sp_counted_ptr_inplaceIN6merkle5PathTILm32EXadL_ZNS0_L15sha256_compressERKNS0_5HashTILm32EEES5_RS3_EEEESaIvELN9__gnu_cxx12_Lock_policyE2EE10_M_destroyEv
FN:631,648,_ZNSt23_Sp_counted_ptr_inplaceIN6merkle5HashTILm32EEESaIvELN9__gnu_cxx12_Lock_policyE2EE14_M_get_deleterERKSt9type_info
FN:631,648,_ZNSt23_Sp_counted_ptr_inplaceIN6merkle5PathTILm32EXadL_ZNS0_L15sha256_compressERKNS0_5HashTILm32EEES5_RS3_EEEESaIvELN9__gnu_cxx12_Lock_policyE2EE14_M_get_deleterERKSt9type_info
FN:650,650,_ZNSt23_Sp_counted_ptr_inplaceIN6merkle5HashTILm32EEESaIvELN9__gnu_cxx12_Lock_policyE2EE6_M_ptrEv
FN:650,650,_ZNSt23_Sp_counted_ptr_inplaceIN6merkle5PathTILm32EXadL_ZNS0_L15sha256_compressERKNS0_5HashTILm32EEES5_RS3_EEEESaIvELN9__gnu_cxx12_Lock_policyE2EE6_M_ptrEv
FN:964,976,_ZNSt14__shared_countILN9__gnu_cxx12_Lock_policyE2EEC2IN6merkle5HashTILm32EEESaIvEJRKS6_EEERPT_St20_Sp_alloc_shared_tagIT0_EDpOT1_
FN:964,976,_ZNSt14__shared_countILN9__gnu_cxx12_Lock_policyE2EEC2IN6merkle5PathTILm32EXadL_ZNS4_L15sha256_compressERKNS4_5HashTILm32EEES9_RS7_EEEESaIvEJS9_RmNSt7__cxx114listINSB_Ut0_ESaISG_EEESD_EEERPT_St20_Sp_alloc_shared_tagIT0_EDpOT1_
FN:964,976,_ZNSt14__shared_countILN9__gnu_cxx12_Lock_policyE2EEC2IN6merkle5PathTILm32EXadL_ZNS4_L15sha256_compressERKNS4_5HashTILm32EEES9_RS7_EEEESaIvEJS9_RmNSt7__cxx114listINSB_Ut0_ESaISG_EEEmEEERPT_St20_Sp_alloc_shared_tagIT0_EDpOT1_
FNDA:46400,_ZNSt14__shared_countILN9__gnu_cxx12_Lock_policyE2EED2Ev
FNDA:46400,_ZNSt16_Sp_counted_baseILN9__gnu_cxx12_Lock_policyE2EEC2Ev
FNDA:0,_ZNSt16_Sp_counted_baseILN9__gnu_cxx12_Lock_policyE2EED0Ev
FNDA:46400,_ZNSt16_Sp_counted_baseILN9__gnu_cxx12_Lock_policyE2EED2Ev
FNDA:394491,_ZNKSt19__shared_ptr_accessIN6merkle5HashTILm32EEELN9__gnu_cxx12_Lock_policyE2ELb0ELb0EEdeEv
FNDA:21138,_ZNKSt19__shared_ptr_accessIN6merkle5PathTILm32EXadL_ZNS0_L15sha256_compressERKNS0_5HashTILm32EEES5_RS3_EEEELN9__gnu_cxx12_Lock_policyE2ELb0ELb0EEdeEv
FNDA:0,_ZNKSt19__shared_ptr_accessIN6merkle5HashTILm32EEELN9__gnu_cxx12_Lock_policyE2ELb0ELb0EEptEv
FNDA:26394,_ZNKSt19__shared_ptr_accessIN6merkle5PathTILm32EXadL_ZNS0_L15sha256_compressERKNS0_5HashTILm32EEES5_RS3_EEEELN9__gnu_cxx12_Lock_policyE2ELb0ELb0EEptEv
FNDA:394491,_ZNKSt19__shared_ptr_accessIN6merkle5HashTILm32EEELN9__gnu_cxx12_Lock_policyE2ELb0ELb0EE6_M_getEv
FNDA:47532,_ZNKSt19__shared_ptr_accessIN6merkle5PathTILm32EXadL_ZNS0_L15sha256_compressERKNS0_5HashTILm32EEES5_RS3_EEEELN9__gnu_cxx12_Lock_policyE2ELb0ELb0EE6_M_getEv
FNDA:0,_ZNSt16_Sp_counted_baseILN9__gnu_cxx12_Lock_policyE2EE10_M_destroyEv
FNDA:24141,_ZNSt12__shared_ptrIN6merkle5HashTILm32EEELN9__gnu_cxx12_Lock_policyE2EED2Ev
FNDA:22259,_ZNSt12__shared_ptrIN6merkle5PathTILm32EXadL_ZNS0_L15sha256_compressERKNS0_5HashTILm32EEES5_RS3_EEEELN9__gnu_cxx12_Lock_policyE2EED2Ev
FNDA:394491,_ZNKSt12__shared_ptrIN6merkle5HashTILm32EEELN9__gnu_cxx12_Lock_policyE2EE3getEv
FNDA:47532,_ZNKSt12__shared_ptrIN6merkle5PathTILm32EXadL_ZNS0_L15sha256_compressERKNS0_5HashTILm32EEES5_RS3_EEEELN9__gnu_cxx12_Lock_policyE2EE3getEv
FNDA:24141,_ZNSt12__shared_ptrIN6merkle5HashTILm32EEELN9__gnu_cxx12_Lock_policyE2EEC2ISaIvEJRKS2_EEESt20_Sp_alloc_shared_tagIT_EDpOT0_
FNDA:2447,_ZNSt12__shared_ptrIN6merkle5PathTILm32EXadL_ZNS0_L15sha256_compressERKNS0_5HashTILm32EEES5_RS3_EEEELN9__gnu_cxx12_Lock_policyE2EEC2ISaIvEJS5_RmNSt7__cxx114listINS7_Ut0_ESaISG_EEESD_EEESt20_Sp_alloc_shared_tagIT_EDpOT0_
FNDA:19812,_ZNSt12__shared_ptrIN6merkle5PathTILm32EXadL_ZNS0_L15sha256_compressERKNS0_5HashTILm32EEES5_RS3_EEEELN9__gnu_cxx12_Lock_policyE2EEC2ISaIvEJS5_RmNSt7__cxx114listINS7_Ut0_ESaISG_EEEmEEESt20_Sp_alloc_shared_tagIT_EDpOT0_
FNDA:0,_ZNSt16_Sp_counted_baseILN9__gnu_cxx12_Lock_policyE2EE19_M_release_last_useEv
FNDA:24141,_ZNSt12__shared_ptrIN6merkle5HashTILm32EEELN9__gnu_cxx12_Lock_policyE2EE31_M_enable_shared_from_this_withIS2_S2_EENSt9enable_ifIXntsrNS5_15__has_esft_baseIT0_vEE5valueEvE4typeEPT_
FNDA:22259,_ZNSt12__shared_ptrIN6merkle5PathTILm32EXadL_ZNS0_L15sha256_compressERKNS0_5HashTILm32EEES5_RS3_EEEELN9__gnu_cxx12_Lock_policyE2EE31_M_enable_shared_from_this_withIS7_S7_EENSt9enable_ifIXntsrNSA_15__has_esft_baseIT0_vEE5valueEvE4typeEPT_
FNDA:0,_ZNSt16_Sp_counted_baseILN9__gnu_cxx12_Lock_policyE2EE24_M_release_last_use_coldEv
FNDA:46400,_ZNSt16_Sp_counted_baseILN9__gnu_cxx12_Lock_policyE2EE10_M_releaseEv
FNDA:46400,_ZNSt14_Sp_ebo_helperILi0ESaIvELb1EEC2ERKS0_
FNDA:92800,_ZNSt14_Sp_ebo_helperILi0ESaIvELb1EE6_S_getERS1_
FNDA:0,_ZNSt19_Sp_make_shared_tag5_S_tiEv
FNDA:24141,_ZNSt23_Sp_counted_ptr_inplaceIN6merkle5HashTILm32EEESaIvELN9__gnu_cxx12_Lock_policyE2EE5_ImplC2ES3_
FNDA:22259,_ZNSt23_Sp_counted_ptr_inplaceIN6merkle5PathTILm32EXadL_ZNS0_L15sha256_compressERKNS0_5HashTILm32EEES5_RS3_EEEESaIvELN9__gnu_cxx12_Lock_policyE2EE5_ImplC2ES8_
FNDA:48282,_ZNSt23_Sp_counted_ptr_inplaceIN6merkle5HashTILm32EEESaIvELN9__gnu_cxx12_Lock_policyE2EE5_Impl8_M_allocEv
FNDA:44518,_ZNSt23_Sp_counted_ptr_inplaceIN6merkle5PathTILm32EXadL_ZNS0_L15sha256_compressERKNS0_5HashTILm32EEES5_RS3_EEEESaIvELN9__gnu_cxx12_Lock_policyE2EE5_Impl8_M_allocEv
FNDA:24141,_ZNSt23_Sp_counted_ptr_inplaceIN6merkle5HashTILm32EEESaIvELN9__gnu_cxx12_Lock_policyE2EEC2IJRKS2_EEES3_DpOT_
FNDA:2447,_ZNSt23_Sp_counted_ptr_inplaceIN6merkle5PathTILm32EXadL_ZNS0_L15sha256_compressERKNS0_5HashTILm32EEES5_RS3_EEEESaIvELN9__gnu_cxx12_Lock_policyE2EEC2IJS5_RmNSt7__cxx114listINS7_Ut0_ESaISG_EEESD_EEES8_DpOT_
FNDA:19812,_ZNSt23_Sp_counted_ptr_inplaceIN6merkle5PathTILm32EXadL_ZNS0_L15sha256_compressERKNS0_5HashTILm32EEES5_RS3_EEEESaIvELN9__gnu_cxx12_Lock_policyE2EEC2IJS5_RmNSt7__cxx114listINS7_Ut0_ESaISG_EEEmEEES8_DpOT_
FNDA:0,_ZNSt23_Sp_counted_ptr_inplaceIN6merkle5HashTILm32EEESaIvELN9__gnu_cxx12_Lock_policyE2EED0Ev
FNDA:24141,_ZNSt23_Sp_counted_ptr_inplaceIN6merkle5HashTILm32EEESaIvELN9__gnu_cxx12_Lock_policyE2EED2Ev
FNDA:0,_ZNSt23_Sp_counted_ptr_inplaceIN6merkle5PathTILm32EXadL_ZNS0_L15sha256_compressERKNS0_5HashTILm32EEES5_RS3_EEEESaIvELN9__gnu_cxx12_Lock_policyE2EED0Ev
FNDA:22259,_ZNSt23_Sp_counted_ptr_inplaceIN6merkle5PathTILm32EXadL_ZNS0_L15sha256_compressERKNS0_5HashTILm32EEES5_RS3_EEEESaIvELN9__gnu_cxx12_Lock_policyE2EED2Ev
FNDA:24141,_ZNSt23_Sp_counted_ptr_inplaceIN6merkle5HashTILm32EEESaIvELN9__gnu_cxx12_Lock_policyE2EE10_M_disposeEv
FNDA:22259,_ZNSt23_Sp_counted_ptr_inplaceIN6merkle5PathTILm32EXadL_ZNS0_L15sha256_compressERKNS0_5HashTILm32EEES5_RS3_EEEESaIvELN9__gnu_cxx12_Lock_policyE2EE10_M_disposeEv
FNDA:24141,_ZNSt23_Sp_counted_ptr_inplaceIN6merkle5HashTILm32EEESaIvELN9__gnu_cxx12_Lock_policyE2EE10_M_destroyEv
FNDA:22259,_ZNSt23_Sp_counted_ptr_inplaceIN6merkle5PathTILm32EXadL_ZNS0_L15sha256_compressERKNS0_5HashTILm32EEES5_RS3_EEEESaIvELN9__gnu_cxx12_Lock_policyE2EE10_M_destroyEv
FNDA:0,_ZNSt23_Sp_counted_ptr_inplaceIN6merkle5HashTILm32EEESaIvELN9__gnu_cxx12_Lock_policyE2EE14_M_get_deleterERKSt9type_info
FNDA:0,_ZNSt23_Sp_counted_ptr_inplaceIN6merkle5PathTILm32EXadL_ZNS0_L15sha256_compressERKNS0_5HashTILm32EEES5_RS3_EEEESaIvELN9__gnu_cxx12_Lock_policyE2EE14_M_get_deleterERKSt9type_info
FNDA:72423,_ZNSt23_Sp_counted_ptr_inplaceIN6merkle5HashTILm32EEESaIvELN9__gnu_cxx12_Lock_policyE2EE6_M_ptrEv
FNDA:66777,_ZNSt23_Sp_counted_ptr_inplaceIN6merkle5PathTILm32EXadL_ZNS0_L15sha256_compressERKNS0_5HashTILm32EEES5_RS3_EEEESaIvELN9__gnu_cxx12_Lock_policyE2EE6_M_ptrEv
FNDA:24141,_ZNSt14__shared_countILN9__gnu_cxx12_Lock_policyE2EEC2IN6merkle5HashTILm32EEESaIvEJRKS6_EEERPT_St20_Sp_alloc_shared_tagIT0_EDpOT1_
FNDA:2447,_ZNSt14__shared_countILN9__gnu_cxx12_Lock_policyE2EEC2IN6merkle5PathTILm32EXadL_ZNS4_L15sha256_compressERKNS4_5HashTILm32EEES9_RS7_EEEESaIvEJS9_RmNSt7__cxx114listINSB_Ut0_ESaISG_EEESD_EEERPT_St20_Sp_alloc_shared_tagIT0_EDpOT1_
FNDA:19812,_ZNSt14__shared_countILN9__gnu_cxx12_Lock_policyE2EEC2IN6merkle5PathTILm32EXadL_ZNS4_L15sha256_compressERKNS4_5HashTILm32EEES9_RS7_EEEESaIvEJS9_RmNSt7__cxx114listINSB_Ut0_ESaISG_EEEmEEERPT_St20_Sp_alloc_shared_tagIT0_EDpOT1_
FNF:48
FNH:38
DA:129,46400
DA:130,46400
DA:133,46400
DA:134,46400
DA:143,0
DA:144,0
DA:172,0
DA:175,0
DA:187,0
DA:188,0
DA:191,0
DA:193,0
DA:198,0
DA:199,0
DA:317,46400
DA:321,46400
DA:324,46400
DA:328,46400
DA:331,46400
DA:332,46400
DA:333,46400
DA:334,46400
DA:337,46400
DA:343,46400
DA:346,46400
DA:347,46400
DA:348,46400
DA:350,0
DA:351,0
DA:353,0
DA:354,0
DA:470,46400
DA:474,92800
DA:564,0
DA:567,0
DA:587,46400
DA:589,92800
DA:599,46400
DA:600,46400
DA:604,46400
DA:606,46400
DA:608,46400
DA:611,46400
DA:613,46400
DA:614,46400
DA:618,46400
DA:620,46400
DA:621,46400
DA:622,46400
DA:623,46400
DA:631,0
DA:633,0
DA:638,0
DA:639,0
DA:641,0
DA:646,0
DA:647,0
DA:650,139200
DA:964,46400
DA:968,46400
DA:969,46400
DA:970,46400
DA:971,46400
DA:973,46400
DA:974,46400
DA:975,46400
DA:976,92800
DA:1068,46400
DA:1070,46400
DA:1071,46400
DA:1072,46400
DA:1347,415629
DA:1349,415629
DA:1350,415629
DA:1354,26394
DA:1357,26394
DA:1362,442023
DA:1363,442023
DA:1524,46400
DA:1665,442023
DA:1666,442023
DA:1711,46400
DA:1712,46400
DA:1713,46400
DA:1765,46400
DA:1766,46400
LF:86
LH:63
end_of_record
TN:
SF:/usr/include/c++/13/bits/std_function.h
FN:134,143,_ZNSt14_Function_base13_Base_managerIZN6merkle5TreeTILm32EXadL_ZNS1_L15sha256_compressERKNS1_5HashTILm32EEES6_RS4_EEE10retract_toEmEUlRPNS8_4NodeEbE_E14_M_get_pointerERKSt9_Any_data
FN:134,143,_ZNSt14_Function_base13_Base_managerIZN6merkle5TreeTILm32EXadL_ZNS1_L15sha256_compressERKNS1_5HashTILm32EEES6_RS4_EEE15serialised_sizeEmmEUlRPNS8_4NodeEbE_E14_M_get_pointerERKSt9_Any_data
FN:134,143,_ZNSt14_Function_base13_Base_managerIZN6merkle5TreeTILm32EXadL_ZNS1_L15sha256_compressERKNS1_5HashTILm32EEES6_RS4_EEE15serialised_sizeEvEUlRPNS8_4NodeEbE_E14_M_get_pointerERKSt9_Any_data
FN:134,143,_ZNSt14_Function_base13_Base_managerIZN6merkle5TreeTILm32EXadL_ZNS1_L15sha256_compressERKNS1_5HashTILm32EEES6_RS4_EEE4pathEmEUlPNS8_4NodeEbE_E14_M_get_pointerERKSt9_Any_data
FN:134,143,_ZNSt14_Function_base13_Base_managerIZN6merkle5TreeTILm32EXadL_ZNS1_L15sha256_compressERKNS1_5HashTILm32EEES6_RS4_EEE8flush_toEmEUlRPNS8_4NodeEbE_E14_M_get_pointerERKSt9_Any_data
FN:134,143,_ZNSt14_Function_base13_Base_managerIZN6merkle5TreeTILm32EXadL_ZNS1_L15sha256_compressERKNS1_5HashTILm32EEES6_RS4_EEE9serialiseERSt6vectorIhSaIhEEEUlRPNS8_4NodeEbE_E14_M_get_pointerERKSt9_Any_data
FN:134,143,_ZNSt14_Function_base13_Base_managerIZN6merkle5TreeTILm32EXadL_ZNS1_L15sha256_compressERKNS1_5HashTILm32EEES6_RS4_EEE9serialiseEmmRSt6vectorIhSaIhEEEUlRPNS8_4NodeEbE_E14_M_get_pointerERKSt9_Any_data
FN:150,153,_ZNSt14_Function_base13_Base_managerIZN6merkle5TreeTILm32EXadL_ZNS1_L15sha256_compressERKNS1_5HashTILm32EEES6_RS4_EEE10retract_toEmEUlRPNS8_4NodeEbE_E9_M_createIRKSC_EEvRSt9_Any_dataOT_St17integral_constantIbLb1EE
FN:150,153,_ZNSt14_Function_base13_Base_managerIZN6merkle5TreeTILm32EXadL_ZNS1_L15sha256_compressERKNS1_5HashTILm32EEES6_RS4_EEE10retract_toEmEUlRPNS8_4NodeEbE_E9_M_createISC_EEvRSt9_Any_dataOT_St17integral_constantIbLb1EE
FN:150,153,_ZNSt14_Function_base13_Base_managerIZN6merkle5TreeTILm32EXadL_ZNS1_L15sha256_compressERKNS1_5HashTILm32EEES6_RS4_EEE15serialised_sizeEmmEUlRPNS8_4NodeEbE_E9_M_createIRKSC_EEvRSt9_Any_dataOT_St17integral_constantIbLb1EE
FN:150,153,_ZNSt14_Function_base13_Base_managerIZN6merkle5TreeTILm32EXadL_ZNS1_L15sha256_compressERKNS1_5HashTILm32EEES6_RS4_EEE15serialised_sizeEmmEUlRPNS8_4NodeEbE_E9_M_createISC_EEvRSt9_Any_dataOT_St17integral_constantIbLb1EE
FN:150,153,_ZNSt14_Function_base13_Base_managerIZN6merkle5TreeTILm32EXadL_ZNS1_L15sha256_compressERKNS1_5HashTILm32EEES6_RS4_EEE15serialised_sizeEvEUlRPNS8_4NodeEbE_E9_M_createIRKSC_EEvRSt9_Any_dataOT_St17integral_constantIbLb1EE
FN:150,153,_ZNSt14_Function_base13_Base_managerIZN6merkle5TreeTILm32EXadL_ZNS1_L15sha256_compressERKNS1_5HashTILm32EEES6_RS4_EEE15serialised_sizeEvEUlRPNS8_4NodeEbE_E9_M_createISC_EEvRSt9_Any_dataOT_St17integral_constantIbLb1EE
FN:150,153,_ZNSt14_Function_base13_Base_managerIZN6merkle5TreeTILm32EXadL_ZNS1_L15sha256_compressERKNS1_5HashTILm32EEES6_RS4_EEE4pathEmEUlPNS8_4NodeEbE_E9_M_createIRKSB_EEvRSt9_Any_dataOT_St17integral_constantIbLb1EE
FN:150,153,_ZNSt14_Function_base13_Base_managerIZN6merkle5TreeTILm32EXadL_ZNS1_L15sha256_compressERKNS1_5HashTILm32EEES6_RS4_EEE4pathEmEUlPNS8_4NodeEbE_E9_M_createISB_EEvRSt9_Any_dataOT_St17integral_constantIbLb1EE
FN:150,153,_ZNSt14_Function_base13_Base_managerIZN6merkle5TreeTILm32EXadL_ZNS1_L15sha256_compressERKNS1_5HashTILm32EEES6_RS4_EEE8flush_toEmEUlRPNS8_4NodeEbE_E9_M_createIRKSC_EEvRSt9_Any_dataOT_St17integral_constantIbLb1EE
FN:150,153,_ZNSt14_Function_base13_Base_managerIZN6merkle5TreeTILm32EXadL_ZNS1_L15sha256_compressERKNS1_5HashTILm32EEES6_RS4_EEE8flush_toEmEUlRPNS8_4NodeEbE_E9_M_createISC_EEvRSt9_Any_dataOT_St17integral_constantIbLb1EE
FN:150,153,_ZNSt14_Function_base13_Base_managerIZN6merkle5TreeTILm32EXadL_ZNS1_L15sha256_compressERKNS1_5HashTILm32EEES6_RS4_EEE9serialiseERSt6vectorIhSaIhEEEUlRPNS8_4NodeEbE_E9_M_createIRKSG_EEvRSt9_Any_dataOT_St17integral_constantIbLb1EE
FN:150,153,_ZNSt14_Function_base13_Base_managerIZN6merkle5TreeTILm32EXadL_ZNS1_L15sha256_compressERKNS1_5HashTILm32EEES6_RS4_EEE9serialiseERSt6vectorIhSaIhEEEUlRPNS8_4NodeEbE_E9_M_createISG_EEvRSt9_Any_dataOT_St17integral_constantIbLb1EE
FN:150,153,_ZNSt14_Function_base13_Base_managerIZN6merkle5TreeTILm32EXadL_ZNS1_L15sha256_compressERKNS1_5HashTILm32EEES6_RS4_EEE9serialiseEmmRSt6vectorIhSaIhEEEUlRPNS8_4NodeEbE_E9_M_createIRKSG_EEvRSt9_Any_dataOT_St17integral_constantIbLb1EE
FN:150,153,_ZNSt14_Function_base13_Base_managerIZN6merkle5TreeTILm32EXadL_ZNS1_L15sha256_compressERKNS1_5HashTILm32EEES6_RS4_EEE9serialiseEmmRSt6vectorIhSaIhEEEUlRPNS8_4NodeEbE_E9_M_createISG_EEvRSt9_Any_dataOT_St17integral_constantIbLb1EE
FN:166,169,_ZNSt14_Function_base13_Base_managerIZN6merkle5TreeTILm32EXadL_ZNS1_L15sha256_compressERKNS1_5HashTILm32EEES6_RS4_EEE10retract_toEmEUlRPNS8_4NodeEbE_E10_M_destroyERSt9_Any_dataSt17integral_constantIbLb1EE
FN:166,169,_ZNSt14_Function_base13_Base_managerIZN6merkle5TreeTILm32EXadL_ZNS1_L15sha256_compressERKNS1_5HashTILm32EEES6_RS4_EEE15serialised_sizeEmmEUlRPNS8_4NodeEbE_E10_M_destroyERSt9_Any_dataSt17integral_constantIbLb1EE
FN:166,169,_ZNSt14_Function_base13_Base_managerIZN6merkle5TreeTILm32EXadL_ZNS1_L15sha256_compressERKNS1_5HashTILm32EEES6_RS4_EEE15serialised_sizeEvEUlRPNS8_4NodeEbE_E10_M_destroyERSt9_Any_dataSt17integral_constantIbLb1EE
FN:166,169,_ZNSt14_Function_base13_Base_managerIZN6merkle5TreeTILm32EXadL_ZNS1_L15sha256_compressERKNS1_5HashTILm32EEES6_RS4_EEE4pathEmEUlPNS8_4NodeEbE_E10_M_destroyERSt9_Any_dataSt17integral_constantIbLb1EE
FN:166,169,_ZNSt14_Function_base13_Base_managerIZN6merkle5TreeTILm32EXadL_ZNS1_L15sha256_compressERKNS1_5HashTILm32EEES6_RS4_EEE8flush_toEmEUlRPNS8_4NodeEbE_E10_M_destroyERSt9_Any_dataSt17integral_constantIbLb1EE
FN:166,169,_ZNSt14_Function_base13_Base_managerIZN6merkle5TreeTILm32EXadL_ZNS1_L15sha256_compressERKNS1_5HashTILm32EEES6_RS4_EEE9serialiseERSt6vectorIhSaIhEEEUlRPNS8_4NodeEbE_E10_M_destroyERSt9_Any_dataSt17integral_constantIbLb1EE
FN:166,169,_ZNSt14_Function_base13_Base_managerIZN6merkle5TreeTILm32EXadL_ZNS1_L15sha256_compressERKNS1_5HashTILm32EEES6_RS4_EEE9serialiseEmmRSt6vectorIhSaIhEEEUlRPNS8_4NodeEbE_E10_M_destroyERSt9_Any_dataSt17integral_constantIbLb1EE
FN:180,207,_ZNSt14_Function_base13_Base_managerIZN6merkle5TreeTILm32EXadL_ZNS1_L15sha256_compressERKNS1_5HashTILm32EEES6_RS4_EEE10retract_toEmEUlRPNS8_4NodeEbE_E10_M_managerERSt9_Any_dataRKSE_St18_Manager_operation
FN:180,207,_ZNSt14_Function_base13_Base_managerIZN6merkle5TreeTILm32EXadL_ZNS1_L15sha256_compressERKNS1_5HashTILm32EEES6_RS4_EEE15serialised_sizeEmmEUlRPNS8_4NodeEbE_E10_M_managerERSt9_Any_dataRKSE_St18_Manager_operation
FN:180,207,_ZNSt14_Function_base13_Base_managerIZN6merkle5TreeTILm32EXadL_ZNS1_L15sha256_compressERKNS1_5HashTILm32EEES6_RS4_EEE15serialised_sizeEvEUlRPNS8_4NodeEbE_E10_M_managerERSt9_Any_dataRKSE_St18_Manager_operation
FN:180,207,_ZNSt14_Function_base13_Base_managerIZN6merkle5TreeTILm32EXadL_ZNS1_L15sha256_compressERKNS1_5HashTILm32EEES6_RS4_EEE4pathEmEUlPNS8_4NodeEbE_E10_M_managerERSt9_Any_dataRKSD_St18_Manager_operation
FN:180,207,_ZNSt14_Function_base13_Base_managerIZN6merkle5TreeTILm32EXadL_ZNS1_L15sha256_compressERKNS1_5HashTILm32EEES6_RS4_EEE8flush_toEmEUlRPNS8_4NodeEbE_E10_M_managerERSt9_Any_dataRKSE_St18_Manager_operation
FN:180,207,_ZNSt14_Function_base13_Base_managerIZN6merkle5TreeTILm32EXadL_ZNS1_L15sha256_compressERKNS1_5HashTILm32EEES6_RS4_EEE9serialiseERSt6vectorIhSaIhEEEUlRPNS8_4NodeEbE_E10_M_managerERSt9_Any_dataRKSI_St18_Manager_operation
FN:180,207,_ZNSt14_Function_base13_Base_managerIZN6merkle5TreeTILm32EXadL_ZNS1_L15sha256_compressERKNS1_5HashTILm32EEES6_RS4_EEE9serialiseEmmRSt6vectorIhSaIhEEEUlRPNS8_4NodeEbE_E10_M_managerERSt9_Any_dataRKSI_St18_Manager_operation
FN:211,216,_ZNSt14_Function_base13_Base_managerIZN6merkle5TreeTILm32EXadL_ZNS1_L15sha256_compressERKNS1_5HashTILm32EEES6_RS4_EEE10retract_toEmEUlRPNS8_4NodeEbE_E15_M_init_functorIRKSC_EEvRSt9_Any_dataOT_
FN:211,216,_ZNSt14_Function_base13_Base_managerIZN6merkle5TreeTILm32EXadL_ZNS1_L15sha256_compressERKNS1_5HashTILm32EEES6_RS4_EEE10retract_toEmEUlRPNS8_4NodeEbE_E15_M_init_functorISC_EEvRSt9_Any_dataOT_
FN:211,216,_ZNSt14_Function_base13_Base_managerIZN6merkle5TreeTILm32EXadL_ZNS1_L15sha256_compressERKNS1_5HashTILm32EEES6_RS4_EEE15serialised_sizeEmmEUlRPNS8_4NodeEbE_E15_M_init_functorIRKSC_EEvRSt9_Any_dataOT_
FN:211,216,_ZNSt14_Function_base13_Base_managerIZN6merkle5TreeTILm32EXadL_ZNS1_L15sha256_compressERKNS1_5HashTILm32EEES6_RS4_EEE15serialised_sizeEmmEUlRPNS8_4NodeEbE_E15_M_init_functorISC_EEvRSt9_Any_dataOT_
FN:211,216,_ZNSt14_Function_base13_Base_managerIZN6merkle5TreeTILm32EXadL_ZNS1_L15sha256_compressERKNS1_5HashTILm32EEES6_RS4_EEE15serialised_sizeEvEUlRPNS8_4NodeEbE_E15_M_init_functorIRKSC_EEvRSt9_Any_dataOT_
FN:211,216,_ZNSt14_Function_base13_Base_managerIZN6merkle5TreeTILm32EXadL_ZNS1_L15sha256_compressERKNS1_5HashTILm32EEES6_RS4_EEE15serialised_sizeEvEUlRPNS8_4NodeEbE_E15_M_init_functorISC_EEvRSt9_Any_dataOT_
FN:211,216,_ZNSt14_Function_base13_Base_managerIZN6merkle5TreeTILm32EXadL_ZNS1_L15sha256_compressERKNS1_5HashTILm32EEES6_RS4_EEE4pathEmEUlPNS8_4NodeEbE_E15_M_init_functorIRKSB_EEvRSt9_Any_dataOT_
FN:211,216,_ZNSt14_Function_base13_Base_managerIZN6merkle5TreeTILm32EXadL_ZNS1_L15sha256_compressERKNS1_5HashTILm32EEES6_RS4_EEE4pathEmEUlPNS8_4NodeEbE_E15_M_init_functorISB_EEvRSt9_Any_dataOT_
FN:211,216,_ZNSt14_Function_base13_Base_managerIZN6merkle5TreeTILm32EXadL_ZNS1_L15sha256_compressERKNS1_5HashTILm32EEES6_RS4_EEE8flush_toEmEUlRPNS8_4NodeEbE_E15_M_init_functorIRKSC_EEvRSt9_Any_dataOT_
FN:211,216,_ZNSt14_Function_base13_Base_managerIZN6merkle5TreeTILm32EXadL_ZNS1_L15sha256_compressERKNS1_5HashTILm32EEES6_RS4_EEE8flush_toEmEUlRPNS8_4NodeEbE_E15_M_init_functorISC_EEvRSt9_Any_dataOT_
FN:211,216,_ZNSt14_Function_base13_Base_managerIZN6merkle5TreeTILm32EXadL_ZNS1_L15sha256_compressERKNS1_5HashTILm32EEES6_RS4_EEE9serialiseERSt6vectorIhSaIhEEEUlRPNS8_4NodeEbE_E15_M_init_functorIRKSG_EEvRSt9_Any_dataOT_
FN:211,216,_ZNSt14_Function_base13_Base_managerIZN6merkle5TreeTILm32EXadL_ZNS1_L15sha256_compressERKNS1_5HashTILm32EEES6_RS4_EEE9serialiseERSt6vectorIhSaIhEEEUlRPNS8_4NodeEbE_E15_M_init_functorISG_EEvRSt9_Any_dataOT_
FN:211,216,_ZNSt14_Function_base13_Base_managerIZN6merkle5TreeTILm32EXadL_ZNS1_L15sha256_compressERKNS1_5HashTILm32EEES6_RS4_EEE9serialiseEmmRSt6vectorIhSaIhEEEUlRPNS8_4NodeEbE_E15_M_init_functorIRKSG_EEvRSt9_Any_dataOT_
FN:211,216,_ZNSt14_Function_base13_Base_managerIZN6merkle5TreeTILm32EXadL_ZNS1_L15sha256_compressERKNS1_5HashTILm32EEES6_RS4_EEE9serialiseEmmRSt6vectorIhSaIhEEEUlRPNS8_4NodeEbE_E15_M_init_functorISG_EEvRSt9_Any_dataOT_
FN:235,236,_ZNSt14_Function_base13_Base_managerIZN6merkle5TreeTILm32EXadL_ZNS1_L15sha256_compressERKNS1_5HashTILm32EEES6_RS4_EEE10retract_toEmEUlRPNS8_4NodeEbE_E21_M_not_empty_functionISC_EEbRKT_
FN:235,236,_ZNSt14_Function_base13_Base_managerIZN6merkle5TreeTILm32EXadL_ZNS1_L15sha256_compressERKNS1_5HashTILm32EEES6_RS4_EEE15serialised_sizeEmmEUlRPNS8_4NodeEbE_E21_M_not_empty_functionISC_EEbRKT_
FN:235,236,_ZNSt14_Function_base13_Base_managerIZN6merkle5TreeTILm32EXadL_ZNS1_L15sha256_compressERKNS1_5HashTILm32EEES6_RS4_EEE15serialised_sizeEvEUlRPNS8_4NodeEbE_E21_M_not_empty_functionISC_EEbRKT_
FN:235,236,_ZNSt14_Function_base13_Base_managerIZN6merkle5TreeTILm32EXadL_ZNS1_L15sha256_compressERKNS1_5HashTILm32EEES6_RS4_EEE4pathEmEUlPNS8_4NodeEbE_E21_M_not_empty_functionISB_EEbRKT_
FN:235,236,_ZNSt14_Function_base13_Base_managerIZN6merkle5TreeTILm32EXadL_ZNS1_L15sha256_compressERKNS1_5HashTILm32EEES6_RS4_EEE8flush_toEmEUlRPNS8_4NodeEbE_E21_M_not_empty_functionISC_EEbRKT_
FN:235,236,_ZNSt14_Function_base13_Base_managerIZN6merkle5TreeTILm32EXadL_ZNS1_L15sha256_compressERKNS1_5HashTILm32EEES6_RS4_EEE9serialiseERSt6vectorIhSaIhEEEUlRPNS8_4NodeEbE_E21_M_not_empty_functionISG_EEbRKT_
FN:235,236,_ZNSt14_Function_base13_Base_managerIZN6merkle5TreeTILm32EXadL_ZNS1_L15sha256_compressERKNS1_5HashTILm32EEES6_RS4_EEE9serialiseEmmRSt6vectorIhSaIhEEEUlRPNS8_4NodeEbE_E21_M_not_empty_functionISG_EEbRKT_
FN:239,239,_ZNSt14_Function_baseC2Ev
FN:241,245,_ZNSt14_Function_baseD2Ev
FN:247,247,_ZNKSt14_Function_base8_M_emptyEv
FN:267,285,_ZNSt17_Function_handlerIFbRPN6merkle5TreeTILm32EXadL_ZNS0_L15sha256_compressERKNS0_5HashTILm32EEES5_RS3_EEE4NodeEbEZNS7_10retract_toEmEUlSA_bE_E10_M_managerERSt9_Any_dataRKSE_St18_Manager_operation
FN:267,285,_ZNSt17_Function_handlerIFbRPN6merkle5TreeTILm32EXadL_ZNS0_L15sha256_compressERKNS0_5HashTILm32EEES5_RS3_EEE4NodeEbEZNS7_15serialised_sizeEmmEUlSA_bE_E10_M_managerERSt9_Any_dataRKSE_St18_Manager_operation
FN:267,285,_ZNSt17_Function_handlerIFbRPN6merkle5TreeTILm32EXadL_ZNS0_L15sha256_compressERKNS0_5HashTILm32EEES5_RS3_EEE4NodeEbEZNS7_15serialised_sizeEvEUlSA_bE_E10_M_managerERSt9_Any_dataRKSE_St18_Manager_operation
FN:267,285,_ZNSt17_Function_handlerIFbRPN6merkle5TreeTILm32EXadL_ZNS0_L15sha256_compressERKNS0_5HashTILm32EEES5_RS3_EEE4NodeEbEZNS7_4pathEmEUlS9_bE_E10_M_managerERSt9_Any_dataRKSE_St18_Manager_operation
FN:267,285,_ZNSt17_Function_handlerIFbRPN6merkle5TreeTILm32EXadL_ZNS0_L15sha256_compressERKNS0_5HashTILm32EEES5_RS3_EEE4NodeEbEZNS7_8flush_toEmEUlSA_bE_E10_M_managerERSt9_Any_dataRKSE_St18_Manager_operation
FN:267,285,_ZNSt17_Function_handlerIFbRPN6merkle5TreeTILm32EXadL_ZNS0_L15sha256_compressERKNS0_5HashTILm32EEES5_RS3_EEE4NodeEbEZNS7_9serialiseERSt6vectorIhSaIhEEEUlSA_bE_E10_M_managerERSt9_Any_dataRKSI_St18_Manager_operation
FN:267,285,_ZNSt17_Function_handlerIFbRPN6merkle5TreeTILm32EXadL_ZNS0_L15sha256_compressERKNS0_5HashTILm32EEES5_RS3_EEE4NodeEbEZNS7_9serialiseEmmRSt6vectorIhSaIhEEEUlSA_bE_E10_M_managerERSt9_Any_dataRKSI_St18_Manager_operation
FN:288,292,_ZNSt17_Function_handlerIFbRPN6merkle5TreeTILm32EXadL_ZNS0_L15sha256_compressERKNS0_5HashTILm32EEES5_RS3_EEE4NodeEbEZNS7_10retract_toEmEUlSA_bE_E9_M_invokeERKSt9_Any_dataSA_Ob
FN:288,292,_ZNSt17_Function_handlerIFbRPN6merkle5TreeTILm32EXadL_ZNS0_L15sha256_compressERKNS0_5HashTILm32EEES5_RS3_EEE4NodeEbEZNS7_15serialised_sizeEmmEUlSA_bE_E9_M_invokeERKSt9_Any_dataSA_Ob
FN:288,292,_ZNSt17_Function_handlerIFbRPN6merkle5TreeTILm32EXadL_ZNS0_L15sha256_compressERKNS0_5HashTILm32EEES5_RS3_EEE4NodeEbEZNS7_15serialised_sizeEvEUlSA_bE_E9_M_invokeERKSt9_Any_dataSA_Ob
FN:288,292,_ZNSt17_Function_handlerIFbRPN6merkle5TreeTILm32EXadL_ZNS0_L15sha256_compressERKNS0_5HashTILm32EEES5_RS3_EEE4NodeEbEZNS7_4pathEmEUlS9_bE_E9_M_invokeERKSt9_Any_dataSA_Ob
FN:288,292,_ZNSt17_Function_handlerIFbRPN6merkle5TreeTILm32EXadL_ZNS0_L15sha256_compressERKNS0_5HashTILm32EEES5_RS3_EEE4NodeEbEZNS7_8flush_toEmEUlSA_bE_E9_M_invokeERKSt9_Any_dataSA_Ob
FN:288,292,_ZNSt17_Function_handlerIFbRPN6merkle5TreeTILm32EXadL_ZNS0_L15sha256_compressERKNS0_5HashTILm32EEES5_RS3_EEE4NodeEbEZNS7_9serialiseERSt6vectorIhSaIhEEEUlSA_bE_E9_M_invokeERKSt9_Any_dataSA_Ob
FN:288,292,_ZNSt17_Function_handlerIFbRPN6merkle5TreeTILm32EXadL_ZNS0_L15sha256_compressERKNS0_5HashTILm32EEES5_RS3_EEE4NodeEbEZNS7_9serialiseEmmRSt6vectorIhSaIhEEEUlSA_bE_E9_M_invokeERKSt9_Any_dataSA_Ob
FN:435,454,_ZNSt8functionIFbRPN6merkle5TreeTILm32EXadL_ZNS0_L15sha256_compressERKNS0_5HashTILm32EEES5_RS3_EEE4NodeEbEEC2IZNS7_10retract_toEmEUlSA_bE_vEEOT_
FN:435,454,_ZNSt8functionIFbRPN6merkle5TreeTILm32EXadL_ZNS0_L15sha256_compressERKNS0_5HashTILm32EEES5_RS3_EEE4NodeEbEEC2IZNS7_15serialised_sizeEmmEUlSA_bE_vEEOT_
FN:435,454,_ZNSt8functionIFbRPN6merkle5TreeTILm32EXadL_ZNS0_L15sha256_compressERKNS0_5HashTILm32EEES5_RS3_EEE4NodeEbEEC2IZNS7_15serialised_sizeEvEUlSA_bE_vEEOT_
FN:435,454,_ZNSt8functionIFbRPN6merkle5TreeTILm32EXadL_ZNS0_L15sha256_compressERKNS0_5HashTILm32EEES5_RS3_EEE4NodeEbEEC2IZNS7_4pathEmEUlS9_bE_vEEOT_
FN:435,454,_ZNSt8functionIFbRPN6merkle5TreeTILm32EXadL_ZNS0_L15sha256_compressERKNS0_5HashTILm32EEES5_RS3_EEE4NodeEbEEC2IZNS7_8flush_toEmEUlSA_bE_vEEOT_
FN:435,454,_ZNSt8functionIFbRPN6merkle5TreeTILm32EXadL_ZNS0_L15sha256_compressERKNS0_5HashTILm32EEES5_RS3_EEE4NodeEbEEC2IZNS7_9serialiseERSt6vectorIhSaIhEEEUlSA_bE_vEEOT_
FN:435,454,_ZNSt8functionIFbRPN6merkle5TreeTILm32EXadL_ZNS0_L15sha256_compressERKNS0_5HashTILm32EEES5_RS3_EEE4NodeEbEEC2IZNS7_9serialiseEmmRSt6vectorIhSaIhEEEUlSA_bE_vEEOT_
FN:587,592,_ZNKSt8functionIFbRPN6merkle5TreeTILm32EXadL_ZNS0_L15sha256_compressERKNS0_5HashTILm32EEES5_RS3_EEE4NodeEbEEclESA_b
FN:85,85,_ZNSt9_Any_data9_M_accessEv
FN:86,86,_ZNKSt9_Any_data9_M_accessEv
FN:90,91,_ZNSt9_Any_data9_M_accessIPKSt9type_infoEERT_v
FN:90,91,_ZNSt9_Any_data9_M_accessIPZN6merkle5TreeTILm32EXadL_ZNS1_L15sha256_compressERKNS1_5HashTILm32EEES6_RS4_EEE10retract_toEmEUlRPNS8_4NodeEbE_EERT_v
FN:90,91,_ZNSt9_Any_data9_M_accessIPZN6merkle5TreeTILm32EXadL_ZNS1_L15sha256_compressERKNS1_5HashTILm32EEES6_RS4_EEE15serialised_sizeEmmEUlRPNS8_4NodeEbE_EERT_v
FN:90,91,_ZNSt9_Any_data9_M_accessIPZN6merkle5TreeTILm32EXadL_ZNS1_L15sha256_compressERKNS1_5HashTILm32EEES6_RS4_EEE15serialised_sizeEvEUlRPNS8_4NodeEbE_EERT_v
FN:90,91,_ZNSt9_Any_data9_M_accessIPZN6merkle5TreeTILm32EXadL_ZNS1_L15sha256_compressERKNS1_5HashTILm32EEES6_RS4_EEE4pathEmEUlPNS8_4NodeEbE_EERT_v
FN:90,91,_ZNSt9_Any_data9_M_accessIPZN6merkle5TreeTILm32EXadL_ZNS1_L15sha256_compressERKNS1_5HashTILm32EEES6_RS4_EEE8flush_toEmEUlRPNS8_4NodeEbE_EERT_v
FN:90,91,_ZNSt9_Any_data9_M_accessIPZN6merkle5TreeTILm32EXadL_ZNS1_L15sha256_compressERKNS1_5HashTILm32EEES6_RS4_EEE9serialiseERSt6vectorIhSaIhEEEUlRPNS8_4NodeEbE_EERT_v
FN:90,91,_ZNSt9_Any_data9_M_accessIPZN6merkle5TreeTILm32EXadL_ZNS1_L15sha256_compressERKNS1_5HashTILm32EEES6_RS4_EEE9serialiseEmmRSt6vectorIhSaIhEEEUlRPNS8_4NodeEbE_EERT_v
FN:90,91,_ZNSt9_Any_data9_M_accessIZN6merkle5TreeTILm32EXadL_ZNS1_L15sha256_compressERKNS1_5HashTILm32EEES6_RS4_EEE10retract_toEmEUlRPNS8_4NodeEbE_EERT_v
FN:90,91,_ZNSt9_Any_data9_M_accessIZN6merkle5TreeTILm32EXadL_ZNS1_L15sha256_compressERKNS1_5HashTILm32EEES6_RS4_EEE15serialised_sizeEmmEUlRPNS8_4NodeEbE_EERT_v
FN:90,91,_ZNSt9_Any_data9_M_accessIZN6merkle5TreeTILm32EXadL_ZNS1_L15sha256_compressERKNS1_5HashTILm32EEES6_RS4_EEE15serialised_sizeEvEUlRPNS8_4NodeEbE_EERT_v
FN:90,91,_ZNSt9_Any_data9_M_accessIZN6merkle5TreeTILm32EXadL_ZNS1_L15sha256_compressERKNS1_5HashTILm32EEES6_RS4_EEE4pathEmEUlPNS8_4NodeEbE_EERT_v
FN:90,91,_ZNSt9_Any_data9_M_accessIZN6merkle5TreeTILm32EXadL_ZNS1_L15sha256_compressERKNS1_5HashTILm32EEES6_RS4_EEE8flush_toEmEUlRPNS8_4NodeEbE_EERT_v
FN:90,91,_ZNSt9_Any_data9_M_accessIZN6merkle5TreeTILm32EXadL_ZNS1_L15sha256_compressERKNS1_5HashTILm32EEES6_RS4_EEE9serialiseERSt6vectorIhSaIhEEEUlRPNS8_4NodeEbE_EERT_v
FN:90,91,_ZNSt9_Any_data9_M_accessIZN6merkle5TreeTILm32EXadL_ZNS1_L15sha256_compressERKNS1_5HashTILm32EEES6_RS4_EEE9serialiseEmmRSt6vectorIhSaIhEEEUlRPNS8_4NodeEbE_EERT_v
FN:95,96,_ZNKSt9_Any_data9_M_accessIZN6merkle5TreeTILm32EXadL_ZNS1_L15sha256_compressERKNS1_5HashTILm32EEES6_RS4_EEE10retract_toEmEUlRPNS8_4NodeEbE_EERKT_v
FN:95,96,_ZNKSt9_Any_data9_M_accessIZN6merkle5TreeTILm32EXadL_ZNS1_L15sha256_compressERKNS1_5HashTILm32EEES6_RS4_EEE15serialised_sizeEmmEUlRPNS8_4NodeEbE_EERKT_v
FN:95,96,_ZNKSt9_Any_data9_M_accessIZN6merkle5TreeTILm32EXadL_ZNS1_L15sha256_compressERKNS1_5HashTILm32EEES6_RS4_EEE15serialised_sizeEvEUlRPNS8_4NodeEbE_EERKT_v
FN:95,96,_ZNKSt9_Any_data9_M_accessIZN6merkle5TreeTILm32EXadL_ZNS1_L15sha256_compressERKNS1_5HashTILm32EEES6_RS4_EEE4pathEmEUlPNS8_4NodeEbE_EERKT_v
FN:95,96,_ZNKSt9_Any_data9_M_accessIZN6merkle5TreeTILm32EXadL_ZNS1_L15sha256_compressERKNS1_5HashTILm32EEES6_RS4_EEE8flush_toEmEUlRPNS8_4NodeEbE_EERKT_v
FN:95,96,_ZNKSt9_Any_data9_M_accessIZN6merkle5TreeTILm32EXadL_ZNS1_L15sha256_compressERKNS1_5HashTILm32EEES6_RS4_EEE9serialiseERSt6vectorIhSaIhEEEUlRPNS8_4NodeEbE_EERKT_v
FN:95,96,_ZNKSt9_Any_data9_M_accessIZN6merkle5TreeTILm32EXadL_ZNS1_L15sha256_compressERKNS1_5HashTILm32EEES6_RS4_EEE9serialiseEmmRSt6vectorIhSaIhEEEUlRPNS8_4NodeEbE_EERKT_v
FNDA:193815,_ZNSt14_Function_base13_Base_managerIZN6merkle5TreeTILm32EXadL_ZNS1_L15sha256_compressERKNS1_5HashTILm32EEES6_RS4_EEE10retract_toEmEUlRPNS8_4NodeEbE_E14_M_get_pointerERKSt9_Any_data
FNDA:8432,_ZNSt14_Function_base13_Base_managerIZN6merkle5TreeTILm32EXadL_ZNS1_L15sha256_compressERKNS1_5HashTILm32EEES6_RS4_EEE15serialised_sizeEmmEUlRPNS8_4NodeEbE_E14_M_get_pointerERKSt9_Any_data
FNDA:8344,_ZNSt14_Function_base13_Base_managerIZN6merkle5TreeTILm32EXadL_ZNS1_L15sha256_compressERKNS1_5HashTILm32EEES6_RS4_EEE15serialised_sizeEvEUlRPNS8_4NodeEbE_E14_M_get_pointerERKSt9_Any_data
FNDA:224716,_ZNSt14_Function_base13_Base_managerIZN6merkle5TreeTILm32EXadL_ZNS1_L15sha256_compressERKNS1_5HashTILm32EEES6_RS4_EEE4pathEmEUlPNS8_4NodeEbE_E14_M_get_pointerERKSt9_Any_data
FNDA:806336,_ZNSt14_Function_base13_Base_managerIZN6merkle5TreeTILm32EXadL_ZNS1_L15sha256_compressERKNS1_5HashTILm32EEES6_RS4_EEE8flush_toEmEUlRPNS8_4NodeEbE_E14_M_get_pointerERKSt9_Any_data
FNDA:320,_ZNSt14_Function_base13_Base_managerIZN6merkle5TreeTILm32EXadL_ZNS1_L15sha256_compressERKNS1_5HashTILm32EEES6_RS4_EEE9serialiseERSt6vectorIhSaIhEEEUlRPNS8_4NodeEbE_E14_M_get_pointerERKSt9_Any_data
FNDA:8432,_ZNSt14_Function_base13_Base_managerIZN6merkle5TreeTILm32EXadL_ZNS1_L15sha256_compressERKNS1_5HashTILm32EEES6_RS4_EEE9serialiseEmmRSt6vectorIhSaIhEEEUlRPNS8_4NodeEbE_E14_M_get_pointerERKSt9_Any_data
FNDA:0,_ZNSt14_Function_base13_Base_managerIZN6merkle5TreeTILm32EXadL_ZNS1_L15sha256_compressERKNS1_5HashTILm32EEES6_RS4_EEE10retract_toEmEUlRPNS8_4NodeEbE_E9_M_createIRKSC_EEvRSt9_Any_dataOT_St17integral_constantIbLb1EE
FNDA:21623,_ZNSt14_Function_base13_Base_managerIZN6merkle5TreeTILm32EXadL_ZNS1_L15sha256_compressERKNS1_5HashTILm32EEES6_RS4_EEE10retract_toEmEUlRPNS8_4NodeEbE_E9_M_createISC_EEvRSt9_Any_dataOT_St17integral_constantIbLb1EE
FNDA:0,_ZNSt14_Function_base13_Base_managerIZN6merkle5TreeTILm32EXadL_ZNS1_L15sha256_compressERKNS1_5HashTILm32EEES6_RS4_EEE15serialised_sizeEmmEUlRPNS8_4NodeEbE_E9_M_createIRKSC_EEvRSt9_Any_dataOT_St17integral_constantIbLb1EE
FNDA:1004,_ZNSt14_Function_base13_Base_managerIZN6merkle5TreeTILm32EXadL_ZNS1_L15sha256_compressERKNS1_5HashTILm32EEES6_RS4_EEE15serialised_sizeEmmEUlRPNS8_4NodeEbE_E9_M_createISC_EEvRSt9_Any_dataOT_St17integral_constantIbLb1EE
FNDA:0,_ZNSt14_Function_base13_Base_managerIZN6merkle5TreeTILm32EXadL_ZNS1_L15sha256_compressERKNS1_5HashTILm32EEES6_RS4_EEE15serialised_sizeEvEUlRPNS8_4NodeEbE_E9_M_createIRKSC_EEvRSt9_Any_dataOT_St17integral_constantIbLb1EE
FNDA:1068,_ZNSt14_Function_base13_Base_managerIZN6merkle5TreeTILm32EXadL_ZNS1_L15sha256_compressERKNS1_5HashTILm32EEES6_RS4_EEE15serialised_sizeEvEUlRPNS8_4NodeEbE_E9_M_createISC_EEvRSt9_Any_dataOT_St17integral_constantIbLb1EE
FNDA:0,_ZNSt14_Function_base13_Base_managerIZN6merkle5TreeTILm32EXadL_ZNS1_L15sha256_compressERKNS1_5HashTILm32EEES6_RS4_EEE4pathEmEUlPNS8_4NodeEbE_E9_M_createIRKSB_EEvRSt9_Any_dataOT_St17integral_constantIbLb1EE
FNDA:19812,_ZNSt14_Function_base13_Base_managerIZN6merkle5TreeTILm32EXadL_ZNS1_L15sha256_compressERKNS1_5HashTILm32EEES6_RS4_EEE4pathEmEUlPNS8_4NodeEbE_E9_M_createISB_EEvRSt9_Any_dataOT_St17integral_constantIbLb1EE
FNDA:0,_ZNSt14_Function_base13_Base_managerIZN6merkle5TreeTILm32EXadL_ZNS1_L15sha256_compressERKNS1_5HashTILm32EEES6_RS4_EEE8flush_toEmEUlRPNS8_4NodeEbE_E9_M_createIRKSC_EEvRSt9_Any_dataOT_St17integral_constantIbLb1EE
FNDA:85068,_ZNSt14_Function_base13_Base_managerIZN6merkle5TreeTILm32EXadL_ZNS1_L15sha256_compressERKNS1_5HashTILm32EEES6_RS4_EEE8flush_toEmEUlRPNS8_4NodeEbE_E9_M_createISC_EEvRSt9_Any_dataOT_St17integral_constantIbLb1EE
FNDA:0,_ZNSt14_Function_base13_Base_managerIZN6merkle5TreeTILm32EXadL_ZNS1_L15sha256_compressERKNS1_5HashTILm32EEES6_RS4_EEE9serialiseERSt6vectorIhSaIhEEEUlRPNS8_4NodeEbE_E9_M_createIRKSG_EEvRSt9_Any_dataOT_St17integral_constantIbLb1EE
FNDA:34,_ZNSt14_Function_base13_Base_managerIZN6merkle5TreeTILm32EXadL_ZNS1_L15sha256_compressERKNS1_5HashTILm32EEES6_RS4_EEE9serialiseERSt6vectorIhSaIhEEEUlRPNS8_4NodeEbE_E9_M_createISG_EEvRSt9_Any_dataOT_St17integral_constantIbLb1EE
FNDA:0,_ZNSt14_Function_base13_Base_managerIZN6merkle5TreeTILm32EXadL_ZNS1_L15sha256_compressERKNS1_5HashTILm32EEES6_RS4_EEE9serialiseEmmRSt6vectorIhSaIhEEEUlRPNS8_4NodeEbE_E9_M_createIRKSG_EEvRSt9_Any_dataOT_St17integral_constantIbLb1EE
FNDA:1004,_ZNSt14_Function_base13_Base_managerIZN6merkle5TreeTILm32EXadL_ZNS1_L15sha256_compressERKNS1_5HashTILm32EEES6_RS4_EEE9serialiseEmmRSt6vectorIhSaIhEEEUlRPNS8_4NodeEbE_E9_M_createISG_EEvRSt9_Any_dataOT_St17integral_constantIbLb1EE
FNDA:21623,_ZNSt14_Function_base13_Base_managerIZN6merkle5TreeTILm32EXadL_ZNS1_L15sha256_compressERKNS1_5HashTILm32EEES6_RS4_EEE10retract_toEmEUlRPNS8_4NodeEbE_E10_M_destroyERSt9_Any_dataSt17integral_constantIbLb1EE
FNDA:1004,_ZNSt14_Function_base13_Base_managerIZN6merkle5TreeTILm32EXadL_ZNS1_L15sha256_compressERKNS1_5HashTILm32EEES6_RS4_EEE15serialised_sizeEmmEUlRPNS8_4NodeEbE_E10_M_destroyERSt9_Any_dataSt17integral_constantIbLb1EE
FNDA:1068,_ZNSt14_Function_base13_Base_managerIZN6merkle5TreeTILm32EXadL_ZNS1_L15sha256_compressERKNS1_5HashTILm32EEES6_RS4_EEE15serialised_sizeEvEUlRPNS8_4NodeEbE_E10_M_destroyERSt9_Any_dataSt17integral_constantIbLb1EE
FNDA:19812,_ZNSt14_Function_base13_Base_managerIZN6merkle5TreeTILm32EXadL_ZNS1_L15sha256_compressERKNS1_5HashTILm32EEES6_RS4_EEE4pathEmEUlPNS8_4NodeEbE_E10_M_destroyERSt9_Any_dataSt17integral_constantIbLb1EE
FNDA:85068,_ZNSt14_Function_base13_Base_managerIZN6merkle5TreeTILm32EXadL_ZNS1_L15sha256_compressERKNS1_5HashTILm32EEES6_RS4_EEE8flush_toEmEUlRPNS8_4NodeEbE_E10_M_destroyERSt9_Any_dataSt17integral_constantIbLb1EE
FNDA:34,_ZNSt14_Function_base13_Base_managerIZN6merkle5TreeTILm32EXadL_ZNS1_L15sha256_compressERKNS1_5HashTILm32EEES6_RS4_EEE9serialiseERSt6vectorIhSaIhEEEUlRPNS8_4NodeEbE_E10_M_destroyERSt9_Any_dataSt17integral_constantIbLb1EE
FNDA:1004,_ZNSt14_Function_base13_Base_managerIZN6merkle5TreeTILm32EXadL_ZNS1_L15sha256_compressERKNS1_5HashTILm32EEES6_RS4_EEE9serialiseEmmRSt6vectorIhSaIhEEEUlRPNS8_4NodeEbE_E10_M_destroyERSt9_Any_dataSt17integral_constantIbLb1EE
FNDA:21623,_ZNSt14_Function_base13_Base_managerIZN6merkle5TreeTILm32EXadL_ZNS1_L15sha256_compressERKNS1_5HashTILm32EEES6_RS4_EEE10retract_toEmEUlRPNS8_4NodeEbE_E10_M_managerERSt9_Any_dataRKSE_St18_Manager_operation
FNDA:1004,_ZNSt14_Function_base13_Base_managerIZN6merkle5TreeTILm32EXadL_ZNS1_L15sha256_compressERKNS1_5HashTILm32EEES6_RS4_EEE15serialised_sizeEmmEUlRPNS8_4NodeEbE_E10_M_managerERSt9_Any_dataRKSE_St18_Manager_operation
FNDA:1068,_ZNSt14_Function_base13_Base_managerIZN6merkle5TreeTILm32EXadL_ZNS1_L15sha256_compressERKNS1_5HashTILm32EEES6_RS4_EEE15serialised_sizeEvEUlRPNS8_4NodeEbE_E10_M_managerERSt9_Any_dataRKSE_St18_Manager_operation
FNDA:19812,_ZNSt14_Function_base13_Base_managerIZN6merkle5TreeTILm32EXadL_ZNS1_L15sha256_compressERKNS1_5HashTILm32EEES6_RS4_EEE4pathEmEUlPNS8_4NodeEbE_E10_M_managerERSt9_Any_dataRKSD_St18_Manager_operation
FNDA:85068,_ZNSt14_Function_base13_Base_managerIZN6merkle5TreeTILm32EXadL_ZNS1_L15sha256_compressERKNS1_5HashTILm32EEES6_RS4_EEE8flush_toEmEUlRPNS8_4NodeEbE_E10_M_managerERSt9_Any_dataRKSE_St18_Manager_operation
FNDA:34,_ZNSt14_Function_base13_Base_managerIZN6merkle5TreeTILm32EXadL_ZNS1_L15sha256_compressERKNS1_5HashTILm32EEES6_RS4_EEE9serialiseERSt6vectorIhSaIhEEEUlRPNS8_4NodeEbE_E10_M_managerERSt9_Any_dataRKSI_St18_Manager_operation
FNDA:1004,_ZNSt14_Function_base13_Base_managerIZN6merkle5TreeTILm32EXadL_ZNS1_L15sha256_compressERKNS1_5HashTILm32EEES6_RS4_EEE9serialiseEmmRSt6vectorIhSaIhEEEUlRPNS8_4NodeEbE_E10_M_managerERSt9_Any_dataRKSI_St18_Manager_operation
FNDA:0,_ZNSt14_Function_base13_Base_managerIZN6merkle5TreeTILm32EXadL_ZNS1_L15sha256_compressERKNS1_5HashTILm32EEES6_RS4_EEE10retract_toEmEUlRPNS8_4NodeEbE_E15_M_init_functorIRKSC_EEvRSt9_Any_dataOT_
FNDA:21623,_ZNSt14_Function_base13_Base_managerIZN6merkle5TreeTILm32EXadL_ZNS1_L15sha256_compressERKNS1_5HashTILm32EEES6_RS4_EEE10retract_toEmEUlRPNS8_4NodeEbE_E15_M_init_functorISC_EEvRSt9_Any_dataOT_
FNDA:0,_ZNSt14_Function_base13_Base_managerIZN6merkle5TreeTILm32EXadL_ZNS1_L15sha256_compressERKNS1_5HashTILm32EEES6_RS4_EEE15serialised_sizeEmmEUlRPNS8_4NodeEbE_E15_M_init_functorIRKSC_EEvRSt9_Any_dataOT_
FNDA:1004,_ZNSt14_Function_base13_Base_managerIZN6merkle5TreeTILm32EXadL_ZNS1_L15sha256_compressERKNS1_5HashTILm32EEES6_RS4_EEE15serialised_sizeEmmEUlRPNS8_4NodeEbE_E15_M_init_functorISC_EEvRSt9_Any_dataOT_
FNDA:0,_ZNSt14_Function_base13_Base_managerIZN6merkle5TreeTILm32EXadL_ZNS1_L15sha256_compressERKNS1_5HashTILm32EEES6_RS4_EEE15serialised_sizeEvEUlRPNS8_4NodeEbE_E15_M_init_functorIRKSC_EEvRSt9_Any_dataOT_
FNDA:1068,_ZNSt14_Function_base13_Base_managerIZN6merkle5TreeTILm32EXadL_ZNS1_L15sha256_compressERKNS1_5HashTILm32EEES6_RS4_EEE15serialised_sizeEvEUlRPNS8_4NodeEbE_E15_M_init_functorISC_EEvRSt9_Any_dataOT_
FNDA:0,_ZNSt14_Function_base13_Base_managerIZN6merkle5TreeTILm32EXadL_ZNS1_L15sha256_compressERKNS1_5HashTILm32EEES6_RS4_EEE4pathEmEUlPNS8_4NodeEbE_E15_M_init_functorIRKSB_EEvRSt9_Any_dataOT_
FNDA:19812,_ZNSt14_Function_base13_Base_managerIZN6merkle5TreeTILm32EXadL_ZNS1_L15sha256_compressERKNS1_5HashTILm32EEES6_RS4_EEE4pathEmEUlPNS8_4NodeEbE_E15_M_init_functorISB_EEvRSt9_Any_dataOT_
FNDA:0,_ZNSt14_Function_base13_Base_managerIZN6merkle5TreeTILm32EXadL_ZNS1_L15sha256_compressERKNS1_5HashTILm32EEES6_RS4_EEE8flush_toEmEUlRPNS8_4NodeEbE_E15_M_init_functorIRKSC_EEvRSt9_Any_dataOT_
FNDA:85068,_ZNSt14_Function_base13_Base_managerIZN6merkle5TreeTILm32EXadL_ZNS1_L15sha256_compressERKNS1_5HashTILm32EEES6_RS4_EEE8flush_toEmEUlRPNS8_4NodeEbE_E15_M_init_functorISC_EEvRSt9_Any_dataOT_
FNDA:0,_ZNSt14_Function_base13_Base_managerIZN6merkle5TreeTILm32EXadL_ZNS1_L15sha256_compressERKNS1_5HashTILm32EEES6_RS4_EEE9serialiseERSt6vectorIhSaIhEEEUlRPNS8_4NodeEbE_E15_M_init_functorIRKSG_EEvRSt9_Any_dataOT_
FNDA:34,_ZNSt14_Function_base13_Base_managerIZN6merkle5TreeTILm32EXadL_ZNS1_L15sha256_compressERKNS1_5HashTILm32EEES6_RS4_EEE9serialiseERSt6vectorIhSaIhEEEUlRPNS8_4NodeEbE_E15_M_init_functorISG_EEvRSt9_Any_dataOT_
FNDA:0,_ZNSt14_Function_base13_Base_managerIZN6merkle5TreeTILm32EXadL_ZNS1_L15sha256_compressERKNS1_5HashTILm32EEES6_RS4_EEE9serialiseEmmRSt6vectorIhSaIhEEEUlRPNS8_4NodeEbE_E15_M_init_functorIRKSG_EEvRSt9_Any_dataOT_
FNDA:1004,_ZNSt14_Function_base13_Base_managerIZN6merkle5TreeTILm32EXadL_ZNS1_L15sha256_compressERKNS1_5HashTILm32EEES6_RS4_EEE9serialiseEmmRSt6vectorIhSaIhEEEUlRPNS8_4NodeEbE_E15_M_init_functorISG_EEvRSt9_Any_dataOT_
FNDA:21623,_ZNSt14_Function_base13_Base_managerIZN6merkle5TreeTILm32EXadL_ZNS1_L15sha256_compressERKNS1_5HashTILm32EEES6_RS4_EEE10retract_toEmEUlRPNS8_4NodeEbE_E21_M_not_empty_functionISC_EEbRKT_
FNDA:1004,_ZNSt14_Function_base13_Base_managerIZN6merkle5TreeTILm32EXadL_ZNS1_L15sha256_compressERKNS1_5HashTILm32EEES6_RS4_EEE15serialised_sizeEmmEUlRPNS8_4NodeEbE_E21_M_not_empty_functionISC_EEbRKT_
FNDA:1068,_ZNSt14_Function_base13_Base_managerIZN6merkle5TreeTILm32EXadL_ZNS1_L15sha256_compressERKNS1_5HashTILm32EEES6_RS4_EEE15serialised_sizeEvEUlRPNS8_4NodeEbE_E21_M_not_empty_functionISC_EEbRKT_
FNDA:19812,_ZNSt14_Function_base13_Base_managerIZN6merkle5TreeTILm32EXadL_ZNS1_L15sha256_compressERKNS1_5HashTILm32EEES6_RS4_EEE4pathEmEUlPNS8_4NodeEbE_E21_M_not_empty_functionISB_EEbRKT_
FNDA:85068,_ZNSt14_Function_base13_Base_managerIZN6merkle5TreeTILm32EXadL_ZNS1_L15sha256_compressERKNS1_5HashTILm32EEES6_RS4_EEE8flush_toEmEUlRPNS8_4NodeEbE_E21_M_not_empty_functionISC_EEbRKT_
FNDA:34,_ZNSt14_Function_base13_Base_managerIZN6merkle5TreeTILm32EXadL_ZNS1_L15sha256_compressERKNS1_5HashTILm32EEES6_RS4_EEE9serialiseERSt6vectorIhSaIhEEEUlRPNS8_4NodeEbE_E21_M_not_empty_functionISG_EEbRKT_
FNDA:1004,_ZNSt14_Function_base13_Base_managerIZN6merkle5TreeTILm32EXadL_ZNS1_L15sha256_compressERKNS1_5HashTILm32EEES6_RS4_EEE9serialiseEmmRSt6vectorIhSaIhEEEUlRPNS8_4NodeEbE_E21_M_not_empty_functionISG_EEbRKT_
FNDA:129613,_ZNSt14_Function_baseC2Ev
FNDA:129613,_ZNSt14_Function_baseD2Ev
FNDA:1250395,_ZNKSt14_Function_base8_M_emptyEv
FNDA:21623,_ZNSt17_Function_handlerIFbRPN6merkle5TreeTILm32EXadL_ZNS0_L15sha256_compressERKNS0_5HashTILm32EEES5_RS3_EEE4NodeEbEZNS7_10retract_toEmEUlSA_bE_E10_M_managerERSt9_Any_dataRKSE_St18_Manager_operation
FNDA:1004,_ZNSt17_Function_handlerIFbRPN6merkle5TreeTILm32EXadL_ZNS0_L15sha256_compressERKNS0_5HashTILm32EEES5_RS3_EEE4NodeEbEZNS7_15serialised_sizeEmmEUlSA_bE_E10_M_managerERSt9_Any_dataRKSE_St18_Manager_operation
FNDA:1068,_ZNSt17_Function_handlerIFbRPN6merkle5TreeTILm32EXadL_ZNS0_L15sha256_compressERKNS0_5HashTILm32EEES5_RS3_EEE4NodeEbEZNS7_15serialised_sizeEvEUlSA_bE_E10_M_managerERSt9_Any_dataRKSE_St18_Manager_operation
FNDA:19812,_ZNSt17_Function_handlerIFbRPN6merkle5TreeTILm32EXadL_ZNS0_L15sha256_compressERKNS0_5HashTILm32EEES5_RS3_EEE4NodeEbEZNS7_4pathEmEUlS9_bE_E10_M_managerERSt9_Any_dataRKSE_St18_Manager_operation
FNDA:85068,_ZNSt17_Function_handlerIFbRPN6merkle5TreeTILm32EXadL_ZNS0_L15sha256_compressERKNS0_5HashTILm32EEES5_RS3_EEE4NodeEbEZNS7_8flush_toEmEUlSA_bE_E10_M_managerERSt9_Any_dataRKSE_St18_Manager_operation
FNDA:34,_ZNSt17_Function_handlerIFbRPN6merkle5TreeTILm32EXadL_ZNS0_L15sha256_compressERKNS0_5HashTILm32EEES5_RS3_EEE4NodeEbEZNS7_9serialiseERSt6vectorIhSaIhEEEUlSA_bE_E10_M_managerERSt9_Any_dataRKSI_St18_Manager_operation
FNDA:1004,_ZNSt17_Function_handlerIFbRPN6merkle5TreeTILm32EXadL_ZNS0_L15sha256_compressERKNS0_5HashTILm32EEES5_RS3_EEE4NodeEbEZNS7_9serialiseEmmRSt6vectorIhSaIhEEEUlSA_bE_E10_M_managerERSt9_Any_dataRKSI_St18_Manager_operation
FNDA:193815,_ZNSt17_Function_handlerIFbRPN6merkle5TreeTILm32EXadL_ZNS0_L15sha256_compressERKNS0_5HashTILm32EEES5_RS3_EEE4NodeEbEZNS7_10retract_toEmEUlSA_bE_E9_M_invokeERKSt9_Any_dataSA_Ob
FNDA:8432,_ZNSt17_Function_handlerIFbRPN6merkle5TreeTILm32EXadL_ZNS0_L15sha256_compressERKNS0_5HashTILm32EEES5_RS3_EEE4NodeEbEZNS7_15serialised_sizeEmmEUlSA_bE_E9_M_invokeERKSt9_Any_dataSA_Ob
FNDA:8344,_ZNSt17_Function_handlerIFbRPN6merkle5TreeTILm32EXadL_ZNS0_L15sha256_compressERKNS0_5HashTILm32EEES5_RS3_EEE4NodeEbEZNS7_15serialised_sizeEvEUlSA_bE_E9_M_invokeERKSt9_Any_dataSA_Ob
FNDA:224716,_ZNSt17_Function_handlerIFbRPN6merkle5TreeTILm32EXadL_ZNS0_L15sha256_compressERKNS0_5HashTILm32EEES5_RS3_EEE4NodeEbEZNS7_4pathEmEUlS9_bE_E9_M_invokeERKSt9_Any_dataSA_Ob
FNDA:806336,_ZNSt17_Function_handlerIFbRPN6merkle5TreeTILm32EXadL_ZNS0_L15sha256_compressERKNS0_5HashTILm32EEES5_RS3_EEE4NodeEbEZNS7_8flush_toEmEUlSA_bE_E9_M_invokeERKSt9_Any_dataSA_Ob
FNDA:320,_ZNSt17_Function_handlerIFbRPN6merkle5TreeTILm32EXadL_ZNS0_L15sha256_compressERKNS0_5HashTILm32EEES5_RS3_EEE4NodeEbEZNS7_9serialiseERSt6vectorIhSaIhEEEUlSA_bE_E9_M_invokeERKSt9_Any_dataSA_Ob
FNDA:8432,_ZNSt17_Function_handlerIFbRPN6merkle5TreeTILm32EXadL_ZNS0_L15sha256_compressERKNS0_5HashTILm32EEES5_RS3_EEE4NodeEbEZNS7_9serialiseEmmRSt6vectorIhSaIhEEEUlSA_bE_E9_M_invokeERKSt9_Any_dataSA_Ob
FNDA:21623,_ZNSt8functionIFbRPN6merkle5TreeTILm32EXadL_ZNS0_L15sha256_compressERKNS0_5HashTILm32EEES5_RS3_EEE4NodeEbEEC2IZNS7_10retract_toEmEUlSA_bE_vEEOT_
FNDA:1004,_ZNSt8functionIFbRPN6merkle5TreeTILm32EXadL_ZNS0_L15sha256_compressERKNS0_5HashTILm32EEES5_RS3_EEE4NodeEbEEC2IZNS7_15serialised_sizeEmmEUlSA_bE_vEEOT_
FNDA:1068,_ZNSt8functionIFbRPN6merkle5TreeTILm32EXadL_ZNS0_L15sha256_compressERKNS0_5HashTILm32EEES5_RS3_EEE4NodeEbEEC2IZNS7_15serialised_sizeEvEUlSA_bE_vEEOT_
FNDA:19812,_ZNSt8functionIFbRPN6merkle5TreeTILm32EXadL_ZNS0_L15sha256_compressERKNS0_5HashTILm32EEES5_RS3_EEE4NodeEbEEC2IZNS7_4pathEmEUlS9_bE_vEEOT_
FNDA:85068,_ZNSt8functionIFbRPN6merkle5TreeTILm32EXadL_ZNS0_L15sha256_compressERKNS0_5HashTILm32EEES5_RS3_EEE4NodeEbEEC2IZNS7_8flush_toEmEUlSA_bE_vEEOT_
FNDA:34,_ZNSt8functionIFbRPN6merkle5TreeTILm32EXadL_ZNS0_L15sha256_compressERKNS0_5HashTILm32EEES5_RS3_EEE4NodeEbEEC2IZNS7_9serialiseERSt6vectorIhSaIhEEEUlSA_bE_vEEOT_
FNDA:1004,_ZNSt8functionIFbRPN6merkle5TreeTILm32EXadL_ZNS0_L15sha256_compressERKNS0_5HashTILm32EEES5_RS3_EEE4NodeEbEEC2IZNS7_9serialiseEmmRSt6vectorIhSaIhEEEUlSA_bE_vEEOT_
FNDA:1250395,_ZNKSt8functionIFbRPN6merkle5TreeTILm32EXadL_ZNS0_L15sha256_compressERKNS0_5HashTILm32EEES5_RS3_EEE4NodeEbEEclESA_b
FNDA:259226,_ZNSt9_Any_data9_M_accessEv
FNDA:1250395,_ZNKSt9_Any_data9_M_accessEv
FNDA:0,_ZNSt9_Any_data9_M_accessIPKSt9type_infoEERT_v
FNDA:0,_ZNSt9_Any_data9_M_accessIPZN6merkle5TreeTILm32EXadL_ZNS1_L15sha256_compressERKNS1_5HashTILm32EEES6_RS4_EEE10retract_toEmEUlRPNS8_4NodeEbE_EERT_v
FNDA:0,_ZNSt9_Any_data9_M_accessIPZN6merkle5TreeTILm32EXadL_ZNS1_L15sha256_compressERKNS1_5HashTILm32EEES6_RS4_EEE15serialised_sizeEmmEUlRPNS8_4NodeEbE_EERT_v
FNDA:0,_ZNSt9_Any_data9_M_accessIPZN6merkle5TreeTILm32EXadL_ZNS1_L15sha256_compressERKNS1_5HashTILm32EEES6_RS4_EEE15serialised_sizeEvEUlRPNS8_4NodeEbE_EERT_v
FNDA:0,_ZNSt9_Any_data9_M_accessIPZN6merkle5TreeTILm32EXadL_ZNS1_L15sha256_compressERKNS1_5HashTILm32EEES6_RS4_EEE4pathEmEUlPNS8_4NodeEbE_EERT_v
FNDA:0,_ZNSt9_Any_data9_M_accessIPZN6merkle5TreeTILm32EXadL_ZNS1_L15sha256_compressERKNS1_5HashTILm32EEES6_RS4_EEE8flush_toEmEUlRPNS8_4NodeEbE_EERT_v
FNDA:0,_ZNSt9_Any_data9_M_accessIPZN6merkle5TreeTILm32EXadL_ZNS1_L15sha256_compressERKNS1_5HashTILm32EEES6_RS4_EEE9serialiseERSt6vectorIhSaIhEEEUlRPNS8_4NodeEbE_EERT_v
FNDA:0,_ZNSt9_Any_data9_M_accessIPZN6merkle5TreeTILm32EXadL_ZNS1_L15sha256_compressERKNS1_5HashTILm32EEES6_RS4_EEE9serialiseEmmRSt6vectorIhSaIhEEEUlRPNS8_4NodeEbE_EERT_v
FNDA:21623,_ZNSt9_Any_data9_M_accessIZN6merkle5TreeTILm32EXadL_ZNS1_L15sha256_compressERKNS1_5HashTILm32EEES6_RS4_EEE10retract_toEmEUlRPNS8_4NodeEbE_EERT_v
FNDA:1004,_ZNSt9_Any_data9_M_accessIZN6merkle5TreeTILm32EXadL_ZNS1_L15sha256_compressERKNS1_5HashTILm32EEES6_RS4_EEE15serialised_sizeEmmEUlRPNS8_4NodeEbE_EERT_v
FNDA:1068,_ZNSt9_Any_data9_M_accessIZN6merkle5TreeTILm32EXadL_ZNS1_L15sha256_compressERKNS1_5HashTILm32EEES6_RS4_EEE15serialised_sizeEvEUlRPNS8_4NodeEbE_EERT_v
FNDA:19812,_ZNSt9_Any_data9_M_accessIZN6merkle5TreeTILm32EXadL_ZNS1_L15sha256_compressERKNS1_5HashTILm32EEES6_RS4_EEE4pathEmEUlPNS8_4NodeEbE_EERT_v
FNDA:85068,_ZNSt9_Any_data9_M_accessIZN6merkle5TreeTILm32EXadL_ZNS1_L15sha256_compressERKNS1_5HashTILm32EEES6_RS4_EEE8flush_toEmEUlRPNS8_4NodeEbE_EERT_v
FNDA:34,_ZNSt9_Any_data9_M_accessIZN6merkle5TreeTILm32EXadL_ZNS1_L15sha256_compressERKNS1_5HashTILm32EEES6_RS4_EEE9serialiseERSt6vectorIhSaIhEEEUlRPNS8_4NodeEbE_EERT_v
FNDA:1004,_ZNSt9_Any_data9_M_accessIZN6merkle5TreeTILm32EXadL_ZNS1_L15sha256_compressERKNS1_5HashTILm32EEES6_RS4_EEE9serialiseEmmRSt6vectorIhSaIhEEEUlRPNS8_4NodeEbE_EERT_v
FNDA:193815,_ZNKSt9_Any_data9_M_accessIZN6merkle5TreeTILm32EXadL_ZNS1_L15sha256_compressERKNS1_5HashTILm32EEES6_RS4_EEE10retract_toEmEUlRPNS8_4NodeEbE_EERKT_v
FNDA:8432,_ZNKSt9_Any_data9_M_accessIZN6merkle5TreeTILm32EXadL_ZNS1_L15sha256_compressERKNS1_5HashTILm32EEES6_RS4_EEE15serialised_sizeEmmEUlRPNS8_4NodeEbE_EERKT_v
FNDA:8344,_ZNKSt9_Any_data9_M_accessIZN6merkle5TreeTILm32EXadL_ZNS1_L15sha256_compressERKNS1_5HashTILm32EEES6_RS4_EEE15serialised_sizeEvEUlRPNS8_4NodeEbE_EERKT_v
FNDA:224716,_ZNKSt9_Any_data9_M_accessIZN6merkle5TreeTILm32EXadL_ZNS1_L15sha256_compressERKNS1_5HashTILm32EEES6_RS4_EEE4pathEmEUlPNS8_4NodeEbE_EERKT_v
FNDA:806336,_ZNKSt9_Any_data9_M_accessIZN6merkle5TreeTILm32EXadL_ZNS1_L15sha256_compressERKNS1_5HashTILm32EEES6_RS4_EEE8flush_toEmEUlRPNS8_4NodeEbE_EERKT_v
FNDA:320,_ZNKSt9_Any_data9_M_accessIZN6merkle5TreeTILm32EXadL_ZNS1_L15sha256_compressERKNS1_5HashTILm32EEES6_RS4_EEE9serialiseERSt6vectorIhSaIhEEEUlRPNS8_4NodeEbE_EERKT_v
FNDA:8432,_ZNKSt9_Any_data9_M_accessIZN6merkle5TreeTILm32EXadL_ZNS1_L15sha256_compressERKNS1_5HashTILm32EEES6_RS4_EEE9serialiseEmmRSt6vectorIhSaIhEEEUlRPNS8_4NodeEbE_EERKT_v
FNF:105
FNH:83
DA:85,259226
DA:86,1250395
DA:90,129613
DA:91,129613
DA:95,1250395
DA:96,1250395
DA:134,1250395
DA:138,1250395
DA:139,1250395
DA:150,129613
DA:152,129613
DA:153,129613
DA:166,129613
DA:168,129613
DA:169,129613
DA:180,129613
DA:183,129613
DA:185,0
DA:187,0
DA:191,0
DA:193,0
DA:194,0
DA:195,0
DA:197,0
DA:198,0
DA:199,0
DA:200,0
DA:202,129613
DA:203,129613
DA:204,129613
DA:206,129613
DA:211,129613
DA:215,129613
DA:216,129613
DA:235,129613
DA:236,129613
DA:239,129613
DA:241,129613
DA:243,129613
DA:244,129613
DA:245,129613
DA:247,1250395
DA:267,129613
DA:270,129613
DA:273,0
DA:274,0
DA:275,0
DA:277,0
DA:278,0
DA:279,0
DA:281,129613
DA:282,129613
DA:284,129613
DA:288,1250395
DA:290,1250395
DA:291,1250395
DA:435,129613
DA:437,129613
DA:447,129613
DA:449,129613
DA:451,129613
DA:452,129613
DA:454,129613
DA:587,1250395
DA:589,1250395
DA:590,0
DA:591,1250395
LF:67
LH:50
end_of_record
TN:
SF:/usr/include/c++/13/bits/stl_algobase.h
FN:1000,1008,_ZSt4fillIPhiEvT_S1_RKT0_
FN:1018,1018,_ZSt17__size_to_integerm
FN:1117,1130,_ZSt10__fill_n_aIPPN6merkle5TreeTILm32EXadL_ZNS0_L15sha256_compressERKNS0_5HashTILm32EEES5_RS3_EEE4NodeEmS9_ET_SB_T0_RKT1_St26random_access_iterator_tag
FN:1152,1159,_ZSt6fill_nIPPN6merkle5TreeTILm32EXadL_ZNS0_L15sha256_compressERKNS0_5HashTILm32EEES5_RS3_EEE4NodeEmS9_ET_SB_T0_RKT1_
FN:233,241,_ZSt3minImERKT_S2_S2_
FN:257,265,_ZSt3maxIhERKT_S2_S2_
FN:257,265,_ZSt3maxImERKT_S2_S2_
FN:316,318,_ZSt12__niter_baseIPKhET_S2_
FN:316,318,_ZSt12__niter_baseIPN6merkle5HashTILm32EEEET_S4_
FN:316,318,_ZSt12__niter_baseIPN6merkle5TreeTILm32EXadL_ZNS0_L15sha256_compressERKNS0_5HashTILm32EEES5_RS3_EEEUt_EET_SA_
FN:316,318,_ZSt12__niter_baseIPPN6merkle5TreeTILm32EXadL_ZNS0_L15sha256_compressERKNS0_5HashTILm32EEES5_RS3_EEE4NodeEET_SB_
FN:316,318,_ZSt12__niter_baseIPhET_S1_
FN:331,332,_ZSt12__niter_wrapIN9__gnu_cxx17__normal_iteratorIPPN6merkle5TreeTILm32EXadL_ZNS2_L15sha256_compressERKNS2_5HashTILm32EEES7_RS5_EEE4NodeESt6vectorISB_SaISB_EEEESC_ET_SH_T0_
FN:338,339,_ZSt12__niter_wrapIPPN6merkle5TreeTILm32EXadL_ZNS0_L15sha256_compressERKNS0_5HashTILm32EEES5_RS3_EEE4NodeEET_RKSB_SB_
FN:338,339,_ZSt12__niter_wrapIPhET_RKS1_S1_
FN:397,398,_ZNSt11__copy_moveILb0ELb0ESt26random_access_iterator_tagE12__assign_oneIPN6merkle5TreeTILm32EXadL_ZNS3_L15sha256_compressERKNS3_5HashTILm32EEES8_RS6_EEE4NodeEKSC_EEvPT_PT0_
FN:397,398,_ZNSt11__copy_moveILb0ELb0ESt26random_access_iterator_tagE12__assign_oneIhKhEEvPT_PT0_
FN:422,423,_ZNSt11__copy_moveILb1ELb0ESt26random_access_iterator_tagE12__assign_oneIPN6merkle5TreeTILm32EXadL_ZNS3_L15sha256_compressERKNS3_5HashTILm32EEES8_RS6_EEE4NodeESC_EEvPT_PT0_
FN:433,442,_ZNSt11__copy_moveILb0ELb1ESt26random_access_iterator_tagE8__copy_mIKPN6merkle5TreeTILm32EXadL_ZNS3_L15sha256_compressERKNS3_5HashTILm32EEES8_RS6_EEE4NodeESC_EEPT0_PT_SH_SF_
FN:433,442,_ZNSt11__copy_moveILb0ELb1ESt26random_access_iterator_tagE8__copy_mIKhhEEPT0_PT_S7_S5_
FN:433,442,_ZNSt11__copy_moveILb1ELb1ESt26random_access_iterator_tagE8__copy_mIPN6merkle5TreeTILm32EXadL_ZNS3_L15sha256_compressERKNS3_5HashTILm32EEES8_RS6_EEE4NodeESC_EEPT0_PT_SG_SE_
FN:497,507,_ZSt14__copy_move_a2ILb0EPKPN6merkle5TreeTILm32EXadL_ZNS0_L15sha256_compressERKNS0_5HashTILm32EEES5_RS3_EEE4NodeEPS9_ET1_T0_SE_SD_
FN:497,507,_ZSt14__copy_move_a2ILb0EPKhPhET1_T0_S4_S3_
FN:497,507,_ZSt14__copy_move_a2ILb1EPPN6merkle5TreeTILm32EXadL_ZNS0_L15sha256_compressERKNS0_5HashTILm32EEES5_RS3_EEE4NodeESA_ET1_T0_SC_SB_
FN:532,533,_ZSt14__copy_move_a1ILb0EPKPN6merkle5TreeTILm32EXadL_ZNS0_L15sha256_compressERKNS0_5HashTILm32EEES5_RS3_EEE4NodeEPS9_ET1_T0_SE_SD_
FN:532,533,_ZSt14__copy_move_a1ILb0EPKhPhET1_T0_S4_S3_
FN:532,533,_ZSt14__copy_move_a1ILb1EPPN6merkle5TreeTILm32EXadL_ZNS0_L15sha256_compressERKNS0_5HashTILm32EEES5_RS3_EEE4NodeESA_ET1_T0_SC_SB_
FN:538,544,_ZSt13__copy_move_aILb0EN9__gnu_cxx17__normal_iteratorIPKPN6merkle5TreeTILm32EXadL_ZNS2_L15sha256_compressERKNS2_5HashTILm32EEES7_RS5_EEE4NodeESt6vectorISB_SaISB_EEEEPSB_ET1_T0_SK_SJ_
FN:538,544,_ZSt13__copy_move_aILb0EPKhPhET1_T0_S4_S3_
FN:538,544,_ZSt13__copy_move_aILb1EN9__gnu_cxx17__normal_iteratorIPPN6merkle5TreeTILm32EXadL_ZNS2_L15sha256_compressERKNS2_5HashTILm32EEES7_RS5_EEE4NodeESt6vectorISB_SaISB_EEEESG_ET1_T0_SI_SH_
FN:624,634,_ZSt4copyIN9__gnu_cxx17__normal_iteratorIPKPN6merkle5TreeTILm32EXadL_ZNS2_L15sha256_compressERKNS2_5HashTILm32EEES7_RS5_EEE4NodeESt6vectorISB_SaISB_EEEEPSB_ET0_T_SK_SJ_
FN:624,634,_ZSt4copyIPKhPhET0_T_S4_S3_
FN:657,667,_ZSt4moveIN9__gnu_cxx17__normal_iteratorIPPN6merkle5TreeTILm32EXadL_ZNS2_L15sha256_compressERKNS2_5HashTILm32EEES7_RS5_EEE4NodeESt6vectorISB_SaISB_EEEESG_ET0_T_SI_SH_
FN:744,753,_ZNSt20__copy_move_backwardILb1ELb1ESt26random_access_iterator_tagE13__copy_move_bIPN6merkle5TreeTILm32EXadL_ZNS3_L15sha256_compressERKNS3_5HashTILm32EEES8_RS6_EEE4NodeESC_EEPT0_PT_SG_SE_
FN:759,772,_ZSt23__copy_move_backward_a2ILb1EPPN6merkle5TreeTILm32EXadL_ZNS0_L15sha256_compressERKNS0_5HashTILm32EEES5_RS3_EEE4NodeESA_ET1_T0_SC_SB_
FN:777,778,_ZSt23__copy_move_backward_a1ILb1EPPN6merkle5TreeTILm32EXadL_ZNS0_L15sha256_compressERKNS0_5HashTILm32EEES5_RS3_EEE4NodeESA_ET1_T0_SC_SB_
FN:805,811,_ZSt22__copy_move_backward_aILb1EPPN6merkle5TreeTILm32EXadL_ZNS0_L15sha256_compressERKNS0_5HashTILm32EEES5_RS3_EEE4NodeESA_ET1_T0_SC_SB_
FN:892,904,_ZSt13move_backwardIPPN6merkle5TreeTILm32EXadL_ZNS0_L15sha256_compressERKNS0_5HashTILm32EEES5_RS3_EEE4NodeESA_ET0_T_SC_SB_
FN:926,932,_ZSt9__fill_a1IPPN6merkle5TreeTILm32EXadL_ZNS0_L15sha256_compressERKNS0_5HashTILm32EEES5_RS3_EEE4NodeES9_EN9__gnu_cxx11__enable_ifIXsrSt11__is_scalarIT0_E7__valueEvE6__typeET_SI_RKSE_
FN:926,932,_ZSt9__fill_a1IPhiEN9__gnu_cxx11__enable_ifIXsrSt11__is_scalarIT0_E7__valueEvE6__typeET_S8_RKS4_
FN:976,977,_ZSt8__fill_aIPPN6merkle5TreeTILm32EXadL_ZNS0_L15sha256_compressERKNS0_5HashTILm32EEES5_RS3_EEE4NodeES9_EvT_SB_RKT0_
FN:976,977,_ZSt8__fill_aIPhiEvT_S1_RKT0_
FNDA:37753101,_ZSt4fillIPhiEvT_S1_RKT0_
FNDA:0,_ZSt17__size_to_integerm
FNDA:0,_ZSt10__fill_n_aIPPN6merkle5TreeTILm32EXadL_ZNS0_L15sha256_compressERKNS0_5HashTILm32EEES5_RS3_EEE4NodeEmS9_ET_SB_T0_RKT1_St26random_access_iterator_tag
FNDA:0,_ZSt6fill_nIPPN6merkle5TreeTILm32EXadL_ZNS0_L15sha256_compressERKNS0_5HashTILm32EEES5_RS3_EEE4NodeEmS9_ET_SB_T0_RKT1_
FNDA:272636,_ZSt3minImERKT_S2_S2_
FNDA:17255537,_ZSt3maxIhERKT_S2_S2_
FNDA:72673,_ZSt3maxImERKT_S2_S2_
FNDA:66187518,_ZSt12__niter_baseIPKhET_S2_
FNDA:36984,_ZSt12__niter_baseIPN6merkle5HashTILm32EEEET_S4_
FNDA:13566,_ZSt12__niter_baseIPN6merkle5TreeTILm32EXadL_ZNS0_L15sha256_compressERKNS0_5HashTILm32EEES5_RS3_EEEUt_EET_SA_
FNDA:319533,_ZSt12__niter_baseIPPN6merkle5TreeTILm32EXadL_ZNS0_L15sha256_compressERKNS0_5HashTILm32EEES5_RS3_EEE4NodeEET_SB_
FNDA:33209643,_ZSt12__niter_baseIPhET_S1_
FNDA:85068,_ZSt12__niter_wrapIN9__gnu_cxx17__normal_iteratorIPPN6merkle5TreeTILm32EXadL_ZNS2_L15sha256_compressERKNS2_5HashTILm32EEES7_RS5_EEE4NodeESt6vectorISB_SaISB_EEEESC_ET_SH_T0_
FNDA:6137,_ZSt12__niter_wrapIPPN6merkle5TreeTILm32EXadL_ZNS0_L15sha256_compressERKNS0_5HashTILm32EEES5_RS3_EEE4NodeEET_RKSB_SB_
FNDA:33093759,_ZSt12__niter_wrapIPhET_RKS1_S1_
FNDA:106,_ZNSt11__copy_moveILb0ELb0ESt26random_access_iterator_tagE12__assign_oneIPN6merkle5TreeTILm32EXadL_ZNS3_L15sha256_compressERKNS3_5HashTILm32EEES8_RS6_EEE4NodeEKSC_EEvPT_PT0_
FNDA:0,_ZNSt11__copy_moveILb0ELb0ESt26random_access_iterator_tagE12__assign_oneIhKhEEvPT_PT0_
FNDA:795,_ZNSt11__copy_moveILb1ELb0ESt26random_access_iterator_tagE12__assign_oneIPN6merkle5TreeTILm32EXadL_ZNS3_L15sha256_compressERKNS3_5HashTILm32EEES8_RS6_EEE4NodeESC_EEvPT_PT0_
FNDA:1038,_ZNSt11__copy_moveILb0ELb1ESt26random_access_iterator_tagE8__copy_mIKPN6merkle5TreeTILm32EXadL_ZNS3_L15sha256_compressERKNS3_5HashTILm32EEES8_RS6_EEE4NodeESC_EEPT0_PT_SH_SF_
FNDA:33093759,_ZNSt11__copy_moveILb0ELb1ESt26random_access_iterator_tagE8__copy_mIKhhEEPT0_PT_S7_S5_
FNDA:85068,_ZNSt11__copy_moveILb1ELb1ESt26random_access_iterator_tagE8__copy_mIPN6merkle5TreeTILm32EXadL_ZNS3_L15sha256_compressERKNS3_5HashTILm32EEES8_RS6_EEE4NodeESC_EEPT0_PT_SG_SE_
FNDA:1038,_ZSt14__copy_move_a2ILb0EPKPN6merkle5TreeTILm32EXadL_ZNS0_L15sha256_compressERKNS0_5HashTILm32EEES5_RS3_EEE4NodeEPS9_ET1_T0_SE_SD_
FNDA:33093759,_ZSt14__copy_move_a2ILb0EPKhPhET1_T0_S4_S3_
FNDA:85068,_ZSt14__copy_move_a2ILb1EPPN6merkle5TreeTILm32EXadL_ZNS0_L15sha256_compressERKNS0_5HashTILm32EEES5_RS3_EEE4NodeESA_ET1_T0_SC_SB_
FNDA:1038,_ZSt14__copy_move_a1ILb0EPKPN6merkle5TreeTILm32EXadL_ZNS0_L15sha256_compressERKNS0_5HashTILm32EEES5_RS3_EEE4NodeEPS9_ET1_T0_SE_SD_
FNDA:33093759,_ZSt14__copy_move_a1ILb0EPKhPhET1_T0_S4_S3_
FNDA:85068,_ZSt14__copy_move_a1ILb1EPPN6merkle5TreeTILm32EXadL_ZNS0_L15sha256_compressERKNS0_5HashTILm32EEES5_RS3_EEE4NodeESA_ET1_T0_SC_SB_
FNDA:1038,_ZSt13__copy_move_aILb0EN9__gnu_cxx17__normal_iteratorIPKPN6merkle5TreeTILm32EXadL_ZNS2_L15sha256_compressERKNS2_5HashTILm32EEES7_RS5_EEE4NodeESt6vectorISB_SaISB_EEEEPSB_ET1_T0_SK_SJ_
FNDA:33093759,_ZSt13__copy_move_aILb0EPKhPhET1_T0_S4_S3_
FNDA:85068,_ZSt13__copy_move_aILb1EN9__gnu_cxx17__normal_iteratorIPPN6merkle5TreeTILm32EXadL_ZNS2_L15sha256_compressERKNS2_5HashTILm32EEES7_RS5_EEE4NodeESt6vectorISB_SaISB_EEEESG_ET1_T0_SI_SH_
FNDA:1038,_ZSt4copyIN9__gnu_cxx17__normal_iteratorIPKPN6merkle5TreeTILm32EXadL_ZNS2_L15sha256_compressERKNS2_5HashTILm32EEES7_RS5_EEE4NodeESt6vectorISB_SaISB_EEEEPSB_ET0_T_SK_SJ_
FNDA:33093759,_ZSt4copyIPKhPhET0_T_S4_S3_
FNDA:85068,_ZSt4moveIN9__gnu_cxx17__normal_iteratorIPPN6merkle5TreeTILm32EXadL_ZNS2_L15sha256_compressERKNS2_5HashTILm32EEES7_RS5_EEE4NodeESt6vectorISB_SaISB_EEEESG_ET0_T_SI_SH_
FNDA:5099,_ZNSt20__copy_move_backwardILb1ELb1ESt26random_access_iterator_tagE13__copy_move_bIPN6merkle5TreeTILm32EXadL_ZNS3_L15sha256_compressERKNS3_5HashTILm32EEES8_RS6_EEE4NodeESC_EEPT0_PT_SG_SE_
FNDA:5099,_ZSt23__copy_move_backward_a2ILb1EPPN6merkle5TreeTILm32EXadL_ZNS0_L15sha256_compressERKNS0_5HashTILm32EEES5_RS3_EEE4NodeESA_ET1_T0_SC_SB_
FNDA:5099,_ZSt23__copy_move_backward_a1ILb1EPPN6merkle5TreeTILm32EXadL_ZNS0_L15sha256_compressERKNS0_5HashTILm32EEES5_RS3_EEE4NodeESA_ET1_T0_SC_SB_
FNDA:5099,_ZSt22__copy_move_backward_aILb1EPPN6merkle5TreeTILm32EXadL_ZNS0_L15sha256_compressERKNS0_5HashTILm32EEES5_RS3_EEE4NodeESA_ET1_T0_SC_SB_
FNDA:5099,_ZSt13move_backwardIPPN6merkle5TreeTILm32EXadL_ZNS0_L15sha256_compressERKNS0_5HashTILm32EEES5_RS3_EEE4NodeESA_ET0_T_SC_SB_
FNDA:0,_ZSt9__fill_a1IPPN6merkle5TreeTILm32EXadL_ZNS0_L15sha256_compressERKNS0_5HashTILm32EEES5_RS3_EEE4NodeES9_EN9__gnu_cxx11__enable_ifIXsrSt11__is_scalarIT0_E7__valueEvE6__typeET_SI_RKSE_
FNDA:37753101,_ZSt9__fill_a1IPhiEN9__gnu_cxx11__enable_ifIXsrSt11__is_scalarIT0_E7__valueEvE6__typeET_S8_RKS4_
FNDA:0,_ZSt8__fill_aIPPN6merkle5TreeTILm32EXadL_ZNS0_L15sha256_compressERKNS0_5HashTILm32EEES5_RS3_EEE4NodeES9_EvT_SB_RKT0_
FNDA:37753101,_ZSt8__fill_aIPhiEvT_S1_RKT0_
FNF:42
FNH:36
DA:233,272636
DA:238,272636
DA:239,0
DA:240,272636
DA:257,17328210
DA:262,17328210
DA:263,8213
DA:264,17319997
DA:316,99767244
DA:318,99767244
DA:331,85068
DA:332,85068
DA:338,33099896
DA:339,33099896
DA:397,106
DA:398,106
DA:422,795
DA:423,795
DA:433,33179865
DA:435,33179865
DA:436,33179865
DA:437,33179758
DA:438,107
DA:440,107
DA:441,33179865
DA:497,33179865
DA:506,33179865
DA:532,33179865
DA:533,33179865
DA:538,33179865
DA:540,33179865
DA:543,33179865
DA:624,33094797
DA:633,33094797
DA:657,85068
DA:665,85068
DA:666,85068
DA:744,5099
DA:746,5099
DA:747,5099
DA:748,510
DA:749,4589
DA:751,794
DA:752,5099
DA:759,5099
DA:769,5099
DA:771,5099
DA:777,5099
DA:778,5099
DA:805,5099
DA:807,5099
DA:810,5099
DA:892,5099
DA:901,5099
DA:903,5099
DA:926,37753101
DA:929,37753101
DA:930,1245852333
DA:931,1208099232
DA:932,37753101
DA:976,37753101
DA:977,37753101
DA:1000,37753101
DA:1007,37753101
DA:1008,37753101
DA:1018,0
DA:1117,0
DA:1123,0
DA:1124,0
DA:1128,0
DA:1129,0
DA:1152,0
DA:1157,0
DA:1158,0
LF:74
LH:64
end_of_record
TN:
SF:/usr/include/c++/13/bits/stl_construct.h
FN:109,120,_ZSt10_ConstructIN6merkle5HashTILm32EEEJRKS2_EEvPT_DpOT0_
FN:109,120,_ZSt10_ConstructIN6merkle5PathTILm32EXadL_ZNS0_L15sha256_compressERKNS0_5HashTILm32EEES5_RS3_EEEEJS5_RmNSt7__cxx114listINS7_Ut0_ESaISB_EEES8_EEvPT_DpOT0_
FN:109,120,_ZSt10_ConstructIN6merkle5PathTILm32EXadL_ZNS0_L15sha256_compressERKNS0_5HashTILm32EEES5_RS3_EEEEJS5_RmNSt7__cxx114listINS7_Ut0_ESaISB_EEEmEEvPT_DpOT0_
FN:109,120,_ZSt10_ConstructIPN6merkle5TreeTILm32EXadL_ZNS0_L15sha256_compressERKNS0_5HashTILm32EEES5_RS3_EEE4NodeEJEEvPT_DpOT0_
FN:146,153,_ZSt8_DestroyIN6merkle5HashTILm32EEEEvPT_
FN:146,153,_ZSt8_DestroyIN6merkle5PathTILm32EXadL_ZNS0_L15sha256_compressERKNS0_5HashTILm32EEES5_RS3_EEEEEvPT_
FN:172,172,_ZNSt12_Destroy_auxILb1EE9__destroyIPN6merkle5HashTILm32EEEEEvT_S6_
FN:172,172,_ZNSt12_Destroy_auxILb1EE9__destroyIPN6merkle5TreeTILm32EXadL_ZNS2_L15sha256_compressERKNS2_5HashTILm32EEES7_RS5_EEEUt_EEEvT_SC_
FN:172,172,_ZNSt12_Destroy_auxILb1EE9__destroyIPPN6merkle5TreeTILm32EXadL_ZNS2_L15sha256_compressERKNS2_5HashTILm32EEES7_RS5_EEE4NodeEEEvT_SD_
FN:172,172,_ZNSt12_Destroy_auxILb1EE9__destroyIPhEEvT_S3_
FN:182,197,_ZSt8_DestroyIPN6merkle5HashTILm32EEEEvT_S4_
FN:182,197,_ZSt8_DestroyIPN6merkle5TreeTILm32EXadL_ZNS0_L15sha256_compressERKNS0_5HashTILm32EEES5_RS3_EEEUt_EEvT_SA_
FN:182,197,_ZSt8_DestroyIPPN6merkle5TreeTILm32EXadL_ZNS0_L15sha256_compressERKNS0_5HashTILm32EEES5_RS3_EEE4NodeEEvT_SB_
FN:182,197,_ZSt8_DestroyIPhEvT_S1_
FNDA:24141,_ZSt10_ConstructIN6merkle5HashTILm32EEEJRKS2_EEvPT_DpOT0_
FNDA:2447,_ZSt10_ConstructIN6merkle5PathTILm32EXadL_ZNS0_L15sha256_compressERKNS0_5HashTILm32EEES5_RS3_EEEEJS5_RmNSt7__cxx114listINS7_Ut0_ESaISB_EEES8_EEvPT_DpOT0_
FNDA:19812,_ZSt10_ConstructIN6merkle5PathTILm32EXadL_ZNS0_L15sha256_compressERKNS0_5HashTILm32EEES5_RS3_EEEEJS5_RmNSt7__cxx114listINS7_Ut0_ESaISB_EEEmEEvPT_DpOT0_
FNDA:0,_ZSt10_ConstructIPN6merkle5TreeTILm32EXadL_ZNS0_L15sha256_compressERKNS0_5HashTILm32EEES5_RS3_EEE4NodeEJEEvPT_DpOT0_
FNDA:24141,_ZSt8_DestroyIN6merkle5HashTILm32EEEEvPT_
FNDA:22259,_ZSt8_DestroyIN6merkle5PathTILm32EXadL_ZNS0_L15sha256_compressERKNS0_5HashTILm32EEES5_RS3_EEEEEvPT_
FNDA:451,_ZNSt12_Destroy_auxILb1EE9__destroyIPN6merkle5HashTILm32EEEEEvT_S6_
FNDA:3082,_ZNSt12_Destroy_auxILb1EE9__destroyIPN6merkle5TreeTILm32EXadL_ZNS2_L15sha256_compressERKNS2_5HashTILm32EEES7_RS5_EEEUt_EEEvT_SC_
FNDA:251940,_ZNSt12_Destroy_auxILb1EE9__destroyIPPN6merkle5TreeTILm32EXadL_ZNS2_L15sha256_compressERKNS2_5HashTILm32EEES7_RS5_EEE4NodeEEEvT_SD_
FNDA:2171,_ZNSt12_Destroy_auxILb1EE9__destroyIPhEEvT_S3_
FNDA:451,_ZSt8_DestroyIPN6merkle5HashTILm32EEEEvT_S4_
FNDA:3082,_ZSt8_DestroyIPN6merkle5TreeTILm32EXadL_ZNS0_L15sha256_compressERKNS0_5HashTILm32EEES5_RS3_EEEUt_EEvT_SA_
FNDA:251940,_ZSt8_DestroyIPPN6merkle5TreeTILm32EXadL_ZNS0_L15sha256_compressERKNS0_5HashTILm32EEES5_RS3_EEE4NodeEEvT_SB_
FNDA:2171,_ZSt8_DestroyIPhEvT_S1_
FNF:14
FNH:13
DA:109,46400
DA:119,46400
DA:120,46400
DA:146,46400
DA:151,46400
DA:153,46400
DA:172,257644
DA:182,257644
DA:196,257644
DA:197,257644
LF:10
LH:10
end_of_record
TN:
SF:/usr/include/c++/13/bits/stl_function.h
FN:1182,1183,_ZNKSt10_Select1stISt4pairIKmN6merkle5HashTILm32EEEEEclERKS5_
FN:407,408,_ZNKSt4lessImEclERKmS2_
FNDA:186418,_ZNKSt10_Select1stISt4pairIKmN6merkle5HashTILm32EEEEEclERKS5_
FNDA:158973,_ZNKSt4lessImEclERKmS2_
FNF:2
FNH:2
DA:407,158973
DA:408,158973
DA:1182,186418
DA:1183,186418
LF:4
LH:4
end_of_record
TN:
SF:/usr/include/c++/13/bits/stl_iterator.h
FN:1072,1073,_ZN9__gnu_cxx17__normal_iteratorIPKPN6merkle5TreeTILm32EXadL_ZNS1_L15sha256_compressERKNS1_5HashTILm32EEES6_RS4_EEE4NodeESt6vectorISA_SaISA_EEEC2Ev
FN:1076,1077,_ZN9__gnu_cxx17__normal_iteratorIPKN6merkle5TreeTILm32EXadL_ZNS1_L15sha256_compressERKNS1_5HashTILm32EEES6_RS4_EEEUt_ESt6vectorIS9_SaIS9_EEEC2ERKSB_
FN:1076,1077,_ZN9__gnu_cxx17__normal_iteratorIPKPN6merkle5TreeTILm32EXadL_ZNS1_L15sha256_compressERKNS1_5HashTILm32EEES6_RS4_EEE4NodeESt6vectorISA_SaISA_EEEC2ERKSC_
FN:1076,1077,_ZN9__gnu_cxx17__normal_iteratorIPN6merkle5HashTILm32EEESt6vectorIS3_SaIS3_EEEC2ERKS4_
FN:1076,1077,_ZN9__gnu_cxx17__normal_iteratorIPN6merkle5TreeTILm32EXadL_ZNS1_L15sha256_compressERKNS1_5HashTILm32EEES6_RS4_EEEUt_ESt6vectorIS9_SaIS9_EEEC2ERKSA_
FN:1076,1077,_ZN9__gnu_cxx17__normal_iteratorIPPN6merkle5TreeTILm32EXadL_ZNS1_L15sha256_compressERKNS1_5HashTILm32EEES6_RS4_EEE4NodeESt6vectorISA_SaISA_EEEC2ERKSB_
FN:1076,1077,_ZN9__gnu_cxx17__normal_iteratorIPhSt6vectorIhSaIhEEEC2ERKS1_
FN:1083,1094,_ZN9__gnu_cxx17__normal_iteratorIPKPN6merkle5TreeTILm32EXadL_ZNS1_L15sha256_compressERKNS1_5HashTILm32EEES6_RS4_EEE4NodeESt6vectorISA_SaISA_EEEC2IPSA_vEERKNS0_IT_SF_EE
FN:1099,1100,_ZNK9__gnu_cxx17__normal_iteratorIPKPN6merkle5TreeTILm32EXadL_ZNS1_L15sha256_compressERKNS1_5HashTILm32EEES6_RS4_EEE4NodeESt6vectorISA_SaISA_EEEdeEv
FN:1099,1100,_ZNK9__gnu_cxx17__normal_iteratorIPN6merkle5HashTILm32EEESt6vectorIS3_SaIS3_EEEdeEv
FN:1099,1100,_ZNK9__gnu_cxx17__normal_iteratorIPN6merkle5TreeTILm32EXadL_ZNS1_L15sha256_compressERKNS1_5HashTILm32EEES6_RS4_EEEUt_ESt6vectorIS9_SaIS9_EEEdeEv
FN:1099,1100,_ZNK9__gnu_cxx17__normal_iteratorIPPN6merkle5TreeTILm32EXadL_ZNS1_L15sha256_compressERKNS1_5HashTILm32EEES6_RS4_EEE4NodeESt6vectorISA_SaISA_EEEdeEv
FN:1099,1100,_ZNK9__gnu_cxx17__normal_iteratorIPhSt6vectorIhSaIhEEEdeEv
FN:1109,1113,_ZN9__gnu_cxx17__normal_iteratorIPKPN6merkle5TreeTILm32EXadL_ZNS1_L15sha256_compressERKNS1_5HashTILm32EEES6_RS4_EEE4NodeESt6vectorISA_SaISA_EEEppEv
FN:1109,1113,_ZN9__gnu_cxx17__normal_iteratorIPN6merkle5HashTILm32EEESt6vectorIS3_SaIS3_EEEppEv
FN:1109,1113,_ZN9__gnu_cxx17__normal_iteratorIPPN6merkle5TreeTILm32EXadL_ZNS1_L15sha256_compressERKNS1_5HashTILm32EEES6_RS4_EEE4NodeESt6vectorISA_SaISA_EEEppEv
FN:1109,1113,_ZN9__gnu_cxx17__normal_iteratorIPhSt6vectorIhSaIhEEEppEv
FN:1147,1148,_ZNK9__gnu_cxx17__normal_iteratorIPPN6merkle5TreeTILm32EXadL_ZNS1_L15sha256_compressERKNS1_5HashTILm32EEES6_RS4_EEE4NodeESt6vectorISA_SaISA_EEEplEl
FN:1157,1158,_ZNK9__gnu_cxx17__normal_iteratorIPN6merkle5TreeTILm32EXadL_ZNS1_L15sha256_compressERKNS1_5HashTILm32EEES6_RS4_EEEUt_ESt6vectorIS9_SaIS9_EEEmiEl
FN:1157,1158,_ZNK9__gnu_cxx17__normal_iteratorIPPN6merkle5TreeTILm32EXadL_ZNS1_L15sha256_compressERKNS1_5HashTILm32EEES6_RS4_EEE4NodeESt6vectorISA_SaISA_EEEmiEl
FN:1157,1158,_ZNK9__gnu_cxx17__normal_iteratorIPhSt6vectorIhSaIhEEEmiEl
FN:1162,1163,_ZNK9__gnu_cxx17__normal_iteratorIPKN6merkle5TreeTILm32EXadL_ZNS1_L15sha256_compressERKNS1_5HashTILm32EEES6_RS4_EEEUt_ESt6vectorIS9_SaIS9_EEE4baseEv
FN:1162,1163,_ZNK9__gnu_cxx17__normal_iteratorIPKPN6merkle5TreeTILm32EXadL_ZNS1_L15sha256_compressERKNS1_5HashTILm32EEES6_RS4_EEE4NodeESt6vectorISA_SaISA_EEE4baseEv
FN:1162,1163,_ZNK9__gnu_cxx17__normal_iteratorIPN6merkle5HashTILm32EEESt6vectorIS3_SaIS3_EEE4baseEv
FN:1162,1163,_ZNK9__gnu_cxx17__normal_iteratorIPN6merkle5TreeTILm32EXadL_ZNS1_L15sha256_compressERKNS1_5HashTILm32EEES6_RS4_EEEUt_ESt6vectorIS9_SaIS9_EEE4baseEv
FN:1162,1163,_ZNK9__gnu_cxx17__normal_iteratorIPPN6merkle5TreeTILm32EXadL_ZNS1_L15sha256_compressERKNS1_5HashTILm32EEES6_RS4_EEE4NodeESt6vectorISA_SaISA_EEE4baseEv
FN:1162,1163,_ZNK9__gnu_cxx17__normal_iteratorIPhSt6vectorIhSaIhEEE4baseEv
FN:1217,1220,_ZN9__gnu_cxxeqIPKPN6merkle5TreeTILm32EXadL_ZNS1_L15sha256_compressERKNS1_5HashTILm32EEES6_RS4_EEE4NodeEPSA_St6vectorISA_SaISA_EEEEbRKNS_17__normal_iteratorIT_T1_EERKNSH_IT0_SJ_EE
FN:1225,1228,_ZN9__gnu_cxxeqIPKN6merkle5TreeTILm32EXadL_ZNS1_L15sha256_compressERKNS1_5HashTILm32EEES6_RS4_EEEUt_ESt6vectorIS9_SaIS9_EEEEbRKNS_17__normal_iteratorIT_T0_EESK_
FN:1225,1228,_ZN9__gnu_cxxeqIPKPN6merkle5TreeTILm32EXadL_ZNS1_L15sha256_compressERKNS1_5HashTILm32EEES6_RS4_EEE4NodeESt6vectorISA_SaISA_EEEEbRKNS_17__normal_iteratorIT_T0_EESL_
FN:1241,1244,_ZN9__gnu_cxxneIPKPN6merkle5TreeTILm32EXadL_ZNS1_L15sha256_compressERKNS1_5HashTILm32EEES6_RS4_EEE4NodeESt6vectorISA_SaISA_EEEEbRKNS_17__normal_iteratorIT_T0_EESL_
FN:1241,1244,_ZN9__gnu_cxxneIPN6merkle5HashTILm32EEESt6vectorIS3_SaIS3_EEEEbRKNS_17__normal_iteratorIT_T0_EESD_
FN:1241,1244,_ZN9__gnu_cxxneIPPN6merkle5TreeTILm32EXadL_ZNS1_L15sha256_compressERKNS1_5HashTILm32EEES6_RS4_EEE4NodeESt6vectorISA_SaISA_EEEEbRKNS_17__normal_iteratorIT_T0_EESK_
FN:1241,1244,_ZN9__gnu_cxxneIPhSt6vectorIhSaIhEEEEbRKNS_17__normal_iteratorIT_T0_EESA_
FN:1321,1329,_ZN9__gnu_cxxmiIPKPN6merkle5TreeTILm32EXadL_ZNS1_L15sha256_compressERKNS1_5HashTILm32EEES6_RS4_EEE4NodeEPSA_St6vectorISA_SaISA_EEEEDTmicldtfp_4baseEcldtfp0_4baseEERKNS_17__normal_iteratorIT_T1_EERKNSI_IT0_SK_EE
FN:1334,1337,_ZN9__gnu_cxxmiIPKPN6merkle5TreeTILm32EXadL_ZNS1_L15sha256_compressERKNS1_5HashTILm32EEES6_RS4_EEE4NodeESt6vectorISA_SaISA_EEEENS_17__normal_iteratorIT_T0_E15difference_typeERKSJ_SM_
FN:1334,1337,_ZN9__gnu_cxxmiIPN6merkle5HashTILm32EEESt6vectorIS3_SaIS3_EEEENS_17__normal_iteratorIT_T0_E15difference_typeERKSB_SE_
FN:1334,1337,_ZN9__gnu_cxxmiIPN6merkle5TreeTILm32EXadL_ZNS1_L15sha256_compressERKNS1_5HashTILm32EEES6_RS4_EEEUt_ESt6vectorIS9_SaIS9_EEEENS_17__normal_iteratorIT_T0_E15difference_typeERKSH_SK_
FN:1334,1337,_ZN9__gnu_cxxmiIPPN6merkle5TreeTILm32EXadL_ZNS1_L15sha256_compressERKNS1_5HashTILm32EEES6_RS4_EEE4NodeESt6vectorISA_SaISA_EEEENS_17__normal_iteratorIT_T0_E15difference_typeERKSI_SL_
FN:1334,1337,_ZN9__gnu_cxxmiIPhSt6vectorIhSaIhEEEENS_17__normal_iteratorIT_T0_E15difference_typeERKS8_SB_
FN:1357,1359,_ZSt12__niter_baseIPKPN6merkle5TreeTILm32EXadL_ZNS0_L15sha256_compressERKNS0_5HashTILm32EEES5_RS3_EEE4NodeESt6vectorIS9_SaIS9_EEET_N9__gnu_cxx17__normal_iteratorISF_T0_EE
FN:1357,1359,_ZSt12__niter_baseIPPN6merkle5TreeTILm32EXadL_ZNS0_L15sha256_compressERKNS0_5HashTILm32EEES5_RS3_EEE4NodeESt6vectorIS9_SaIS9_EEET_N9__gnu_cxx17__normal_iteratorISE_T0_EE
FN:195,198,_ZNSt16reverse_iteratorISt14_List_iteratorIN6merkle5PathTILm32EXadL_ZNS1_L15sha256_compressERKNS1_5HashTILm32EEES6_RS4_EEEUt0_EEEC2ESA_
FN:204,207,_ZNSt16reverse_iteratorISt14_List_iteratorIN6merkle5PathTILm32EXadL_ZNS1_L15sha256_compressERKNS1_5HashTILm32EEES6_RS4_EEEUt0_EEEC2ERKSB_
FN:248,250,_ZNKSt16reverse_iteratorISt14_List_iteratorIN6merkle5PathTILm32EXadL_ZNS1_L15sha256_compressERKNS1_5HashTILm32EEES6_RS4_EEEUt0_EEE4baseEv
FN:264,268,_ZNKSt16reverse_iteratorISt14_List_iteratorIN6merkle5PathTILm32EXadL_ZNS1_L15sha256_compressERKNS1_5HashTILm32EEES6_RS4_EEEUt0_EEEdeEv
FN:277,288,_ZNKSt16reverse_iteratorISt14_List_iteratorIN6merkle5PathTILm32EXadL_ZNS1_L15sha256_compressERKNS1_5HashTILm32EEES6_RS4_EEEUt0_EEEptEv
FN:308,313,_ZNSt16reverse_iteratorISt14_List_iteratorIN6merkle5PathTILm32EXadL_ZNS1_L15sha256_compressERKNS1_5HashTILm32EEES6_RS4_EEEUt0_EEEppEi
FN:430,431,_ZNSt16reverse_iteratorISt14_List_iteratorIN6merkle5PathTILm32EXadL_ZNS1_L15sha256_compressERKNS1_5HashTILm32EEES6_RS4_EEEUt0_EEE13_S_to_pointerISA_EEPS9_T_
FN:448,450,_ZSteqISt14_List_iteratorIN6merkle5PathTILm32EXadL_ZNS1_L15sha256_compressERKNS1_5HashTILm32EEES6_RS4_EEEUt0_EEEbRKSt16reverse_iteratorIT_ESF_
FN:462,464,_ZStneISt14_List_iteratorIN6merkle5PathTILm32EXadL_ZNS1_L15sha256_compressERKNS1_5HashTILm32EEES6_RS4_EEEUt0_EEEbRKSt16reverse_iteratorIT_ESF_
FNDA:5099,_ZN9__gnu_cxx17__normal_iteratorIPKPN6merkle5TreeTILm32EXadL_ZNS1_L15sha256_compressERKNS1_5HashTILm32EEES6_RS4_EEE4NodeESt6vectorISA_SaISA_EEEC2Ev
FNDA:24835330,_ZN9__gnu_cxx17__normal_iteratorIPKN6merkle5TreeTILm32EXadL_ZNS1_L15sha256_compressERKNS1_5HashTILm32EEES6_RS4_EEEUt_ESt6vectorIS9_SaIS9_EEEC2ERKSB_
FNDA:23237667,_ZN9__gnu_cxx17__normal_iteratorIPKPN6merkle5TreeTILm32EXadL_ZNS1_L15sha256_compressERKNS1_5HashTILm32EEES6_RS4_EEE4NodeESt6vectorISA_SaISA_EEEC2ERKSC_
FNDA:12972,_ZN9__gnu_cxx17__normal_iteratorIPN6merkle5HashTILm32EEESt6vectorIS3_SaIS3_EEEC2ERKS4_
FNDA:73532056,_ZN9__gnu_cxx17__normal_iteratorIPN6merkle5TreeTILm32EXadL_ZNS1_L15sha256_compressERKNS1_5HashTILm32EEES6_RS4_EEEUt_ESt6vectorIS9_SaIS9_EEEC2ERKSA_
FNDA:59703468,_ZN9__gnu_cxx17__normal_iteratorIPPN6merkle5TreeTILm32EXadL_ZNS1_L15sha256_compressERKNS1_5HashTILm32EEES6_RS4_EEE4NodeESt6vectorISA_SaISA_EEEC2ERKSB_
FNDA:154504,_ZN9__gnu_cxx17__normal_iteratorIPhSt6vectorIhSaIhEEEC2ERKS1_
FNDA:176163,_ZN9__gnu_cxx17__normal_iteratorIPKPN6merkle5TreeTILm32EXadL_ZNS1_L15sha256_compressERKNS1_5HashTILm32EEES6_RS4_EEE4NodeESt6vectorISA_SaISA_EEEC2IPSA_vEERKNS0_IT_SF_EE
FNDA:219698,_ZNK9__gnu_cxx17__normal_iteratorIPKPN6merkle5TreeTILm32EXadL_ZNS1_L15sha256_compressERKNS1_5HashTILm32EEES6_RS4_EEE4NodeESt6vectorISA_SaISA_EEEdeEv
FNDA:4288816,_ZNK9__gnu_cxx17__normal_iteratorIPN6merkle5HashTILm32EEESt6vectorIS3_SaIS3_EEEdeEv
FNDA:36763767,_ZNK9__gnu_cxx17__normal_iteratorIPN6merkle5TreeTILm32EXadL_ZNS1_L15sha256_compressERKNS1_5HashTILm32EEES6_RS4_EEEUt_ESt6vectorIS9_SaIS9_EEEdeEv
FNDA:33958667,_ZNK9__gnu_cxx17__normal_iteratorIPPN6merkle5TreeTILm32EXadL_ZNS1_L15sha256_compressERKNS1_5HashTILm32EEES6_RS4_EEE4NodeESt6vectorISA_SaISA_EEEdeEv
FNDA:61041,_ZNK9__gnu_cxx17__normal_iteratorIPhSt6vectorIhSaIhEEEdeEv
FNDA:219698,_ZN9__gnu_cxx17__normal_iteratorIPKPN6merkle5TreeTILm32EXadL_ZNS1_L15sha256_compressERKNS1_5HashTILm32EEES6_RS4_EEE4NodeESt6vectorISA_SaISA_EEEppEv
FNDA:4288816,_ZN9__gnu_cxx17__normal_iteratorIPN6merkle5HashTILm32EEESt6vectorIS3_SaIS3_EEEppEv
FNDA:4716021,_ZN9__gnu_cxx17__normal_iteratorIPPN6merkle5TreeTILm32EXadL_ZNS1_L15sha256_compressERKNS1_5HashTILm32EEES6_RS4_EEE4NodeESt6vectorISA_SaISA_EEEppEv
FNDA:368,_ZN9__gnu_cxx17__normal_iteratorIPhSt6vectorIhSaIhEEEppEv
FNDA:346299,_ZNK9__gnu_cxx17__normal_iteratorIPPN6merkle5TreeTILm32EXadL_ZNS1_L15sha256_compressERKNS1_5HashTILm32EEES6_RS4_EEE4NodeESt6vectorISA_SaISA_EEEplEl
FNDA:36763767,_ZNK9__gnu_cxx17__normal_iteratorIPN6merkle5TreeTILm32EXadL_ZNS1_L15sha256_compressERKNS1_5HashTILm32EEES6_RS4_EEEUt_ESt6vectorIS9_SaIS9_EEEmiEl
FNDA:29237547,_ZNK9__gnu_cxx17__normal_iteratorIPPN6merkle5TreeTILm32EXadL_ZNS1_L15sha256_compressERKNS1_5HashTILm32EEES6_RS4_EEE4NodeESt6vectorISA_SaISA_EEEmiEl
FNDA:60673,_ZNK9__gnu_cxx17__normal_iteratorIPhSt6vectorIhSaIhEEEmiEl
FNDA:24835330,_ZNK9__gnu_cxx17__normal_iteratorIPKN6merkle5TreeTILm32EXadL_ZNS1_L15sha256_compressERKNS1_5HashTILm32EEES6_RS4_EEEUt_ESt6vectorIS9_SaIS9_EEE4baseEv
FNDA:23959618,_ZNK9__gnu_cxx17__normal_iteratorIPKPN6merkle5TreeTILm32EXadL_ZNS1_L15sha256_compressERKNS1_5HashTILm32EEES6_RS4_EEE4NodeESt6vectorISA_SaISA_EEE4baseEv
FNDA:8602932,_ZNK9__gnu_cxx17__normal_iteratorIPN6merkle5HashTILm32EEESt6vectorIS3_SaIS3_EEE4baseEv
FNDA:9044,_ZNK9__gnu_cxx17__normal_iteratorIPN6merkle5TreeTILm32EXadL_ZNS1_L15sha256_compressERKNS1_5HashTILm32EEES6_RS4_EEEUt_ESt6vectorIS9_SaIS9_EEE4baseEv
FNDA:10998906,_ZNK9__gnu_cxx17__normal_iteratorIPPN6merkle5TreeTILm32EXadL_ZNS1_L15sha256_compressERKNS1_5HashTILm32EEES6_RS4_EEE4NodeESt6vectorISA_SaISA_EEE4baseEv
FNDA:67050,_ZNK9__gnu_cxx17__normal_iteratorIPhSt6vectorIhSaIhEEE4baseEv
FNDA:5099,_ZN9__gnu_cxxeqIPKPN6merkle5TreeTILm32EXadL_ZNS1_L15sha256_compressERKNS1_5HashTILm32EEES6_RS4_EEE4NodeEPSA_St6vectorISA_SaISA_EEEEbRKNS_17__normal_iteratorIT_T1_EERKNSH_IT0_SJ_EE
FNDA:12417665,_ZN9__gnu_cxxeqIPKN6merkle5TreeTILm32EXadL_ZNS1_L15sha256_compressERKNS1_5HashTILm32EEES6_RS4_EEEUt_ESt6vectorIS9_SaIS9_EEEEbRKNS_17__normal_iteratorIT_T0_EESK_
FNDA:11570805,_ZN9__gnu_cxxeqIPKPN6merkle5TreeTILm32EXadL_ZNS1_L15sha256_compressERKNS1_5HashTILm32EEES6_RS4_EEE4NodeESt6vectorISA_SaISA_EEEEbRKNS_17__normal_iteratorIT_T0_EESL_
FNDA:226240,_ZN9__gnu_cxxneIPKPN6merkle5TreeTILm32EXadL_ZNS1_L15sha256_compressERKNS1_5HashTILm32EEES6_RS4_EEE4NodeESt6vectorISA_SaISA_EEEEbRKNS_17__normal_iteratorIT_T0_EESL_
FNDA:4289138,_ZN9__gnu_cxxneIPN6merkle5HashTILm32EEESt6vectorIS3_SaIS3_EEEEbRKNS_17__normal_iteratorIT_T0_EESD_
FNDA:5010181,_ZN9__gnu_cxxneIPPN6merkle5TreeTILm32EXadL_ZNS1_L15sha256_compressERKNS1_5HashTILm32EEES6_RS4_EEE4NodeESt6vectorISA_SaISA_EEEEbRKNS_17__normal_iteratorIT_T0_EESK_
FNDA:369,_ZN9__gnu_cxxneIPhSt6vectorIhSaIhEEEEbRKNS_17__normal_iteratorIT_T0_EESA_
FNDA:6027,_ZN9__gnu_cxxmiIPKPN6merkle5TreeTILm32EXadL_ZNS1_L15sha256_compressERKNS1_5HashTILm32EEES6_RS4_EEE4NodeEPSA_St6vectorISA_SaISA_EEEEDTmicldtfp_4baseEcldtfp0_4baseEERKNS_17__normal_iteratorIT_T1_EERKNSI_IT0_SK_EE
FNDA:176163,_ZN9__gnu_cxxmiIPKPN6merkle5TreeTILm32EXadL_ZNS1_L15sha256_compressERKNS1_5HashTILm32EEES6_RS4_EEE4NodeESt6vectorISA_SaISA_EEEENS_17__normal_iteratorIT_T0_E15difference_typeERKSJ_SM_
FNDA:6164,_ZN9__gnu_cxxmiIPN6merkle5HashTILm32EEESt6vectorIS3_SaIS3_EEEENS_17__normal_iteratorIT_T0_E15difference_typeERKSB_SE_
FNDA:2261,_ZN9__gnu_cxxmiIPN6merkle5TreeTILm32EXadL_ZNS1_L15sha256_compressERKNS1_5HashTILm32EEES6_RS4_EEEUt_ESt6vectorIS9_SaIS9_EEEENS_17__normal_iteratorIT_T0_E15difference_typeERKSH_SK_
FNDA:132738,_ZN9__gnu_cxxmiIPPN6merkle5TreeTILm32EXadL_ZNS1_L15sha256_compressERKNS1_5HashTILm32EEES6_RS4_EEE4NodeESt6vectorISA_SaISA_EEEENS_17__normal_iteratorIT_T0_E15difference_typeERKSI_SL_
FNDA:16578,_ZN9__gnu_cxxmiIPhSt6vectorIhSaIhEEEENS_17__normal_iteratorIT_T0_E15difference_typeERKS8_SB_
FNDA:2076,_ZSt12__niter_baseIPKPN6merkle5TreeTILm32EXadL_ZNS0_L15sha256_compressERKNS0_5HashTILm32EEES5_RS3_EEE4NodeESt6vectorIS9_SaIS9_EEET_N9__gnu_cxx17__normal_iteratorISF_T0_EE
FNDA:340272,_ZSt12__niter_baseIPPN6merkle5TreeTILm32EXadL_ZNS0_L15sha256_compressERKNS0_5HashTILm32EEES5_RS3_EEE4NodeESt6vectorIS9_SaIS9_EEET_N9__gnu_cxx17__normal_iteratorISE_T0_EE
FNDA:46171,_ZNSt16reverse_iteratorISt14_List_iteratorIN6merkle5PathTILm32EXadL_ZNS1_L15sha256_compressERKNS1_5HashTILm32EEES6_RS4_EEEUt0_EEEC2ESA_
FNDA:31697,_ZNSt16reverse_iteratorISt14_List_iteratorIN6merkle5PathTILm32EXadL_ZNS1_L15sha256_compressERKNS1_5HashTILm32EEES6_RS4_EEEUt0_EEEC2ERKSB_
FNDA:77868,_ZNKSt16reverse_iteratorISt14_List_iteratorIN6merkle5PathTILm32EXadL_ZNS1_L15sha256_compressERKNS1_5HashTILm32EEES6_RS4_EEEUt0_EEE4baseEv
FNDA:23228,_ZNKSt16reverse_iteratorISt14_List_iteratorIN6merkle5PathTILm32EXadL_ZNS1_L15sha256_compressERKNS1_5HashTILm32EEES6_RS4_EEEUt0_EEEdeEv
FNDA:8469,_ZNKSt16reverse_iteratorISt14_List_iteratorIN6merkle5PathTILm32EXadL_ZNS1_L15sha256_compressERKNS1_5HashTILm32EEES6_RS4_EEEUt0_EEEptEv
FNDA:31697,_ZNSt16reverse_iteratorISt14_List_iteratorIN6merkle5PathTILm32EXadL_ZNS1_L15sha256_compressERKNS1_5HashTILm32EEES6_RS4_EEEUt0_EEEppEi
FNDA:8469,_ZNSt16reverse_iteratorISt14_List_iteratorIN6merkle5PathTILm32EXadL_ZNS1_L15sha256_compressERKNS1_5HashTILm32EEES6_RS4_EEEUt0_EEE13_S_to_pointerISA_EEPS9_T_
FNDA:38934,_ZSteqISt14_List_iteratorIN6merkle5PathTILm32EXadL_ZNS1_L15sha256_compressERKNS1_5HashTILm32EEES6_RS4_EEEUt0_EEEbRKSt16reverse_iteratorIT_ESF_
FNDA:38934,_ZStneISt14_List_iteratorIN6merkle5PathTILm32EXadL_ZNS1_L15sha256_compressERKNS1_5HashTILm32EEES6_RS4_EEEUt0_EEEbRKSt16reverse_iteratorIT_ESF_
FNF:51
FNH:51
DA:195,46171
DA:197,46171
DA:198,46171
DA:204,31697
DA:206,31697
DA:207,31697
DA:248,77868
DA:250,77868
DA:264,23228
DA:266,23228
DA:267,23228
DA:277,8469
DA:285,8469
DA:286,8469
DA:287,8469
DA:308,31697
DA:310,31697
DA:311,31697
DA:312,31697
DA:430,8469
DA:431,8469
DA:448,38934
DA:450,38934
DA:462,38934
DA:464,38934
DA:1072,5099
DA:1073,5099
DA:1076,181475997
DA:1077,181475997
DA:1083,176163
DA:1094,176163
DA:1099,75291989
DA:1100,75291989
DA:1109,9224903
DA:1111,9224903
DA:1112,9224903
DA:1147,346299
DA:1148,346299
DA:1157,66061987
DA:1158,66061987
DA:1162,68472880
DA:1163,68472880
DA:1217,5099
DA:1220,5099
DA:1225,23988470
DA:1228,23988470
DA:1241,9525928
DA:1244,9525928
DA:1321,6027
DA:1329,6027
DA:1334,333904
DA:1337,333904
DA:1357,342348
DA:1359,342348
LF:54
LH:54
end_of_record
TN:
SF:/usr/include/c++/13/bits/stl_iterator_base_funcs.h
FNF:0
FNH:0
DA:106,0
DA:151,0
DA:152,0
LF:3
LH:0
end_of_record
TN:
SF:/usr/include/c++/13/bits/stl_iterator_base_types.h
FNF:0
FNH:0
DA:240,0
LF:1
LH:0
end_of_record
TN:
SF:/usr/include/c++/13/bits/stl_list.h
FN:1022,1023,_ZNSt7__cxx114listIN6merkle5PathTILm32EXadL_ZNS1_L15sha256_compressERKNS1_5HashTILm32EEES6_RS4_EEEUt0_ESaIS9_EE5beginEv
FN:1032,1033,_ZNKSt7__cxx114listIN6merkle5PathTILm32EXadL_ZNS1_L15sha256_compressERKNS1_5HashTILm32EEES6_RS4_EEEUt0_ESaIS9_EE5beginEv
FN:1042,1043,_ZNSt7__cxx114listIN6merkle5PathTILm32EXadL_ZNS1_L15sha256_compressERKNS1_5HashTILm32EEES6_RS4_EEEUt0_ESaIS9_EE3endEv
FN:1052,1053,_ZNKSt7__cxx114listIN6merkle5PathTILm32EXadL_ZNS1_L15sha256_compressERKNS1_5HashTILm32EEES6_RS4_EEEUt0_ESaIS9_EE3endEv
FN:1062,1063,_ZNSt7__cxx114listIN6merkle5PathTILm32EXadL_ZNS1_L15sha256_compressERKNS1_5HashTILm32EEES6_RS4_EEEUt0_ESaIS9_EE6rbeginEv
FN:1082,1083,_ZNSt7__cxx114listIN6merkle5PathTILm32EXadL_ZNS1_L15sha256_compressERKNS1_5HashTILm32EEES6_RS4_EEEUt0_ESaIS9_EE4rendEv
FN:110,111,_ZNSt8__detail17_List_node_headerC2Ev
FN:114,127,_ZNSt8__detail17_List_node_headerC2EOS0_
FN:1143,1144,_ZNKSt7__cxx114listIN6merkle5PathTILm32EXadL_ZNS1_L15sha256_compressERKNS1_5HashTILm32EEES6_RS4_EEEUt0_ESaIS9_EE5emptyEv
FN:1149,1150,_ZNKSt7__cxx114listIN6merkle5PathTILm32EXadL_ZNS1_L15sha256_compressERKNS1_5HashTILm32EEES6_RS4_EEEUt0_ESaIS9_EE4sizeEv
FN:1260,1261,_ZNSt7__cxx114listIN6merkle5PathTILm32EXadL_ZNS1_L15sha256_compressERKNS1_5HashTILm32EEES6_RS4_EEEUt0_ESaIS9_EE10push_frontEOS9_
FN:1291,1292,_ZNSt7__cxx114listIN6merkle5PathTILm32EXadL_ZNS1_L15sha256_compressERKNS1_5HashTILm32EEES6_RS4_EEEUt0_ESaIS9_EE9pop_frontEv
FN:1310,1311,_ZNSt7__cxx114listIN6merkle5PathTILm32EXadL_ZNS1_L15sha256_compressERKNS1_5HashTILm32EEES6_RS4_EEEUt0_ESaIS9_EE9push_backEOS9_
FN:150,156,_ZNSt8__detail17_List_node_header7_M_initEv
FN:159,159,_ZNSt8__detail17_List_node_header7_M_baseEv
FN:2003,2008,_ZNSt7__cxx114listIN6merkle5PathTILm32EXadL_ZNS1_L15sha256_compressERKNS1_5HashTILm32EEES6_RS4_EEEUt0_ESaIS9_EE9_M_insertIJS9_EEEvSt14_List_iteratorIS9_EDpOT_
FN:2013,2025,_ZNSt7__cxx114listIN6merkle5PathTILm32EXadL_ZNS1_L15sha256_compressERKNS1_5HashTILm32EEES6_RS4_EEEUt0_ESaIS9_EE8_M_eraseESt14_List_iteratorIS9_E
FN:238,238,_ZNSt10_List_nodeIN6merkle5PathTILm32EXadL_ZNS0_L15sha256_compressERKNS0_5HashTILm32EEES5_RS3_EEEUt0_EE9_M_valptrEv
FN:239,239,_ZNKSt10_List_nodeIN6merkle5PathTILm32EXadL_ZNS0_L15sha256_compressERKNS0_5HashTILm32EEES5_RS3_EEEUt0_EE9_M_valptrEv
FN:268,269,_ZNSt14_List_iteratorIN6merkle5PathTILm32EXadL_ZNS0_L15sha256_compressERKNS0_5HashTILm32EEES5_RS3_EEEUt0_EEC2EPNSt8__detail15_List_node_baseE
FN:278,279,_ZNKSt14_List_iteratorIN6merkle5PathTILm32EXadL_ZNS0_L15sha256_compressERKNS0_5HashTILm32EEES5_RS3_EEEUt0_EEdeEv
FN:283,284,_ZNKSt14_List_iteratorIN6merkle5PathTILm32EXadL_ZNS0_L15sha256_compressERKNS0_5HashTILm32EEES5_RS3_EEEUt0_EEptEv
FN:302,306,_ZNSt14_List_iteratorIN6merkle5PathTILm32EXadL_ZNS0_L15sha256_compressERKNS0_5HashTILm32EEES5_RS3_EEEUt0_EEmmEv
FN:318,319,_ZSteqRKSt14_List_iteratorIN6merkle5PathTILm32EXadL_ZNS0_L15sha256_compressERKNS0_5HashTILm32EEES5_RS3_EEEUt0_EESB_
FN:354,356,_ZNSt20_List_const_iteratorIN6merkle5PathTILm32EXadL_ZNS0_L15sha256_compressERKNS0_5HashTILm32EEES5_RS3_EEEUt0_EEC2EPKNSt8__detail15_List_node_baseE
FN:368,369,_ZNKSt20_List_const_iteratorIN6merkle5PathTILm32EXadL_ZNS0_L15sha256_compressERKNS0_5HashTILm32EEES5_RS3_EEEUt0_EEdeEv
FN:373,374,_ZNKSt20_List_const_iteratorIN6merkle5PathTILm32EXadL_ZNS0_L15sha256_compressERKNS0_5HashTILm32EEES5_RS3_EEEUt0_EEptEv
FN:377,381,_ZNSt20_List_const_iteratorIN6merkle5PathTILm32EXadL_ZNS0_L15sha256_compressERKNS0_5HashTILm32EEES5_RS3_EEEUt0_EEppEv
FN:384,389,_ZNSt20_List_const_iteratorIN6merkle5PathTILm32EXadL_ZNS0_L15sha256_compressERKNS0_5HashTILm32EEES5_RS3_EEEUt0_EEppEi
FN:414,415,_ZStneRKSt20_List_const_iteratorIN6merkle5PathTILm32EXadL_ZNS0_L15sha256_compressERKNS0_5HashTILm32EEES5_RS3_EEEUt0_EESB_
FN:455,458,_ZNSt7__cxx1110_List_baseIN6merkle5PathTILm32EXadL_ZNS1_L15sha256_compressERKNS1_5HashTILm32EEES6_RS4_EEEUt0_ESaIS9_EE10_List_implC2Ev
FN:465,465,_ZNSt7__cxx1110_List_baseIN6merkle5PathTILm32EXadL_ZNS1_L15sha256_compressERKNS1_5HashTILm32EEES6_RS4_EEEUt0_ESaIS9_EE10_List_implC2EOSC_
FN:480,480,_ZNKSt7__cxx1110_List_baseIN6merkle5PathTILm32EXadL_ZNS1_L15sha256_compressERKNS1_5HashTILm32EEES6_RS4_EEEUt0_ESaIS9_EE11_M_get_sizeEv
FN:484,484,_ZNSt7__cxx1110_List_baseIN6merkle5PathTILm32EXadL_ZNS1_L15sha256_compressERKNS1_5HashTILm32EEES6_RS4_EEEUt0_ESaIS9_EE11_M_inc_sizeEm
FN:486,486,_ZNSt7__cxx1110_List_baseIN6merkle5PathTILm32EXadL_ZNS1_L15sha256_compressERKNS1_5HashTILm32EEES6_RS4_EEEUt0_ESaIS9_EE11_M_dec_sizeEm
FN:517,518,_ZNSt7__cxx1110_List_baseIN6merkle5PathTILm32EXadL_ZNS1_L15sha256_compressERKNS1_5HashTILm32EEES6_RS4_EEEUt0_ESaIS9_EE11_M_get_nodeEv
FN:521,522,_ZNSt7__cxx1110_List_baseIN6merkle5PathTILm32EXadL_ZNS1_L15sha256_compressERKNS1_5HashTILm32EEES6_RS4_EEEUt0_ESaIS9_EE11_M_put_nodeEPSt10_List_nodeIS9_E
FN:528,529,_ZNSt7__cxx1110_List_baseIN6merkle5PathTILm32EXadL_ZNS1_L15sha256_compressERKNS1_5HashTILm32EEES6_RS4_EEEUt0_ESaIS9_EE21_M_get_Node_allocatorEv
FN:536,536,_ZNSt7__cxx1110_List_baseIN6merkle5PathTILm32EXadL_ZNS1_L15sha256_compressERKNS1_5HashTILm32EEES6_RS4_EEEUt0_ESaIS9_EEC2Ev
FN:546,546,_ZNSt7__cxx1110_List_baseIN6merkle5PathTILm32EXadL_ZNS1_L15sha256_compressERKNS1_5HashTILm32EEES6_RS4_EEEUt0_ESaIS9_EEC2EOSB_
FN:574,575,_ZNSt7__cxx1110_List_baseIN6merkle5PathTILm32EXadL_ZNS1_L15sha256_compressERKNS1_5HashTILm32EEES6_RS4_EEEUt0_ESaIS9_EED2Ev
FN:708,717,_ZNSt7__cxx114listIN6merkle5PathTILm32EXadL_ZNS1_L15sha256_compressERKNS1_5HashTILm32EEES6_RS4_EEEUt0_ESaIS9_EE14_M_create_nodeIJS9_EEEPSt10_List_nodeIS9_EDpOT_
FN:727,728,_ZNKSt7__cxx114listIN6merkle5PathTILm32EXadL_ZNS1_L15sha256_compressERKNS1_5HashTILm32EEES6_RS4_EEEUt0_ESaIS9_EE13_M_node_countEv
FN:749,749,_ZNSt7__cxx114listIN6merkle5PathTILm32EXadL_ZNS1_L15sha256_compressERKNS1_5HashTILm32EEES6_RS4_EEEUt0_ESaIS9_EEC2Ev
FN:824,824,_ZNSt7__cxx114listIN6merkle5PathTILm32EXadL_ZNS1_L15sha256_compressERKNS1_5HashTILm32EEES6_RS4_EEEUt0_ESaIS9_EEC2EOSB_
FN:903,903,_ZNSt7__cxx114listIN6merkle5PathTILm32EXadL_ZNS1_L15sha256_compressERKNS1_5HashTILm32EEES6_RS4_EEEUt0_ESaIS9_EED2Ev
FNDA:268336,_ZNSt7__cxx114listIN6merkle5PathTILm32EXadL_ZNS1_L15sha256_compressERKNS1_5HashTILm32EEES6_RS4_EEEUt0_ESaIS9_EE5beginEv
FNDA:30178,_ZNKSt7__cxx114listIN6merkle5PathTILm32EXadL_ZNS1_L15sha256_compressERKNS1_5HashTILm32EEES6_RS4_EEEUt0_ESaIS9_EE5beginEv
FNDA:69191,_ZNSt7__cxx114listIN6merkle5PathTILm32EXadL_ZNS1_L15sha256_compressERKNS1_5HashTILm32EEES6_RS4_EEEUt0_ESaIS9_EE3endEv
FNDA:78873,_ZNKSt7__cxx114listIN6merkle5PathTILm32EXadL_ZNS1_L15sha256_compressERKNS1_5HashTILm32EEES6_RS4_EEEUt0_ESaIS9_EE3endEv
FNDA:7237,_ZNSt7__cxx114listIN6merkle5PathTILm32EXadL_ZNS1_L15sha256_compressERKNS1_5HashTILm32EEES6_RS4_EEEUt0_ESaIS9_EE6rbeginEv
FNDA:38934,_ZNSt7__cxx114listIN6merkle5PathTILm32EXadL_ZNS1_L15sha256_compressERKNS1_5HashTILm32EEES6_RS4_EEEUt0_ESaIS9_EE4rendEv
FNDA:29600,_ZNSt8__detail17_List_node_headerC2Ev
FNDA:22259,_ZNSt8__detail17_List_node_headerC2EOS0_
FNDA:4790,_ZNKSt7__cxx114listIN6merkle5PathTILm32EXadL_ZNS1_L15sha256_compressERKNS1_5HashTILm32EEES6_RS4_EEEUt0_ESaIS9_EE5emptyEv
FNDA:7147,_ZNKSt7__cxx114listIN6merkle5PathTILm32EXadL_ZNS1_L15sha256_compressERKNS1_5HashTILm32EEES6_RS4_EEEUt0_ESaIS9_EE4sizeEv
FNDA:224716,_ZNSt7__cxx114listIN6merkle5PathTILm32EXadL_ZNS1_L15sha256_compressERKNS1_5HashTILm32EEES6_RS4_EEEUt0_ESaIS9_EE10push_frontEOS9_
FNDA:4686,_ZNSt7__cxx114listIN6merkle5PathTILm32EXadL_ZNS1_L15sha256_compressERKNS1_5HashTILm32EEES6_RS4_EEEUt0_ESaIS9_EE9pop_frontEv
FNDA:61954,_ZNSt7__cxx114listIN6merkle5PathTILm32EXadL_ZNS1_L15sha256_compressERKNS1_5HashTILm32EEES6_RS4_EEEUt0_ESaIS9_EE9push_backEOS9_
FNDA:51859,_ZNSt8__detail17_List_node_header7_M_initEv
FNDA:66777,_ZNSt8__detail17_List_node_header7_M_baseEv
FNDA:286670,_ZNSt7__cxx114listIN6merkle5PathTILm32EXadL_ZNS1_L15sha256_compressERKNS1_5HashTILm32EEES6_RS4_EEEUt0_ESaIS9_EE9_M_insertIJS9_EEEvSt14_List_iteratorIS9_EDpOT_
FNDA:4686,_ZNSt7__cxx114listIN6merkle5PathTILm32EXadL_ZNS1_L15sha256_compressERKNS1_5HashTILm32EEES6_RS4_EEEUt0_ESaIS9_EE8_M_eraseESt14_List_iteratorIS9_E
FNDA:605037,_ZNSt10_List_nodeIN6merkle5PathTILm32EXadL_ZNS0_L15sha256_compressERKNS0_5HashTILm32EEES5_RS3_EEEUt0_EE9_M_valptrEv
FNDA:397133,_ZNKSt10_List_nodeIN6merkle5PathTILm32EXadL_ZNS0_L15sha256_compressERKNS0_5HashTILm32EEES5_RS3_EEEUt0_EE9_M_valptrEv
FNDA:337527,_ZNSt14_List_iteratorIN6merkle5PathTILm32EXadL_ZNS0_L15sha256_compressERKNS0_5HashTILm32EEES5_RS3_EEEUt0_EEC2EPNSt8__detail15_List_node_baseE
FNDA:23228,_ZNKSt14_List_iteratorIN6merkle5PathTILm32EXadL_ZNS0_L15sha256_compressERKNS0_5HashTILm32EEES5_RS3_EEEUt0_EEdeEv
FNDA:8469,_ZNKSt14_List_iteratorIN6merkle5PathTILm32EXadL_ZNS0_L15sha256_compressERKNS0_5HashTILm32EEES5_RS3_EEEUt0_EEptEv
FNDA:63394,_ZNSt14_List_iteratorIN6merkle5PathTILm32EXadL_ZNS0_L15sha256_compressERKNS0_5HashTILm32EEES5_RS3_EEEUt0_EEmmEv
FNDA:38934,_ZSteqRKSt14_List_iteratorIN6merkle5PathTILm32EXadL_ZNS0_L15sha256_compressERKNS0_5HashTILm32EEES5_RS3_EEEUt0_EESB_
FNDA:109051,_ZNSt20_List_const_iteratorIN6merkle5PathTILm32EXadL_ZNS0_L15sha256_compressERKNS0_5HashTILm32EEES5_RS3_EEEUt0_EEC2EPKNSt8__detail15_List_node_baseE
FNDA:294849,_ZNKSt20_List_const_iteratorIN6merkle5PathTILm32EXadL_ZNS0_L15sha256_compressERKNS0_5HashTILm32EEES5_RS3_EEEUt0_EEdeEv
FNDA:102284,_ZNKSt20_List_const_iteratorIN6merkle5PathTILm32EXadL_ZNS0_L15sha256_compressERKNS0_5HashTILm32EEES5_RS3_EEEUt0_EEptEv
FNDA:294849,_ZNSt20_List_const_iteratorIN6merkle5PathTILm32EXadL_ZNS0_L15sha256_compressERKNS0_5HashTILm32EEES5_RS3_EEEUt0_EEppEv
FNDA:51142,_ZNSt20_List_const_iteratorIN6merkle5PathTILm32EXadL_ZNS0_L15sha256_compressERKNS0_5HashTILm32EEES5_RS3_EEEUt0_EEppEi
FNDA:373722,_ZStneRKSt20_List_const_iteratorIN6merkle5PathTILm32EXadL_ZNS0_L15sha256_compressERKNS0_5HashTILm32EEES5_RS3_EEEUt0_EESB_
FNDA:29600,_ZNSt7__cxx1110_List_baseIN6merkle5PathTILm32EXadL_ZNS1_L15sha256_compressERKNS1_5HashTILm32EEES6_RS4_EEEUt0_ESaIS9_EE10_List_implC2Ev
FNDA:22259,_ZNSt7__cxx1110_List_baseIN6merkle5PathTILm32EXadL_ZNS1_L15sha256_compressERKNS1_5HashTILm32EEES6_RS4_EEEUt0_ESaIS9_EE10_List_implC2EOSC_
FNDA:7147,_ZNKSt7__cxx1110_List_baseIN6merkle5PathTILm32EXadL_ZNS1_L15sha256_compressERKNS1_5HashTILm32EEES6_RS4_EEEUt0_ESaIS9_EE11_M_get_sizeEv
FNDA:286670,_ZNSt7__cxx1110_List_baseIN6merkle5PathTILm32EXadL_ZNS1_L15sha256_compressERKNS1_5HashTILm32EEES6_RS4_EEEUt0_ESaIS9_EE11_M_inc_sizeEm
FNDA:4686,_ZNSt7__cxx1110_List_baseIN6merkle5PathTILm32EXadL_ZNS1_L15sha256_compressERKNS1_5HashTILm32EEES6_RS4_EEEUt0_ESaIS9_EE11_M_dec_sizeEm
FNDA:286670,_ZNSt7__cxx1110_List_baseIN6merkle5PathTILm32EXadL_ZNS1_L15sha256_compressERKNS1_5HashTILm32EEES6_RS4_EEEUt0_ESaIS9_EE11_M_get_nodeEv
FNDA:286670,_ZNSt7__cxx1110_List_baseIN6merkle5PathTILm32EXadL_ZNS1_L15sha256_compressERKNS1_5HashTILm32EEES6_RS4_EEEUt0_ESaIS9_EE11_M_put_nodeEPSt10_List_nodeIS9_E
FNDA:573340,_ZNSt7__cxx1110_List_baseIN6merkle5PathTILm32EXadL_ZNS1_L15sha256_compressERKNS1_5HashTILm32EEES6_RS4_EEEUt0_ESaIS9_EE21_M_get_Node_allocatorEv
FNDA:29600,_ZNSt7__cxx1110_List_baseIN6merkle5PathTILm32EXadL_ZNS1_L15sha256_compressERKNS1_5HashTILm32EEES6_RS4_EEEUt0_ESaIS9_EEC2Ev
FNDA:22259,_ZNSt7__cxx1110_List_baseIN6merkle5PathTILm32EXadL_ZNS1_L15sha256_compressERKNS1_5HashTILm32EEES6_RS4_EEEUt0_ESaIS9_EEC2EOSB_
FNDA:51859,_ZNSt7__cxx1110_List_baseIN6merkle5PathTILm32EXadL_ZNS1_L15sha256_compressERKNS1_5HashTILm32EEES6_RS4_EEEUt0_ESaIS9_EED2Ev
FNDA:286670,_ZNSt7__cxx114listIN6merkle5PathTILm32EXadL_ZNS1_L15sha256_compressERKNS1_5HashTILm32EEES6_RS4_EEEUt0_ESaIS9_EE14_M_create_nodeIJS9_EEEPSt10_List_nodeIS9_EDpOT_
FNDA:7147,_ZNKSt7__cxx114listIN6merkle5PathTILm32EXadL_ZNS1_L15sha256_compressERKNS1_5HashTILm32EEES6_RS4_EEEUt0_ESaIS9_EE13_M_node_countEv
FNDA:29600,_ZNSt7__cxx114listIN6merkle5PathTILm32EXadL_ZNS1_L15sha256_compressERKNS1_5HashTILm32EEES6_RS4_EEEUt0_ESaIS9_EEC2Ev
FNDA:22259,_ZNSt7__cxx114listIN6merkle5PathTILm32EXadL_ZNS1_L15sha256_compressERKNS1_5HashTILm32EEES6_RS4_EEEUt0_ESaIS9_EEC2EOSB_
FNDA:51859,_ZNSt7__cxx114listIN6merkle5PathTILm32EXadL_ZNS1_L15sha256_compressERKNS1_5HashTILm32EEES6_RS4_EEEUt0_ESaIS9_EED2Ev
FNF:46
FNH:46
DA:110,29600
DA:111,29600
DA:114,22259
DA:115,22259
DA:117,22259
DA:120,22259
DA:121,0
DA:124,22259
DA:125,22259
DA:127,22259
DA:150,51859
DA:152,51859
DA:154,51859
DA:156,51859
DA:159,66777
DA:238,605037
DA:239,397133
DA:268,337527
DA:269,337527
DA:278,23228
DA:279,23228
DA:283,8469
DA:284,8469
DA:302,63394
DA:304,63394
DA:305,63394
DA:318,38934
DA:319,38934
DA:354,109051
DA:356,109051
DA:368,294849
DA:369,294849
DA:373,102284
DA:374,102284
DA:377,294849
DA:379,294849
DA:380,294849
DA:384,51142
DA:386,51142
DA:387,51142
DA:388,51142
DA:414,373722
DA:415,373722
DA:455,29600
DA:457,29600
DA:458,29600
DA:465,44518
DA:480,7147
DA:484,286670
DA:486,4686
DA:517,286670
DA:518,573340
DA:521,286670
DA:522,286670
DA:528,573340
DA:529,573340
DA:536,29600
DA:546,22259
DA:574,51859
DA:575,51859
DA:708,286670
DA:710,286670
DA:711,286670
DA:712,286670
DA:713,286670
DA:715,286670
DA:716,286670
DA:717,286670
DA:727,7147
DA:728,7147
DA:749,29600
DA:824,22259
DA:903,51859
DA:1022,268336
DA:1023,268336
DA:1032,30178
DA:1033,30178
DA:1042,69191
DA:1043,69191
DA:1052,78873
DA:1053,78873
DA:1062,7237
DA:1063,7237
DA:1082,38934
DA:1083,38934
DA:1143,4790
DA:1144,4790
DA:1149,7147
DA:1150,7147
DA:1260,224716
DA:1261,224716
DA:1291,4686
DA:1292,4686
DA:1310,61954
DA:1311,61954
DA:2003,286670
DA:2005,286670
DA:2006,286670
DA:2007,286670
DA:2008,286670
DA:2013,4686
DA:2015,4686
DA:2016,4686
DA:2017,4686
DA:2019,4686
DA:2024,4686
DA:2025,4686
LF:107
LH:106
end_of_record
TN:
SF:/usr/include/c++/13/bits/stl_map.h
FN:1192,1193,_ZNKSt3mapImN6merkle5HashTILm32EEESt4lessImESaISt4pairIKmS2_EEE8key_compEv
FN:1308,1309,_ZNSt3mapImN6merkle5HashTILm32EEESt4lessImESaISt4pairIKmS2_EEE11lower_boundERS6_
FN:197,197,_ZNSt3mapImN6merkle5HashTILm32EEESt4lessImESaISt4pairIKmS2_EEEC2Ev
FN:314,314,_ZNSt3mapImN6merkle5HashTILm32EEESt4lessImESaISt4pairIKmS2_EEED2Ev
FN:368,369,_ZNSt3mapImN6merkle5HashTILm32EEESt4lessImESaISt4pairIKmS2_EEE5beginEv
FN:386,387,_ZNSt3mapImN6merkle5HashTILm32EEESt4lessImESaISt4pairIKmS2_EEE3endEv
FN:504,520,_ZNSt3mapImN6merkle5HashTILm32EEESt4lessImESaISt4pairIKmS2_EEEixERS6_
FNDA:0,_ZNKSt3mapImN6merkle5HashTILm32EEESt4lessImESaISt4pairIKmS2_EEE8key_compEv
FNDA:13786,_ZNSt3mapImN6merkle5HashTILm32EEESt4lessImESaISt4pairIKmS2_EEE11lower_boundERS6_
FNDA:127,_ZNSt3mapImN6merkle5HashTILm32EEESt4lessImESaISt4pairIKmS2_EEEC2Ev
FNDA:127,_ZNSt3mapImN6merkle5HashTILm32EEESt4lessImESaISt4pairIKmS2_EEED2Ev
FNDA:127,_ZNSt3mapImN6merkle5HashTILm32EEESt4lessImESaISt4pairIKmS2_EEE5beginEv
FNDA:13913,_ZNSt3mapImN6merkle5HashTILm32EEESt4lessImESaISt4pairIKmS2_EEE3endEv
FNDA:13786,_ZNSt3mapImN6merkle5HashTILm32EEESt4lessImESaISt4pairIKmS2_EEEixERS6_
FNF:7
FNH:6
DA:197,127
DA:314,127
DA:368,127
DA:369,127
DA:386,13913
DA:387,13913
DA:504,13786
DA:509,13786
DA:511,13786
DA:513,13786
DA:514,13786
DA:515,13786
DA:519,27572
DA:1192,0
DA:1193,0
DA:1308,13786
DA:1309,13786
LF:17
LH:15
end_of_record
TN:
SF:/usr/include/c++/13/bits/stl_pair.h
FN:558,559,_ZNSt4pairIPSt18_Rb_tree_node_baseS1_EC2IS1_S1_Lb1EEERKS1_S5_
FN:687,689,_ZNSt4pairIPSt18_Rb_tree_node_baseS1_EC2IRPSt13_Rb_tree_nodeIS_IKmN6merkle5HashTILm32EEEEERS1_Lb1EEEOT_OT0_
FN:687,689,_ZNSt4pairIPSt18_Rb_tree_node_baseS1_EC2IRS1_S4_Lb1EEEOT_OT0_
FNDA:13659,_ZNSt4pairIPSt18_Rb_tree_node_baseS1_EC2IS1_S1_Lb1EEERKS1_S5_
FNDA:127,_ZNSt4pairIPSt18_Rb_tree_node_baseS1_EC2IRPSt13_Rb_tree_nodeIS_IKmN6merkle5HashTILm32EEEEERS1_Lb1EEEOT_OT0_
FNDA:0,_ZNSt4pairIPSt18_Rb_tree_node_baseS1_EC2IRS1_S4_Lb1EEEOT_OT0_
FNF:3
FNH:2
DA:558,13659
DA:559,13659
DA:687,127
DA:688,127
DA:689,127
LF:5
LH:5
end_of_record
TN:
SF:/usr/include/c++/13/bits/stl_tree.h
FN:1005,1006,_ZNSt8_Rb_treeImSt4pairIKmN6merkle5HashTILm32EEEESt10_Select1stIS5_ESt4lessImESaIS5_EE3endEv
FN:1033,1034,_ZNKSt8_Rb_treeImSt4pairIKmN6merkle5HashTILm32EEEESt10_Select1stIS5_ESt4lessImESaIS5_EE4sizeEv
FN:1270,1271,_ZNSt8_Rb_treeImSt4pairIKmN6merkle5HashTILm32EEEESt10_Select1stIS5_ESt4lessImESaIS5_EE11lower_boundERS1_
FN:146,150,_ZNSt20_Rb_tree_key_compareISt4lessImEEC2Ev
FN:1635,1638,_ZNSt8_Rb_treeImSt4pairIKmN6merkle5HashTILm32EEEESt10_Select1stIS5_ESt4lessImESaIS5_EE10_Auto_nodeC2IJRKSt21piecewise_construct_tSt5tupleIJRS1_EESH_IJEEEEERSB_DpOT_
FN:1640,1644,_ZNSt8_Rb_treeImSt4pairIKmN6merkle5HashTILm32EEEESt10_Select1stIS5_ESt4lessImESaIS5_EE10_Auto_nodeD2Ev
FN:1651,1652,_ZNKSt8_Rb_treeImSt4pairIKmN6merkle5HashTILm32EEEESt10_Select1stIS5_ESt4lessImESaIS5_EE10_Auto_node6_M_keyEv
FN:1655,1660,_ZNSt8_Rb_treeImSt4pairIKmN6merkle5HashTILm32EEEESt10_Select1stIS5_ESt4lessImESaIS5_EE10_Auto_node9_M_insertES0_IPSt18_Rb_tree_node_baseSE_E
FN:173,177,_ZNSt15_Rb_tree_headerC2Ev
FN:1930,1941,_ZNSt8_Rb_treeImSt4pairIKmN6merkle5HashTILm32EEEESt10_Select1stIS5_ESt4lessImESaIS5_EE8_M_eraseEPSt13_Rb_tree_nodeIS5_E
FN:1947,1957,_ZNSt8_Rb_treeImSt4pairIKmN6merkle5HashTILm32EEEESt10_Select1stIS5_ESt4lessImESaIS5_EE14_M_lower_boundEPSt13_Rb_tree_nodeIS5_EPSt18_Rb_tree_node_baseRS1_
FN:206,212,_ZNSt15_Rb_tree_header8_M_resetEv
FN:2108,2132,_ZNSt8_Rb_treeImSt4pairIKmN6merkle5HashTILm32EEEESt10_Select1stIS5_ESt4lessImESaIS5_EE24_M_get_insert_unique_posERS1_
FN:2210,2261,_ZNSt8_Rb_treeImSt4pairIKmN6merkle5HashTILm32EEEESt10_Select1stIS5_ESt4lessImESaIS5_EE29_M_get_insert_hint_unique_posESt23_Rb_tree_const_iteratorIS5_ERS1_
FN:234,235,_ZNSt13_Rb_tree_nodeISt4pairIKmN6merkle5HashTILm32EEEEE9_M_valptrEv
FN:2377,2389,_ZNSt8_Rb_treeImSt4pairIKmN6merkle5HashTILm32EEEESt10_Select1stIS5_ESt4lessImESaIS5_EE14_M_insert_nodeEPSt18_Rb_tree_node_baseSD_PSt13_Rb_tree_nodeIS5_E
FN:238,239,_ZNKSt13_Rb_tree_nodeISt4pairIKmN6merkle5HashTILm32EEEEE9_M_valptrEv
FN:2458,2467,_ZNSt8_Rb_treeImSt4pairIKmN6merkle5HashTILm32EEEESt10_Select1stIS5_ESt4lessImESaIS5_EE22_M_emplace_hint_uniqueIJRKSt21piecewise_construct_tSt5tupleIJRS1_EESG_IJEEEEESt17_Rb_tree_iteratorIS5_ESt23_Rb_tree_const_iteratorIS5_EDpOT_
FN:273,274,_ZNSt17_Rb_tree_iteratorISt4pairIKmN6merkle5HashTILm32EEEEEC2EPSt18_Rb_tree_node_base
FN:277,278,_ZNKSt17_Rb_tree_iteratorISt4pairIKmN6merkle5HashTILm32EEEEEdeEv
FN:285,289,_ZNSt17_Rb_tree_iteratorISt4pairIKmN6merkle5HashTILm32EEEEEppEv
FN:300,304,_ZNSt17_Rb_tree_iteratorISt4pairIKmN6merkle5HashTILm32EEEEEmmEv
FN:315,316,_ZSteqRKSt17_Rb_tree_iteratorISt4pairIKmN6merkle5HashTILm32EEEEES8_
FN:320,321,_ZStneRKSt17_Rb_tree_iteratorISt4pairIKmN6merkle5HashTILm32EEEEES8_
FN:350,351,_ZNSt23_Rb_tree_const_iteratorISt4pairIKmN6merkle5HashTILm32EEEEEC2ERKSt17_Rb_tree_iteratorIS5_E
FN:354,355,_ZNKSt23_Rb_tree_const_iteratorISt4pairIKmN6merkle5HashTILm32EEEEE13_M_const_castEv
FN:549,550,_ZNSt8_Rb_treeImSt4pairIKmN6merkle5HashTILm32EEEESt10_Select1stIS5_ESt4lessImESaIS5_EE21_M_get_Node_allocatorEv
FN:562,563,_ZNSt8_Rb_treeImSt4pairIKmN6merkle5HashTILm32EEEESt10_Select1stIS5_ESt4lessImESaIS5_EE11_M_get_nodeEv
FN:566,567,_ZNSt8_Rb_treeImSt4pairIKmN6merkle5HashTILm32EEEESt10_Select1stIS5_ESt4lessImESaIS5_EE11_M_put_nodeEPSt13_Rb_tree_nodeIS5_E
FN:592,607,_ZNSt8_Rb_treeImSt4pairIKmN6merkle5HashTILm32EEEESt10_Select1stIS5_ESt4lessImESaIS5_EE17_M_construct_nodeIJRKSt21piecewise_construct_tSt5tupleIJRS1_EESG_IJEEEEEvPSt13_Rb_tree_nodeIS5_EDpOT_
FN:611,616,_ZNSt8_Rb_treeImSt4pairIKmN6merkle5HashTILm32EEEESt10_Select1stIS5_ESt4lessImESaIS5_EE14_M_create_nodeIJRKSt21piecewise_construct_tSt5tupleIJRS1_EESG_IJEEEEEPSt13_Rb_tree_nodeIS5_EDpOT_
FN:620,628,_ZNSt8_Rb_treeImSt4pairIKmN6merkle5HashTILm32EEEESt10_Select1stIS5_ESt4lessImESaIS5_EE15_M_destroy_nodeEPSt13_Rb_tree_nodeIS5_E
FN:631,635,_ZNSt8_Rb_treeImSt4pairIKmN6merkle5HashTILm32EEEESt10_Select1stIS5_ESt4lessImESaIS5_EE12_M_drop_nodeEPSt13_Rb_tree_nodeIS5_E
FN:669,674,_ZNSt8_Rb_treeImSt4pairIKmN6merkle5HashTILm32EEEESt10_Select1stIS5_ESt4lessImESaIS5_EE13_Rb_tree_implIS9_Lb1EEC2Ev
FN:720,721,_ZNSt8_Rb_treeImSt4pairIKmN6merkle5HashTILm32EEEESt10_Select1stIS5_ESt4lessImESaIS5_EE11_M_leftmostEv
FN:728,729,_ZNSt8_Rb_treeImSt4pairIKmN6merkle5HashTILm32EEEESt10_Select1stIS5_ESt4lessImESaIS5_EE12_M_rightmostEv
FN:736,737,_ZNKSt8_Rb_treeImSt4pairIKmN6merkle5HashTILm32EEEESt10_Select1stIS5_ESt4lessImESaIS5_EE9_M_mbeginEv
FN:740,741,_ZNSt8_Rb_treeImSt4pairIKmN6merkle5HashTILm32EEEESt10_Select1stIS5_ESt4lessImESaIS5_EE8_M_beginEv
FN:751,752,_ZNSt8_Rb_treeImSt4pairIKmN6merkle5HashTILm32EEEESt10_Select1stIS5_ESt4lessImESaIS5_EE6_M_endEv
FN:759,778,_ZNSt8_Rb_treeImSt4pairIKmN6merkle5HashTILm32EEEESt10_Select1stIS5_ESt4lessImESaIS5_EE6_S_keyEPKSt13_Rb_tree_nodeIS5_E
FN:781,782,_ZNSt8_Rb_treeImSt4pairIKmN6merkle5HashTILm32EEEESt10_Select1stIS5_ESt4lessImESaIS5_EE7_S_leftEPSt18_Rb_tree_node_base
FN:789,790,_ZNSt8_Rb_treeImSt4pairIKmN6merkle5HashTILm32EEEESt10_Select1stIS5_ESt4lessImESaIS5_EE8_S_rightEPSt18_Rb_tree_node_base
FN:797,798,_ZNSt8_Rb_treeImSt4pairIKmN6merkle5HashTILm32EEEESt10_Select1stIS5_ESt4lessImESaIS5_EE6_S_keyEPKSt18_Rb_tree_node_base
FN:930,930,_ZNSt8_Rb_treeImSt4pairIKmN6merkle5HashTILm32EEEESt10_Select1stIS5_ESt4lessImESaIS5_EEC2Ev
FN:985,986,_ZNSt8_Rb_treeImSt4pairIKmN6merkle5HashTILm32EEEESt10_Select1stIS5_ESt4lessImESaIS5_EED2Ev
FN:993,994,_ZNKSt8_Rb_treeImSt4pairIKmN6merkle5HashTILm32EEEESt10_Select1stIS5_ESt4lessImESaIS5_EE8key_compEv
FN:997,998,_ZNSt8_Rb_treeImSt4pairIKmN6merkle5HashTILm32EEEESt10_Select1stIS5_ESt4lessImESaIS5_EE5beginEv
FNDA:13913,_ZNSt8_Rb_treeImSt4pairIKmN6merkle5HashTILm32EEEESt10_Select1stIS5_ESt4lessImESaIS5_EE3endEv
FNDA:13786,_ZNKSt8_Rb_treeImSt4pairIKmN6merkle5HashTILm32EEEESt10_Select1stIS5_ESt4lessImESaIS5_EE4sizeEv
FNDA:13786,_ZNSt8_Rb_treeImSt4pairIKmN6merkle5HashTILm32EEEESt10_Select1stIS5_ESt4lessImESaIS5_EE11lower_boundERS1_
FNDA:127,_ZNSt20_Rb_tree_key_compareISt4lessImEEC2Ev
FNDA:13786,_ZNSt8_Rb_treeImSt4pairIKmN6merkle5HashTILm32EEEESt10_Select1stIS5_ESt4lessImESaIS5_EE10_Auto_nodeC2IJRKSt21piecewise_construct_tSt5tupleIJRS1_EESH_IJEEEEERSB_DpOT_
FNDA:13786,_ZNSt8_Rb_treeImSt4pairIKmN6merkle5HashTILm32EEEESt10_Select1stIS5_ESt4lessImESaIS5_EE10_Auto_nodeD2Ev
FNDA:13786,_ZNKSt8_Rb_treeImSt4pairIKmN6merkle5HashTILm32EEEESt10_Select1stIS5_ESt4lessImESaIS5_EE10_Auto_node6_M_keyEv
FNDA:13786,_ZNSt8_Rb_treeImSt4pairIKmN6merkle5HashTILm32EEEESt10_Select1stIS5_ESt4lessImESaIS5_EE10_Auto_node9_M_insertES0_IPSt18_Rb_tree_node_baseSE_E
FNDA:127,_ZNSt15_Rb_tree_headerC2Ev
FNDA:13913,_ZNSt8_Rb_treeImSt4pairIKmN6merkle5HashTILm32EEEESt10_Select1stIS5_ESt4lessImESaIS5_EE8_M_eraseEPSt13_Rb_tree_nodeIS5_E
FNDA:13786,_ZNSt8_Rb_treeImSt4pairIKmN6merkle5HashTILm32EEEESt10_Select1stIS5_ESt4lessImESaIS5_EE14_M_lower_boundEPSt13_Rb_tree_nodeIS5_EPSt18_Rb_tree_node_baseRS1_
FNDA:127,_ZNSt15_Rb_tree_header8_M_resetEv
FNDA:127,_ZNSt8_Rb_treeImSt4pairIKmN6merkle5HashTILm32EEEESt10_Select1stIS5_ESt4lessImESaIS5_EE24_M_get_insert_unique_posERS1_
FNDA:13786,_ZNSt8_Rb_treeImSt4pairIKmN6merkle5HashTILm32EEEESt10_Select1stIS5_ESt4lessImESaIS5_EE29_M_get_insert_hint_unique_posESt23_Rb_tree_const_iteratorIS5_ERS1_
FNDA:55144,_ZNSt13_Rb_tree_nodeISt4pairIKmN6merkle5HashTILm32EEEEE9_M_valptrEv
FNDA:13786,_ZNSt8_Rb_treeImSt4pairIKmN6merkle5HashTILm32EEEESt10_Select1stIS5_ESt4lessImESaIS5_EE14_M_insert_nodeEPSt18_Rb_tree_node_baseSD_PSt13_Rb_tree_nodeIS5_E
FNDA:186418,_ZNKSt13_Rb_tree_nodeISt4pairIKmN6merkle5HashTILm32EEEEE9_M_valptrEv
FNDA:13786,_ZNSt8_Rb_treeImSt4pairIKmN6merkle5HashTILm32EEEESt10_Select1stIS5_ESt4lessImESaIS5_EE22_M_emplace_hint_uniqueIJRKSt21piecewise_construct_tSt5tupleIJRS1_EESG_IJEEEEESt17_Rb_tree_iteratorIS5_ESt23_Rb_tree_const_iteratorIS5_EDpOT_
FNDA:55652,_ZNSt17_Rb_tree_iteratorISt4pairIKmN6merkle5HashTILm32EEEEEC2EPSt18_Rb_tree_node_base
FNDA:27572,_ZNKSt17_Rb_tree_iteratorISt4pairIKmN6merkle5HashTILm32EEEEEdeEv
FNDA:13786,_ZNSt17_Rb_tree_iteratorISt4pairIKmN6merkle5HashTILm32EEEEEppEv
FNDA:0,_ZNSt17_Rb_tree_iteratorISt4pairIKmN6merkle5HashTILm32EEEEEmmEv
FNDA:13913,_ZSteqRKSt17_Rb_tree_iteratorISt4pairIKmN6merkle5HashTILm32EEEEES8_
FNDA:13913,_ZStneRKSt17_Rb_tree_iteratorISt4pairIKmN6merkle5HashTILm32EEEEES8_
FNDA:13786,_ZNSt23_Rb_tree_const_iteratorISt4pairIKmN6merkle5HashTILm32EEEEEC2ERKSt17_Rb_tree_iteratorIS5_E
FNDA:13786,_ZNKSt23_Rb_tree_const_iteratorISt4pairIKmN6merkle5HashTILm32EEEEE13_M_const_castEv
FNDA:55144,_ZNSt8_Rb_treeImSt4pairIKmN6merkle5HashTILm32EEEESt10_Select1stIS5_ESt4lessImESaIS5_EE21_M_get_Node_allocatorEv
FNDA:13786,_ZNSt8_Rb_treeImSt4pairIKmN6merkle5HashTILm32EEEESt10_Select1stIS5_ESt4lessImESaIS5_EE11_M_get_nodeEv
FNDA:13786,_ZNSt8_Rb_treeImSt4pairIKmN6merkle5HashTILm32EEEESt10_Select1stIS5_ESt4lessImESaIS5_EE11_M_put_nodeEPSt13_Rb_tree_nodeIS5_E
FNDA:13786,_ZNSt8_Rb_treeImSt4pairIKmN6merkle5HashTILm32EEEESt10_Select1stIS5_ESt4lessImESaIS5_EE17_M_construct_nodeIJRKSt21piecewise_construct_tSt5tupleIJRS1_EESG_IJEEEEEvPSt13_Rb_tree_nodeIS5_EDpOT_
FNDA:13786,_ZNSt8_Rb_treeImSt4pairIKmN6merkle5HashTILm32EEEESt10_Select1stIS5_ESt4lessImESaIS5_EE14_M_create_nodeIJRKSt21piecewise_construct_tSt5tupleIJRS1_EESG_IJEEEEEPSt13_Rb_tree_nodeIS5_EDpOT_
FNDA:13786,_ZNSt8_Rb_treeImSt4pairIKmN6merkle5HashTILm32EEEESt10_Select1stIS5_ESt4lessImESaIS5_EE15_M_destroy_nodeEPSt13_Rb_tree_nodeIS5_E
FNDA:13786,_ZNSt8_Rb_treeImSt4pairIKmN6merkle5HashTILm32EEEESt10_Select1stIS5_ESt4lessImESaIS5_EE12_M_drop_nodeEPSt13_Rb_tree_nodeIS5_E
FNDA:127,_ZNSt8_Rb_treeImSt4pairIKmN6merkle5HashTILm32EEEESt10_Select1stIS5_ESt4lessImESaIS5_EE13_Rb_tree_implIS9_Lb1EEC2Ev
FNDA:0,_ZNSt8_Rb_treeImSt4pairIKmN6merkle5HashTILm32EEEESt10_Select1stIS5_ESt4lessImESaIS5_EE11_M_leftmostEv
FNDA:27318,_ZNSt8_Rb_treeImSt4pairIKmN6merkle5HashTILm32EEEESt10_Select1stIS5_ESt4lessImESaIS5_EE12_M_rightmostEv
FNDA:14040,_ZNKSt8_Rb_treeImSt4pairIKmN6merkle5HashTILm32EEEESt10_Select1stIS5_ESt4lessImESaIS5_EE9_M_mbeginEv
FNDA:14040,_ZNSt8_Rb_treeImSt4pairIKmN6merkle5HashTILm32EEEESt10_Select1stIS5_ESt4lessImESaIS5_EE8_M_beginEv
FNDA:41485,_ZNSt8_Rb_treeImSt4pairIKmN6merkle5HashTILm32EEEESt10_Select1stIS5_ESt4lessImESaIS5_EE6_M_endEv
FNDA:186418,_ZNSt8_Rb_treeImSt4pairIKmN6merkle5HashTILm32EEEESt10_Select1stIS5_ESt4lessImESaIS5_EE6_S_keyEPKSt13_Rb_tree_nodeIS5_E
FNDA:13786,_ZNSt8_Rb_treeImSt4pairIKmN6merkle5HashTILm32EEEESt10_Select1stIS5_ESt4lessImESaIS5_EE7_S_leftEPSt18_Rb_tree_node_base
FNDA:145441,_ZNSt8_Rb_treeImSt4pairIKmN6merkle5HashTILm32EEEESt10_Select1stIS5_ESt4lessImESaIS5_EE8_S_rightEPSt18_Rb_tree_node_base
FNDA:27318,_ZNSt8_Rb_treeImSt4pairIKmN6merkle5HashTILm32EEEESt10_Select1stIS5_ESt4lessImESaIS5_EE6_S_keyEPKSt18_Rb_tree_node_base
FNDA:127,_ZNSt8_Rb_treeImSt4pairIKmN6merkle5HashTILm32EEEESt10_Select1stIS5_ESt4lessImESaIS5_EEC2Ev
FNDA:127,_ZNSt8_Rb_treeImSt4pairIKmN6merkle5HashTILm32EEEESt10_Select1stIS5_ESt4lessImESaIS5_EED2Ev
FNDA:0,_ZNKSt8_Rb_treeImSt4pairIKmN6merkle5HashTILm32EEEESt10_Select1stIS5_ESt4lessImESaIS5_EE8key_compEv
FNDA:254,_ZNSt8_Rb_treeImSt4pairIKmN6merkle5HashTILm32EEEESt10_Select1stIS5_ESt4lessImESaIS5_EE5beginEv
FNF:47
FNH:44
DA:146,127
DA:150,127
DA:173,127
DA:174,127
DA:175,127
DA:176,127
DA:177,127
DA:206,127
DA:208,127
DA:209,127
DA:210,127
DA:211,127
DA:212,127
DA:234,55144
DA:235,55144
DA:238,186418
DA:239,186418
DA:273,55652
DA:274,55652
DA:277,27572
DA:278,27572
DA:285,13786
DA:287,13786
DA:288,13786
DA:300,0
DA:302,0
DA:303,0
DA:315,13913
DA:316,13913
DA:320,13913
DA:321,13913
DA:350,13786
DA:351,13786
DA:354,13786
DA:355,13786
DA:549,55144
DA:550,55144
DA:562,13786
DA:563,27572
DA:566,13786
DA:567,13786
DA:592,13786
DA:596,13786
DA:597,13786
DA:601,0
DA:603,0
DA:604,0
DA:605,0
DA:607,13786
DA:611,13786
DA:613,13786
DA:614,13786
DA:615,13786
DA:620,13786
DA:625,13786
DA:626,13786
DA:628,13786
DA:631,13786
DA:633,13786
DA:634,13786
DA:635,13786
DA:669,127
DA:673,127
DA:674,127
DA:720,0
DA:721,0
DA:728,27318
DA:729,27318
DA:736,14040
DA:737,14040
DA:740,14040
DA:741,14040
DA:751,41485
DA:752,41485
DA:759,186418
DA:777,186418
DA:781,13786
DA:782,13786
DA:789,145441
DA:790,145441
DA:797,27318
DA:798,27318
DA:930,127
DA:985,127
DA:986,127
DA:993,0
DA:994,0
DA:997,254
DA:998,254
DA:1005,13913
DA:1006,13913
DA:1033,13786
DA:1034,13786
DA:1270,13786
DA:1271,13786
DA:1635,13786
DA:1636,13786
DA:1637,13786
DA:1638,13786
DA:1640,13786
DA:1642,13786
DA:1643,0
DA:1644,13786
DA:1651,13786
DA:1652,13786
DA:1655,13786
DA:1657,13786
DA:1658,13786
DA:1659,13786
DA:1930,13913
DA:1934,27699
DA:1936,13786
DA:1937,13786
DA:1938,13786
DA:1939,13786
DA:1941,13913
DA:1947,13786
DA:1951,145441
DA:1952,131655
DA:1953,0
DA:1955,131655
DA:1956,13786
DA:2108,127
DA:2112,127
DA:2113,127
DA:2114,127
DA:2115,127
DA:2117,0
DA:2118,0
DA:2119,0
DA:2121,127
DA:2122,127
DA:2124,127
DA:2125,127
DA:2127,0
DA:2129,0
DA:2130,0
DA:2131,0
DA:2210,13786
DA:2214,13786
DA:2218,13786
DA:2220,13786
DA:2221,13786
DA:2222,13659
DA:2224,127
DA:2226,0
DA:2229,0
DA:2230,0
DA:2231,0
DA:2232,0
DA:2234,0
DA:2235,0
DA:2237,0
DA:2240,0
DA:2242,0
DA:2245,0
DA:2246,0
DA:2247,0
DA:2248,0
DA:2250,0
DA:2251,0
DA:2253,0
DA:2256,0
DA:2260,0
DA:2377,13786
DA:2381,13786
DA:2382,27572
DA:2385,13786
DA:2386,13786
DA:2387,13786
DA:2388,13786
DA:2458,13786
DA:2462,13786
DA:2463,13786
DA:2464,13786
DA:2465,13786
DA:2466,0
DA:2467,13786
LF:178
LH:138
end_of_record
TN:
SF:/usr/include/c++/13/bits/stl_uninitialized.h
FN:1069,1079,_ZSt19__relocate_object_aIN6merkle5HashTILm32EEES2_SaIS2_EEvPT_PT0_RT1_
FN:1091,1108,_ZSt14__relocate_a_1IPN6merkle5HashTILm32EEES3_SaIS2_EET0_T_S6_S5_RT1_
FN:1114,1134,_ZSt14__relocate_a_1IN6merkle5TreeTILm32EXadL_ZNS0_L15sha256_compressERKNS0_5HashTILm32EEES5_RS3_EEEUt_ES8_ENSt9enable_ifIXsrSt24__is_bitwise_relocatableIT_vE5valueEPSB_E4typeESD_SD_SD_RSaIT0_E
FN:1114,1134,_ZSt14__relocate_a_1IPN6merkle5TreeTILm32EXadL_ZNS0_L15sha256_compressERKNS0_5HashTILm32EEES5_RS3_EEE4NodeES9_ENSt9enable_ifIXsrSt24__is_bitwise_relocatableIT_vE5valueEPSC_E4typeESE_SE_SE_RSaIT0_E
FN:1114,1134,_ZSt14__relocate_a_1IhhENSt9enable_ifIXsrSt24__is_bitwise_relocatableIT_vE5valueEPS2_E4typeES4_S4_S4_RSaIT0_E
FN:1141,1150,_ZSt12__relocate_aIPN6merkle5HashTILm32EEES3_SaIS2_EET0_T_S6_S5_RT1_
FN:1141,1150,_ZSt12__relocate_aIPN6merkle5TreeTILm32EXadL_ZNS0_L15sha256_compressERKNS0_5HashTILm32EEES5_RS3_EEEUt_ES9_SaIS8_EET0_T_SC_SB_RT1_
FN:1141,1150,_ZSt12__relocate_aIPPN6merkle5TreeTILm32EXadL_ZNS0_L15sha256_compressERKNS0_5HashTILm32EEES5_RS3_EEE4NodeESA_SaIS9_EET0_T_SD_SC_RT1_
FN:1141,1150,_ZSt12__relocate_aIPhS0_SaIhEET0_T_S3_S2_RT1_
FN:145,147,_ZNSt20__uninitialized_copyILb1EE13__uninit_copyIN9__gnu_cxx17__normal_iteratorIPKPN6merkle5TreeTILm32EXadL_ZNS4_L15sha256_compressERKNS4_5HashTILm32EEES9_RS7_EEE4NodeESt6vectorISD_SaISD_EEEEPSD_EET0_T_SM_SL_
FN:163,186,_ZSt18uninitialized_copyIN9__gnu_cxx17__normal_iteratorIPKPN6merkle5TreeTILm32EXadL_ZNS2_L15sha256_compressERKNS2_5HashTILm32EEES7_RS5_EEE4NodeESt6vectorISB_SaISB_EEEEPSB_ET0_T_SK_SJ_
FN:366,374,_ZSt22__uninitialized_copy_aIN9__gnu_cxx17__normal_iteratorIPKPN6merkle5TreeTILm32EXadL_ZNS2_L15sha256_compressERKNS2_5HashTILm32EEES7_RS5_EEE4NodeESt6vectorISB_SaISB_EEEEPSB_SB_ET0_T_SK_SJ_RSaIT1_E
FN:660,671,_ZNSt27__uninitialized_default_n_1ILb1EE18__uninit_default_nIPPN6merkle5TreeTILm32EXadL_ZNS2_L15sha256_compressERKNS2_5HashTILm32EEES7_RS5_EEE4NodeEmEET_SD_T0_
FN:696,713,_ZSt25__uninitialized_default_nIPPN6merkle5TreeTILm32EXadL_ZNS0_L15sha256_compressERKNS0_5HashTILm32EEES5_RS3_EEE4NodeEmET_SB_T0_
FN:777,779,_ZSt27__uninitialized_default_n_aIPPN6merkle5TreeTILm32EXadL_ZNS0_L15sha256_compressERKNS0_5HashTILm32EEES5_RS3_EEE4NodeEmS9_ET_SB_T0_RSaIT1_E
FNDA:11459463,_ZSt19__relocate_object_aIN6merkle5HashTILm32EEES2_SaIS2_EEvPT_PT0_RT1_
FNDA:12328,_ZSt14__relocate_a_1IPN6merkle5HashTILm32EEES3_SaIS2_EET0_T_S6_S5_RT1_
FNDA:4522,_ZSt14__relocate_a_1IN6merkle5TreeTILm32EXadL_ZNS0_L15sha256_compressERKNS0_5HashTILm32EEES5_RS3_EEEUt_ES8_ENSt9enable_ifIXsrSt24__is_bitwise_relocatableIT_vE5valueEPSB_E4typeESD_SD_SD_RSaIT0_E
FNDA:101066,_ZSt14__relocate_a_1IPN6merkle5TreeTILm32EXadL_ZNS0_L15sha256_compressERKNS0_5HashTILm32EEES5_RS3_EEE4NodeES9_ENSt9enable_ifIXsrSt24__is_bitwise_relocatableIT_vE5valueEPSC_E4typeESE_SE_SE_RSaIT0_E
FNDA:38628,_ZSt14__relocate_a_1IhhENSt9enable_ifIXsrSt24__is_bitwise_relocatableIT_vE5valueEPS2_E4typeES4_S4_S4_RSaIT0_E
FNDA:12328,_ZSt12__relocate_aIPN6merkle5HashTILm32EEES3_SaIS2_EET0_T_S6_S5_RT1_
FNDA:4522,_ZSt12__relocate_aIPN6merkle5TreeTILm32EXadL_ZNS0_L15sha256_compressERKNS0_5HashTILm32EEES5_RS3_EEEUt_ES9_SaIS8_EET0_T_SC_SB_RT1_
FNDA:101066,_ZSt12__relocate_aIPPN6merkle5TreeTILm32EXadL_ZNS0_L15sha256_compressERKNS0_5HashTILm32EEES5_RS3_EEE4NodeESA_SaIS9_EET0_T_SD_SC_RT1_
FNDA:38628,_ZSt12__relocate_aIPhS0_SaIhEET0_T_S3_S2_RT1_
FNDA:1038,_ZNSt20__uninitialized_copyILb1EE13__uninit_copyIN9__gnu_cxx17__normal_iteratorIPKPN6merkle5TreeTILm32EXadL_ZNS4_L15sha256_compressERKNS4_5HashTILm32EEES9_RS7_EEE4NodeESt6vectorISD_SaISD_EEEEPSD_EET0_T_SM_SL_
FNDA:1038,_ZSt18uninitialized_copyIN9__gnu_cxx17__normal_iteratorIPKPN6merkle5TreeTILm32EXadL_ZNS2_L15sha256_compressERKNS2_5HashTILm32EEES7_RS5_EEE4NodeESt6vectorISB_SaISB_EEEEPSB_ET0_T_SK_SJ_
FNDA:1038,_ZSt22__uninitialized_copy_aIN9__gnu_cxx17__normal_iteratorIPKPN6merkle5TreeTILm32EXadL_ZNS2_L15sha256_compressERKNS2_5HashTILm32EEES7_RS5_EEE4NodeESt6vectorISB_SaISB_EEEEPSB_SB_ET0_T_SK_SJ_RSaIT1_E
FNDA:0,_ZNSt27__uninitialized_default_n_1ILb1EE18__uninit_default_nIPPN6merkle5TreeTILm32EXadL_ZNS2_L15sha256_compressERKNS2_5HashTILm32EEES7_RS5_EEE4NodeEmEET_SD_T0_
FNDA:0,_ZSt25__uninitialized_default_nIPPN6merkle5TreeTILm32EXadL_ZNS0_L15sha256_compressERKNS0_5HashTILm32EEES5_RS3_EEE4NodeEmET_SB_T0_
FNDA:0,_ZSt27__uninitialized_default_n_aIPPN6merkle5TreeTILm32EXadL_ZNS0_L15sha256_compressERKNS0_5HashTILm32EEES5_RS3_EEE4NodeEmS9_ET_SB_T0_RSaIT1_E
FNF:15
FNH:12
DA:145,1038
DA:147,1038
DA:163,1038
DA:174,1038
DA:181,1038
DA:185,1038
DA:366,1038
DA:373,1038
DA:660,0
DA:662,0
DA:665,0
DA:666,0
DA:667,0
DA:668,0
DA:670,0
DA:696,0
DA:707,0
DA:712,0
DA:777,0
DA:779,0
DA:1069,11459463
DA:1077,11459463
DA:1078,11459463
DA:1079,11459463
DA:1091,12328
DA:1103,12328
DA:1104,11471791
DA:1105,11459463
DA:1107,12328
DA:1114,144216
DA:1118,144216
DA:1119,144216
DA:1131,63181
DA:1133,144216
DA:1141,156544
DA:1147,156544
DA:1149,156544
LF:37
LH:25
end_of_record
TN:
SF:/usr/include/c++/13/bits/stl_vector.h
FN:1013,1019,_ZNSt6vectorIPN6merkle5TreeTILm32EXadL_ZNS0_L15sha256_compressERKNS0_5HashTILm32EEES5_RS3_EEE4NodeESaIS9_EE6resizeEm
FN:1078,1080,_ZNKSt6vectorIPN6merkle5TreeTILm32EXadL_ZNS0_L15sha256_compressERKNS0_5HashTILm32EEES5_RS3_EEE4NodeESaIS9_EE8capacityEv
FN:1078,1080,_ZNKSt6vectorIhSaIhEE8capacityEv
FN:1088,1089,_ZNKSt6vectorIN6merkle5TreeTILm32EXadL_ZNS0_L15sha256_compressERKNS0_5HashTILm32EEES5_RS3_EEEUt_ESaIS8_EE5emptyEv
FN:1088,1089,_ZNKSt6vectorIPN6merkle5TreeTILm32EXadL_ZNS0_L15sha256_compressERKNS0_5HashTILm32EEES5_RS3_EEE4NodeESaIS9_EE5emptyEv
FN:1126,1130,_ZNSt6vectorIN6merkle5HashTILm32EEESaIS2_EEixEm
FN:1126,1130,_ZNSt6vectorIPN6merkle5TreeTILm32EXadL_ZNS0_L15sha256_compressERKNS0_5HashTILm32EEES5_RS3_EEE4NodeESaIS9_EEixEm
FN:113,118,_ZNSt12_Vector_baseIPN6merkle5TreeTILm32EXadL_ZNS0_L15sha256_compressERKNS0_5HashTILm32EEES5_RS3_EEE4NodeESaIS9_EE17_Vector_impl_data12_M_copy_dataERKSC_
FN:1145,1149,_ZNKSt6vectorIPN6merkle5TreeTILm32EXadL_ZNS0_L15sha256_compressERKNS0_5HashTILm32EEES5_RS3_EEE4NodeESaIS9_EEixEm
FN:1145,1149,_ZNKSt6vectorIhSaIhEEixEm
FN:1155,1162,_ZNKSt6vectorIPN6merkle5TreeTILm32EXadL_ZNS0_L15sha256_compressERKNS0_5HashTILm32EEES5_RS3_EEE4NodeESaIS9_EE14_M_range_checkEm
FN:1155,1162,_ZNKSt6vectorIhSaIhEE14_M_range_checkEm
FN:1178,1182,_ZNSt6vectorIPN6merkle5TreeTILm32EXadL_ZNS0_L15sha256_compressERKNS0_5HashTILm32EEES5_RS3_EEE4NodeESaIS9_EE2atEm
FN:1197,1201,_ZNKSt6vectorIPN6merkle5TreeTILm32EXadL_ZNS0_L15sha256_compressERKNS0_5HashTILm32EEES5_RS3_EEE4NodeESaIS9_EE2atEm
FN:1197,1201,_ZNKSt6vectorIhSaIhEE2atEm
FN:122,130,_ZNSt12_Vector_baseIPN6merkle5TreeTILm32EXadL_ZNS0_L15sha256_compressERKNS0_5HashTILm32EEES5_RS3_EEE4NodeESaIS9_EE17_Vector_impl_data12_M_swap_dataERSC_
FN:1233,1237,_ZNSt6vectorIN6merkle5TreeTILm32EXadL_ZNS0_L15sha256_compressERKNS0_5HashTILm32EEES5_RS3_EEEUt_ESaIS8_EE4backEv
FN:1233,1237,_ZNSt6vectorIPN6merkle5TreeTILm32EXadL_ZNS0_L15sha256_compressERKNS0_5HashTILm32EEES5_RS3_EEE4NodeESaIS9_EE4backEv
FN:1233,1237,_ZNSt6vectorIhSaIhEE4backEv
FN:1265,1266,_ZNKSt6vectorIhSaIhEE4dataEv
FN:1281,1293,_ZNSt6vectorIN6merkle5HashTILm32EEESaIS2_EE9push_backERKS2_
FN:1281,1293,_ZNSt6vectorIPN6merkle5TreeTILm32EXadL_ZNS0_L15sha256_compressERKNS0_5HashTILm32EEES5_RS3_EEE4NodeESaIS9_EE9push_backERKS9_
FN:1281,1293,_ZNSt6vectorIhSaIhEE9push_backERKh
FN:1298,1299,_ZNSt6vectorIN6merkle5TreeTILm32EXadL_ZNS0_L15sha256_compressERKNS0_5HashTILm32EEES5_RS3_EEEUt_ESaIS8_EE9push_backEOS8_
FN:1298,1299,_ZNSt6vectorIPN6merkle5TreeTILm32EXadL_ZNS0_L15sha256_compressERKNS0_5HashTILm32EEES5_RS3_EEE4NodeESaIS9_EE9push_backEOS9_
FN:1298,1299,_ZNSt6vectorIhSaIhEE9push_backEOh
FN:1322,1328,_ZNSt6vectorIN6merkle5TreeTILm32EXadL_ZNS0_L15sha256_compressERKNS0_5HashTILm32EEES5_RS3_EEEUt_ESaIS8_EE8pop_backEv
FN:1322,1328,_ZNSt6vectorIPN6merkle5TreeTILm32EXadL_ZNS0_L15sha256_compressERKNS0_5HashTILm32EEES5_RS3_EEE4NodeESaIS9_EE8pop_backEv
FN:137,143,_ZNSt12_Vector_baseIN6merkle5HashTILm32EEESaIS2_EE12_Vector_implC2Ev
FN:137,143,_ZNSt12_Vector_baseIN6merkle5TreeTILm32EXadL_ZNS0_L15sha256_compressERKNS0_5HashTILm32EEES5_RS3_EEEUt_ESaIS8_EE12_Vector_implC2Ev
FN:137,143,_ZNSt12_Vector_baseIPN6merkle5TreeTILm32EXadL_ZNS0_L15sha256_compressERKNS0_5HashTILm32EEES5_RS3_EEE4NodeESaIS9_EE12_Vector_implC2Ev
FN:137,143,_ZNSt12_Vector_baseIhSaIhEE12_Vector_implC2Ev
FN:146,148,_ZNSt12_Vector_baseIPN6merkle5TreeTILm32EXadL_ZNS0_L15sha256_compressERKNS0_5HashTILm32EEES5_RS3_EEE4NodeESaIS9_EE12_Vector_implC2ERKSA_
FN:1562,1567,_ZNSt6vectorIPN6merkle5TreeTILm32EXadL_ZNS0_L15sha256_compressERKNS0_5HashTILm32EEES5_RS3_EEE4NodeESaIS9_EE5eraseEN9__gnu_cxx17__normal_iteratorIPKS9_SB_EESG_
FN:1586,1595,_ZNSt6vectorIPN6merkle5TreeTILm32EXadL_ZNS0_L15sha256_compressERKNS0_5HashTILm32EEES5_RS3_EEE4NodeESaIS9_EE4swapERSB_
FN:1605,1606,_ZNSt6vectorIN6merkle5TreeTILm32EXadL_ZNS0_L15sha256_compressERKNS0_5HashTILm32EEES5_RS3_EEEUt_ESaIS8_EE5clearEv
FN:1605,1606,_ZNSt6vectorIPN6merkle5TreeTILm32EXadL_ZNS0_L15sha256_compressERKNS0_5HashTILm32EEES5_RS3_EEE4NodeESaIS9_EE5clearEv
FN:1833,1837,_ZNSt6vectorIPN6merkle5TreeTILm32EXadL_ZNS0_L15sha256_compressERKNS0_5HashTILm32EEES5_RS3_EEE4NodeESaIS9_EE16_Temporary_valueC2IJRKS9_EEEPSB_DpOT_
FN:1840,1841,_ZNSt6vectorIPN6merkle5TreeTILm32EXadL_ZNS0_L15sha256_compressERKNS0_5HashTILm32EEES5_RS3_EEE4NodeESaIS9_EE16_Temporary_valueD2Ev
FN:1844,1844,_ZNSt6vectorIPN6merkle5TreeTILm32EXadL_ZNS0_L15sha256_compressERKNS0_5HashTILm32EEES5_RS3_EEE4NodeESaIS9_EE16_Temporary_value6_M_valEv
FN:1848,1848,_ZNSt6vectorIPN6merkle5TreeTILm32EXadL_ZNS0_L15sha256_compressERKNS0_5HashTILm32EEES5_RS3_EEE4NodeESaIS9_EE16_Temporary_value6_M_ptrEv
FN:1852,1852,_ZNSt6vectorIPN6merkle5TreeTILm32EXadL_ZNS0_L15sha256_compressERKNS0_5HashTILm32EEES5_RS3_EEE4NodeESaIS9_EE16_Temporary_value8_StorageC2Ev
FN:1853,1853,_ZNSt6vectorIPN6merkle5TreeTILm32EXadL_ZNS0_L15sha256_compressERKNS0_5HashTILm32EEES5_RS3_EEE4NodeESaIS9_EE16_Temporary_value8_StorageD2Ev
FN:1896,1903,_ZNKSt6vectorIN6merkle5HashTILm32EEESaIS2_EE12_M_check_lenEmPKc
FN:1896,1903,_ZNKSt6vectorIN6merkle5TreeTILm32EXadL_ZNS0_L15sha256_compressERKNS0_5HashTILm32EEES5_RS3_EEEUt_ESaIS8_EE12_M_check_lenEmPKc
FN:1896,1903,_ZNKSt6vectorIPN6merkle5TreeTILm32EXadL_ZNS0_L15sha256_compressERKNS0_5HashTILm32EEES5_RS3_EEE4NodeESaIS9_EE12_M_check_lenEmPKc
FN:1896,1903,_ZNKSt6vectorIhSaIhEE12_M_check_lenEmPKc
FN:1916,1925,_ZNSt6vectorIN6merkle5HashTILm32EEESaIS2_EE11_S_max_sizeERKS3_
FN:1916,1925,_ZNSt6vectorIN6merkle5TreeTILm32EXadL_ZNS0_L15sha256_compressERKNS0_5HashTILm32EEES5_RS3_EEEUt_ESaIS8_EE11_S_max_sizeERKS9_
FN:1916,1925,_ZNSt6vectorIPN6merkle5TreeTILm32EXadL_ZNS0_L15sha256_compressERKNS0_5HashTILm32EEES5_RS3_EEE4NodeESaIS9_EE11_S_max_sizeERKSA_
FN:1916,1925,_ZNSt6vectorIhSaIhEE11_S_max_sizeERKS0_
FN:1933,1942,_ZNSt6vectorIN6merkle5TreeTILm32EXadL_ZNS0_L15sha256_compressERKNS0_5HashTILm32EEES5_RS3_EEEUt_ESaIS8_EE15_M_erase_at_endEPS8_
FN:1933,1942,_ZNSt6vectorIPN6merkle5TreeTILm32EXadL_ZNS0_L15sha256_compressERKNS0_5HashTILm32EEES5_RS3_EEE4NodeESaIS9_EE15_M_erase_at_endEPS9_
FN:1990,1991,_ZNKSt6vectorIhSaIhEE11_M_data_ptrIhEEPT_S4_
FN:2112,2114,_ZSt4swapIPN6merkle5TreeTILm32EXadL_ZNS0_L15sha256_compressERKNS0_5HashTILm32EEES5_RS3_EEE4NodeESaIS9_EEvRSt6vectorIT_T0_ESF_
FN:301,302,_ZNSt12_Vector_baseIN6merkle5HashTILm32EEESaIS2_EE19_M_get_Tp_allocatorEv
FN:301,302,_ZNSt12_Vector_baseIN6merkle5TreeTILm32EXadL_ZNS0_L15sha256_compressERKNS0_5HashTILm32EEES5_RS3_EEEUt_ESaIS8_EE19_M_get_Tp_allocatorEv
FN:301,302,_ZNSt12_Vector_baseIPN6merkle5TreeTILm32EXadL_ZNS0_L15sha256_compressERKNS0_5HashTILm32EEES5_RS3_EEE4NodeESaIS9_EE19_M_get_Tp_allocatorEv
FN:301,302,_ZNSt12_Vector_baseIhSaIhEE19_M_get_Tp_allocatorEv
FN:306,307,_ZNKSt12_Vector_baseIN6merkle5HashTILm32EEESaIS2_EE19_M_get_Tp_allocatorEv
FN:306,307,_ZNKSt12_Vector_baseIN6merkle5TreeTILm32EXadL_ZNS0_L15sha256_compressERKNS0_5HashTILm32EEES5_RS3_EEEUt_ESaIS8_EE19_M_get_Tp_allocatorEv
FN:306,307,_ZNKSt12_Vector_baseIPN6merkle5TreeTILm32EXadL_ZNS0_L15sha256_compressERKNS0_5HashTILm32EEES5_RS3_EEE4NodeESaIS9_EE19_M_get_Tp_allocatorEv
FN:306,307,_ZNKSt12_Vector_baseIhSaIhEE19_M_get_Tp_allocatorEv
FN:315,315,_ZNSt12_Vector_baseIN6merkle5HashTILm32EEESaIS2_EEC2Ev
FN:315,315,_ZNSt12_Vector_baseIN6merkle5TreeTILm32EXadL_ZNS0_L15sha256_compressERKNS0_5HashTILm32EEES5_RS3_EEEUt_ESaIS8_EEC2Ev
FN:315,315,_ZNSt12_Vector_baseIPN6merkle5TreeTILm32EXadL_ZNS0_L15sha256_compressERKNS0_5HashTILm32EEES5_RS3_EEE4NodeESaIS9_EEC2Ev
FN:315,315,_ZNSt12_Vector_baseIhSaIhEEC2Ev
FN:333,335,_ZNSt12_Vector_baseIPN6merkle5TreeTILm32EXadL_ZNS0_L15sha256_compressERKNS0_5HashTILm32EEES5_RS3_EEE4NodeESaIS9_EEC2EmRKSA_
FN:367,371,_ZNSt12_Vector_baseIN6merkle5HashTILm32EEESaIS2_EED2Ev
FN:367,371,_ZNSt12_Vector_baseIN6merkle5TreeTILm32EXadL_ZNS0_L15sha256_compressERKNS0_5HashTILm32EEES5_RS3_EEEUt_ESaIS8_EED2Ev
FN:367,371,_ZNSt12_Vector_baseIPN6merkle5TreeTILm32EXadL_ZNS0_L15sha256_compressERKNS0_5HashTILm32EEES5_RS3_EEE4NodeESaIS9_EED2Ev
FN:367,371,_ZNSt12_Vector_baseIhSaIhEED2Ev
FN:378,382,_ZNSt12_Vector_baseIN6merkle5HashTILm32EEESaIS2_EE11_M_allocateEm
FN:378,382,_ZNSt12_Vector_baseIN6merkle5TreeTILm32EXadL_ZNS0_L15sha256_compressERKNS0_5HashTILm32EEES5_RS3_EEEUt_ESaIS8_EE11_M_allocateEm
FN:378,382,_ZNSt12_Vector_baseIPN6merkle5TreeTILm32EXadL_ZNS0_L15sha256_compressERKNS0_5HashTILm32EEES5_RS3_EEE4NodeESaIS9_EE11_M_allocateEm
FN:378,382,_ZNSt12_Vector_baseIhSaIhEE11_M_allocateEm
FN:386,391,_ZNSt12_Vector_baseIN6merkle5HashTILm32EEESaIS2_EE13_M_deallocateEPS2_m
FN:386,391,_ZNSt12_Vector_baseIN6merkle5TreeTILm32EXadL_ZNS0_L15sha256_compressERKNS0_5HashTILm32EEES5_RS3_EEEUt_ESaIS8_EE13_M_deallocateEPS8_m
FN:386,391,_ZNSt12_Vector_baseIPN6merkle5TreeTILm32EXadL_ZNS0_L15sha256_compressERKNS0_5HashTILm32EEES5_RS3_EEE4NodeESaIS9_EE13_M_deallocateEPS9_m
FN:386,391,_ZNSt12_Vector_baseIhSaIhEE13_M_deallocateEPhm
FN:396,401,_ZNSt12_Vector_baseIPN6merkle5TreeTILm32EXadL_ZNS0_L15sha256_compressERKNS0_5HashTILm32EEES5_RS3_EEE4NodeESaIS9_EE17_M_create_storageEm
FN:504,514,_ZNSt6vectorIN6merkle5HashTILm32EEESaIS2_EE11_S_relocateEPS2_S5_S5_RS3_
FN:504,514,_ZNSt6vectorIN6merkle5TreeTILm32EXadL_ZNS0_L15sha256_compressERKNS0_5HashTILm32EEES5_RS3_EEEUt_ESaIS8_EE11_S_relocateEPS8_SB_SB_RS9_
FN:504,514,_ZNSt6vectorIPN6merkle5TreeTILm32EXadL_ZNS0_L15sha256_compressERKNS0_5HashTILm32EEES5_RS3_EEE4NodeESaIS9_EE11_S_relocateEPS9_SC_SC_RSA_
FN:504,514,_ZNSt6vectorIhSaIhEE11_S_relocateEPhS2_S2_RS0_
FN:531,531,_ZNSt6vectorIN6merkle5HashTILm32EEESaIS2_EEC2Ev
FN:531,531,_ZNSt6vectorIN6merkle5TreeTILm32EXadL_ZNS0_L15sha256_compressERKNS0_5HashTILm32EEES5_RS3_EEEUt_ESaIS8_EEC2Ev
FN:531,531,_ZNSt6vectorIPN6merkle5TreeTILm32EXadL_ZNS0_L15sha256_compressERKNS0_5HashTILm32EEES5_RS3_EEE4NodeESaIS9_EEC2Ev
FN:531,531,_ZNSt6vectorIhSaIhEEC2Ev
FN:601,609,_ZNSt6vectorIPN6merkle5TreeTILm32EXadL_ZNS0_L15sha256_compressERKNS0_5HashTILm32EEES5_RS3_EEE4NodeESaIS9_EEC2ERKSB_
FN:733,738,_ZNSt6vectorIN6merkle5HashTILm32EEESaIS2_EED2Ev
FN:733,738,_ZNSt6vectorIN6merkle5TreeTILm32EXadL_ZNS0_L15sha256_compressERKNS0_5HashTILm32EEES5_RS3_EEEUt_ESaIS8_EED2Ev
FN:733,738,_ZNSt6vectorIPN6merkle5TreeTILm32EXadL_ZNS0_L15sha256_compressERKNS0_5HashTILm32EEES5_RS3_EEE4NodeESaIS9_EED2Ev
FN:733,738,_ZNSt6vectorIhSaIhEED2Ev
FN:873,874,_ZNSt6vectorIN6merkle5HashTILm32EEESaIS2_EE5beginEv
FN:873,874,_ZNSt6vectorIN6merkle5TreeTILm32EXadL_ZNS0_L15sha256_compressERKNS0_5HashTILm32EEES5_RS3_EEEUt_ESaIS8_EE5beginEv
FN:873,874,_ZNSt6vectorIPN6merkle5TreeTILm32EXadL_ZNS0_L15sha256_compressERKNS0_5HashTILm32EEES5_RS3_EEE4NodeESaIS9_EE5beginEv
FN:873,874,_ZNSt6vectorIhSaIhEE5beginEv
FN:883,884,_ZNKSt6vectorIN6merkle5TreeTILm32EXadL_ZNS0_L15sha256_compressERKNS0_5HashTILm32EEES5_RS3_EEEUt_ESaIS8_EE5beginEv
FN:883,884,_ZNKSt6vectorIPN6merkle5TreeTILm32EXadL_ZNS0_L15sha256_compressERKNS0_5HashTILm32EEES5_RS3_EEE4NodeESaIS9_EE5beginEv
FN:893,894,_ZNSt6vectorIN6merkle5HashTILm32EEESaIS2_EE3endEv
FN:893,894,_ZNSt6vectorIN6merkle5TreeTILm32EXadL_ZNS0_L15sha256_compressERKNS0_5HashTILm32EEES5_RS3_EEEUt_ESaIS8_EE3endEv
FN:893,894,_ZNSt6vectorIPN6merkle5TreeTILm32EXadL_ZNS0_L15sha256_compressERKNS0_5HashTILm32EEES5_RS3_EEE4NodeESaIS9_EE3endEv
FN:893,894,_ZNSt6vectorIhSaIhEE3endEv
FN:903,904,_ZNKSt6vectorIN6merkle5TreeTILm32EXadL_ZNS0_L15sha256_compressERKNS0_5HashTILm32EEES5_RS3_EEEUt_ESaIS8_EE3endEv
FN:903,904,_ZNKSt6vectorIPN6merkle5TreeTILm32EXadL_ZNS0_L15sha256_compressERKNS0_5HashTILm32EEES5_RS3_EEE4NodeESaIS9_EE3endEv
FN:954,955,_ZNKSt6vectorIPN6merkle5TreeTILm32EXadL_ZNS0_L15sha256_compressERKNS0_5HashTILm32EEES5_RS3_EEE4NodeESaIS9_EE6cbeginEv
FN:99,101,_ZNSt12_Vector_baseIN6merkle5HashTILm32EEESaIS2_EE17_Vector_impl_dataC2Ev
FN:99,101,_ZNSt12_Vector_baseIN6merkle5TreeTILm32EXadL_ZNS0_L15sha256_compressERKNS0_5HashTILm32EEES5_RS3_EEEUt_ESaIS8_EE17_Vector_impl_dataC2Ev
FN:99,101,_ZNSt12_Vector_baseIPN6merkle5TreeTILm32EXadL_ZNS0_L15sha256_compressERKNS0_5HashTILm32EEES5_RS3_EEE4NodeESaIS9_EE17_Vector_impl_dataC2Ev
FN:99,101,_ZNSt12_Vector_baseIhSaIhEE17_Vector_impl_dataC2Ev
FN:992,993,_ZNKSt6vectorIN6merkle5HashTILm32EEESaIS2_EE4sizeEv
FN:992,993,_ZNKSt6vectorIN6merkle5TreeTILm32EXadL_ZNS0_L15sha256_compressERKNS0_5HashTILm32EEES5_RS3_EEEUt_ESaIS8_EE4sizeEv
FN:992,993,_ZNKSt6vectorIPN6merkle5TreeTILm32EXadL_ZNS0_L15sha256_compressERKNS0_5HashTILm32EEES5_RS3_EEE4NodeESaIS9_EE4sizeEv
FN:992,993,_ZNKSt6vectorIhSaIhEE4sizeEv
FN:998,999,_ZNKSt6vectorIN6merkle5HashTILm32EEESaIS2_EE8max_sizeEv
FN:998,999,_ZNKSt6vectorIN6merkle5TreeTILm32EXadL_ZNS0_L15sha256_compressERKNS0_5HashTILm32EEES5_RS3_EEEUt_ESaIS8_EE8max_sizeEv
FN:998,999,_ZNKSt6vectorIPN6merkle5TreeTILm32EXadL_ZNS0_L15sha256_compressERKNS0_5HashTILm32EEES5_RS3_EEE4NodeESaIS9_EE8max_sizeEv
FN:998,999,_ZNKSt6vectorIhSaIhEE8max_sizeEv
FNDA:21623,_ZNSt6vectorIPN6merkle5TreeTILm32EXadL_ZNS0_L15sha256_compressERKNS0_5HashTILm32EEES5_RS3_EEE4NodeESaIS9_EE6resizeEm
FNDA:121818,_ZNKSt6vectorIPN6merkle5TreeTILm32EXadL_ZNS0_L15sha256_compressERKNS0_5HashTILm32EEES5_RS3_EEE4NodeESaIS9_EE8capacityEv
FNDA:5472,_ZNKSt6vectorIhSaIhEE8capacityEv
FNDA:12417665,_ZNKSt6vectorIN6merkle5TreeTILm32EXadL_ZNS0_L15sha256_compressERKNS0_5HashTILm32EEES5_RS3_EEEUt_ESaIS8_EE5emptyEv
FNDA:11570805,_ZNKSt6vectorIPN6merkle5TreeTILm32EXadL_ZNS0_L15sha256_compressERKNS0_5HashTILm32EEES5_RS3_EEE4NodeESaIS9_EE5emptyEv
FNDA:6948746,_ZNSt6vectorIN6merkle5HashTILm32EEESaIS2_EEixEm
FNDA:60844,_ZNSt6vectorIPN6merkle5TreeTILm32EXadL_ZNS0_L15sha256_compressERKNS0_5HashTILm32EEES5_RS3_EEE4NodeESaIS9_EEixEm
FNDA:34251,_ZNSt12_Vector_baseIPN6merkle5TreeTILm32EXadL_ZNS0_L15sha256_compressERKNS0_5HashTILm32EEES5_RS3_EEE4NodeESaIS9_EE17_Vector_impl_data12_M_copy_dataERKSC_
FNDA:29974,_ZNKSt6vectorIPN6merkle5TreeTILm32EXadL_ZNS0_L15sha256_compressERKNS0_5HashTILm32EEES5_RS3_EEE4NodeESaIS9_EEixEm
FNDA:209472,_ZNKSt6vectorIhSaIhEEixEm
FNDA:90818,_ZNKSt6vectorIPN6merkle5TreeTILm32EXadL_ZNS0_L15sha256_compressERKNS0_5HashTILm32EEES5_RS3_EEE4NodeESaIS9_EE14_M_range_checkEm
FNDA:16608,_ZNKSt6vectorIhSaIhEE14_M_range_checkEm
FNDA:60844,_ZNSt6vectorIPN6merkle5TreeTILm32EXadL_ZNS0_L15sha256_compressERKNS0_5HashTILm32EEES5_RS3_EEE4NodeESaIS9_EE2atEm
FNDA:29974,_ZNKSt6vectorIPN6merkle5TreeTILm32EXadL_ZNS0_L15sha256_compressERKNS0_5HashTILm32EEES5_RS3_EEE4NodeESaIS9_EE2atEm
FNDA:16608,_ZNKSt6vectorIhSaIhEE2atEm
FNDA:11417,_ZNSt12_Vector_baseIPN6merkle5TreeTILm32EXadL_ZNS0_L15sha256_compressERKNS0_5HashTILm32EEES5_RS3_EEE4NodeESaIS9_EE17_Vector_impl_data12_M_swap_dataERSC_
FNDA:36763767,_ZNSt6vectorIN6merkle5TreeTILm32EXadL_ZNS0_L15sha256_compressERKNS0_5HashTILm32EEES5_RS3_EEEUt_ESaIS8_EE4backEv
FNDA:29237547,_ZNSt6vectorIPN6merkle5TreeTILm32EXadL_ZNS0_L15sha256_compressERKNS0_5HashTILm32EEES5_RS3_EEE4NodeESaIS9_EE4backEv
FNDA:60673,_ZNSt6vectorIhSaIhEE4backEv
FNDA:8392,_ZNKSt6vectorIhSaIhEE4dataEv
FNDA:8631705,_ZNSt6vectorIN6merkle5HashTILm32EEESaIS2_EE9push_backERKS2_
FNDA:21097587,_ZNSt6vectorIPN6merkle5TreeTILm32EXadL_ZNS0_L15sha256_compressERKNS0_5HashTILm32EEES5_RS3_EEE4NodeESaIS9_EE9push_backERKS9_
FNDA:1026528,_ZNSt6vectorIhSaIhEE9push_backERKh
FNDA:12254589,_ZNSt6vectorIN6merkle5TreeTILm32EXadL_ZNS0_L15sha256_compressERKNS0_5HashTILm32EEES5_RS3_EEEUt_ESaIS8_EE9push_backEOS8_
FNDA:11470641,_ZNSt6vectorIPN6merkle5TreeTILm32EXadL_ZNS0_L15sha256_compressERKNS0_5HashTILm32EEES5_RS3_EEE4NodeESaIS9_EE9push_backEOS9_
FNDA:60673,_ZNSt6vectorIhSaIhEE9push_backEOh
FNDA:12254589,_ZNSt6vectorIN6merkle5TreeTILm32EXadL_ZNS0_L15sha256_compressERKNS0_5HashTILm32EEES5_RS3_EEEUt_ESaIS8_EE8pop_backEv
FNDA:12472583,_ZNSt6vectorIPN6merkle5TreeTILm32EXadL_ZNS0_L15sha256_compressERKNS0_5HashTILm32EEES5_RS3_EEE4NodeESaIS9_EE8pop_backEv
FNDA:451,_ZNSt12_Vector_baseIN6merkle5HashTILm32EEESaIS2_EE12_Vector_implC2Ev
FNDA:3082,_ZNSt12_Vector_baseIN6merkle5TreeTILm32EXadL_ZNS0_L15sha256_compressERKNS0_5HashTILm32EEES5_RS3_EEEUt_ESaIS8_EE12_Vector_implC2Ev
FNDA:14406,_ZNSt12_Vector_baseIPN6merkle5TreeTILm32EXadL_ZNS0_L15sha256_compressERKNS0_5HashTILm32EEES5_RS3_EEE4NodeESaIS9_EE12_Vector_implC2Ev
FNDA:2171,_ZNSt12_Vector_baseIhSaIhEE12_Vector_implC2Ev
FNDA:1038,_ZNSt12_Vector_baseIPN6merkle5TreeTILm32EXadL_ZNS0_L15sha256_compressERKNS0_5HashTILm32EEES5_RS3_EEE4NodeESaIS9_EE12_Vector_implC2ERKSA_
FNDA:85068,_ZNSt6vectorIPN6merkle5TreeTILm32EXadL_ZNS0_L15sha256_compressERKNS0_5HashTILm32EEES5_RS3_EEE4NodeESaIS9_EE5eraseEN9__gnu_cxx17__normal_iteratorIPKS9_SB_EESG_
FNDA:11417,_ZNSt6vectorIPN6merkle5TreeTILm32EXadL_ZNS0_L15sha256_compressERKNS0_5HashTILm32EEES5_RS3_EEE4NodeESaIS9_EE4swapERSB_
FNDA:2481,_ZNSt6vectorIN6merkle5TreeTILm32EXadL_ZNS0_L15sha256_compressERKNS0_5HashTILm32EEES5_RS3_EEEUt_ESaIS8_EE5clearEv
FNDA:139729,_ZNSt6vectorIPN6merkle5TreeTILm32EXadL_ZNS0_L15sha256_compressERKNS0_5HashTILm32EEES5_RS3_EEE4NodeESaIS9_EE5clearEv
FNDA:5099,_ZNSt6vectorIPN6merkle5TreeTILm32EXadL_ZNS0_L15sha256_compressERKNS0_5HashTILm32EEES5_RS3_EEE4NodeESaIS9_EE16_Temporary_valueC2IJRKS9_EEEPSB_DpOT_
FNDA:5099,_ZNSt6vectorIPN6merkle5TreeTILm32EXadL_ZNS0_L15sha256_compressERKNS0_5HashTILm32EEES5_RS3_EEE4NodeESaIS9_EE16_Temporary_valueD2Ev
FNDA:5099,_ZNSt6vectorIPN6merkle5TreeTILm32EXadL_ZNS0_L15sha256_compressERKNS0_5HashTILm32EEES5_RS3_EEE4NodeESaIS9_EE16_Temporary_value6_M_valEv
FNDA:10198,_ZNSt6vectorIPN6merkle5TreeTILm32EXadL_ZNS0_L15sha256_compressERKNS0_5HashTILm32EEES5_RS3_EEE4NodeESaIS9_EE16_Temporary_value6_M_ptrEv
FNDA:5099,_ZNSt6vectorIPN6merkle5TreeTILm32EXadL_ZNS0_L15sha256_compressERKNS0_5HashTILm32EEES5_RS3_EEE4NodeESaIS9_EE16_Temporary_value8_StorageC2Ev
FNDA:5099,_ZNSt6vectorIPN6merkle5TreeTILm32EXadL_ZNS0_L15sha256_compressERKNS0_5HashTILm32EEES5_RS3_EEE4NodeESaIS9_EE16_Temporary_value8_StorageD2Ev
FNDA:6164,_ZNKSt6vectorIN6merkle5HashTILm32EEESaIS2_EE12_M_check_lenEmPKc
FNDA:2261,_ZNKSt6vectorIN6merkle5TreeTILm32EXadL_ZNS0_L15sha256_compressERKNS0_5HashTILm32EEES5_RS3_EEEUt_ESaIS8_EE12_M_check_lenEmPKc
FNDA:47670,_ZNKSt6vectorIPN6merkle5TreeTILm32EXadL_ZNS0_L15sha256_compressERKNS0_5HashTILm32EEES5_RS3_EEE4NodeESaIS9_EE12_M_check_lenEmPKc
FNDA:16578,_ZNKSt6vectorIhSaIhEE12_M_check_lenEmPKc
FNDA:12328,_ZNSt6vectorIN6merkle5HashTILm32EEESaIS2_EE11_S_max_sizeERKS3_
FNDA:4522,_ZNSt6vectorIN6merkle5TreeTILm32EXadL_ZNS0_L15sha256_compressERKNS0_5HashTILm32EEES5_RS3_EEEUt_ESaIS8_EE11_S_max_sizeERKS9_
FNDA:217158,_ZNSt6vectorIPN6merkle5TreeTILm32EXadL_ZNS0_L15sha256_compressERKNS0_5HashTILm32EEES5_RS3_EEE4NodeESaIS9_EE11_S_max_sizeERKSA_
FNDA:38628,_ZNSt6vectorIhSaIhEE11_S_max_sizeERKS0_
FNDA:2481,_ZNSt6vectorIN6merkle5TreeTILm32EXadL_ZNS0_L15sha256_compressERKNS0_5HashTILm32EEES5_RS3_EEEUt_ESaIS8_EE15_M_erase_at_endEPS8_
FNDA:246420,_ZNSt6vectorIPN6merkle5TreeTILm32EXadL_ZNS0_L15sha256_compressERKNS0_5HashTILm32EEES5_RS3_EEE4NodeESaIS9_EE15_M_erase_at_endEPS9_
FNDA:8392,_ZNKSt6vectorIhSaIhEE11_M_data_ptrIhEEPT_S4_
FNDA:5,_ZSt4swapIPN6merkle5TreeTILm32EXadL_ZNS0_L15sha256_compressERKNS0_5HashTILm32EEES5_RS3_EEE4NodeESaIS9_EEvRSt6vectorIT_T0_ESF_
FNDA:12779,_ZNSt12_Vector_baseIN6merkle5HashTILm32EEESaIS2_EE19_M_get_Tp_allocatorEv
FNDA:7604,_ZNSt12_Vector_baseIN6merkle5TreeTILm32EXadL_ZNS0_L15sha256_compressERKNS0_5HashTILm32EEES5_RS3_EEEUt_ESaIS8_EE19_M_get_Tp_allocatorEv
FNDA:376878,_ZNSt12_Vector_baseIPN6merkle5TreeTILm32EXadL_ZNS0_L15sha256_compressERKNS0_5HashTILm32EEES5_RS3_EEE4NodeESaIS9_EE19_M_get_Tp_allocatorEv
FNDA:40799,_ZNSt12_Vector_baseIhSaIhEE19_M_get_Tp_allocatorEv
FNDA:12328,_ZNKSt12_Vector_baseIN6merkle5HashTILm32EEESaIS2_EE19_M_get_Tp_allocatorEv
FNDA:4522,_ZNKSt12_Vector_baseIN6merkle5TreeTILm32EXadL_ZNS0_L15sha256_compressERKNS0_5HashTILm32EEES5_RS3_EEEUt_ESaIS8_EE19_M_get_Tp_allocatorEv
FNDA:218196,_ZNKSt12_Vector_baseIPN6merkle5TreeTILm32EXadL_ZNS0_L15sha256_compressERKNS0_5HashTILm32EEES5_RS3_EEE4NodeESaIS9_EE19_M_get_Tp_allocatorEv
FNDA:38628,_ZNKSt12_Vector_baseIhSaIhEE19_M_get_Tp_allocatorEv
FNDA:451,_ZNSt12_Vector_baseIN6merkle5HashTILm32EEESaIS2_EEC2Ev
FNDA:3082,_ZNSt12_Vector_baseIN6merkle5TreeTILm32EXadL_ZNS0_L15sha256_compressERKNS0_5HashTILm32EEES5_RS3_EEEUt_ESaIS8_EEC2Ev
FNDA:14406,_ZNSt12_Vector_baseIPN6merkle5TreeTILm32EXadL_ZNS0_L15sha256_compressERKNS0_5HashTILm32EEES5_RS3_EEE4NodeESaIS9_EEC2Ev
FNDA:2171,_ZNSt12_Vector_baseIhSaIhEEC2Ev
FNDA:1038,_ZNSt12_Vector_baseIPN6merkle5TreeTILm32EXadL_ZNS0_L15sha256_compressERKNS0_5HashTILm32EEES5_RS3_EEE4NodeESaIS9_EEC2EmRKSA_
FNDA:451,_ZNSt12_Vector_baseIN6merkle5HashTILm32EEESaIS2_EED2Ev
FNDA:3082,_ZNSt12_Vector_baseIN6merkle5TreeTILm32EXadL_ZNS0_L15sha256_compressERKNS0_5HashTILm32EEES5_RS3_EEEUt_ESaIS8_EED2Ev
FNDA:15444,_ZNSt12_Vector_baseIPN6merkle5TreeTILm32EXadL_ZNS0_L15sha256_compressERKNS0_5HashTILm32EEES5_RS3_EEE4NodeESaIS9_EED2Ev
FNDA:2171,_ZNSt12_Vector_baseIhSaIhEED2Ev
FNDA:6164,_ZNSt12_Vector_baseIN6merkle5HashTILm32EEESaIS2_EE11_M_allocateEm
FNDA:2261,_ZNSt12_Vector_baseIN6merkle5TreeTILm32EXadL_ZNS0_L15sha256_compressERKNS0_5HashTILm32EEES5_RS3_EEEUt_ESaIS8_EE11_M_allocateEm
FNDA:54434,_ZNSt12_Vector_baseIPN6merkle5TreeTILm32EXadL_ZNS0_L15sha256_compressERKNS0_5HashTILm32EEES5_RS3_EEE4NodeESaIS9_EE11_M_allocateEm
FNDA:22050,_ZNSt12_Vector_baseIhSaIhEE11_M_allocateEm
FNDA:6615,_ZNSt12_Vector_baseIN6merkle5HashTILm32EEESaIS2_EE13_M_deallocateEPS2_m
FNDA:5343,_ZNSt12_Vector_baseIN6merkle5TreeTILm32EXadL_ZNS0_L15sha256_compressERKNS0_5HashTILm32EEES5_RS3_EEEUt_ESaIS8_EE13_M_deallocateEPS8_m
FNDA:68840,_ZNSt12_Vector_baseIPN6merkle5TreeTILm32EXadL_ZNS0_L15sha256_compressERKNS0_5HashTILm32EEES5_RS3_EEE4NodeESaIS9_EE13_M_deallocateEPS9_m
FNDA:24221,_ZNSt12_Vector_baseIhSaIhEE13_M_deallocateEPhm
FNDA:1038,_ZNSt12_Vector_baseIPN6merkle5TreeTILm32EXadL_ZNS0_L15sha256_compressERKNS0_5HashTILm32EEES5_RS3_EEE4NodeESaIS9_EE17_M_create_storageEm
FNDA:12328,_ZNSt6vectorIN6merkle5HashTILm32EEESaIS2_EE11_S_relocateEPS2_S5_S5_RS3_
FNDA:4522,_ZNSt6vectorIN6merkle5TreeTILm32EXadL_ZNS0_L15sha256_compressERKNS0_5HashTILm32EEES5_RS3_EEEUt_ESaIS8_EE11_S_relocateEPS8_SB_SB_RS9_
FNDA:101066,_ZNSt6vectorIPN6merkle5TreeTILm32EXadL_ZNS0_L15sha256_compressERKNS0_5HashTILm32EEES5_RS3_EEE4NodeESaIS9_EE11_S_relocateEPS9_SC_SC_RSA_
FNDA:38628,_ZNSt6vectorIhSaIhEE11_S_relocateEPhS2_S2_RS0_
FNDA:451,_ZNSt6vectorIN6merkle5HashTILm32EEESaIS2_EEC2Ev
FNDA:3082,_ZNSt6vectorIN6merkle5TreeTILm32EXadL_ZNS0_L15sha256_compressERKNS0_5HashTILm32EEES5_RS3_EEEUt_ESaIS8_EEC2Ev
FNDA:14406,_ZNSt6vectorIPN6merkle5TreeTILm32EXadL_ZNS0_L15sha256_compressERKNS0_5HashTILm32EEES5_RS3_EEE4NodeESaIS9_EEC2Ev
FNDA:2171,_ZNSt6vectorIhSaIhEEC2Ev
FNDA:1038,_ZNSt6vectorIPN6merkle5TreeTILm32EXadL_ZNS0_L15sha256_compressERKNS0_5HashTILm32EEES5_RS3_EEE4NodeESaIS9_EEC2ERKSB_
FNDA:451,_ZNSt6vectorIN6merkle5HashTILm32EEESaIS2_EED2Ev
FNDA:3082,_ZNSt6vectorIN6merkle5TreeTILm32EXadL_ZNS0_L15sha256_compressERKNS0_5HashTILm32EEES5_RS3_EEEUt_ESaIS8_EED2Ev
FNDA:15444,_ZNSt6vectorIPN6merkle5TreeTILm32EXadL_ZNS0_L15sha256_compressERKNS0_5HashTILm32EEES5_RS3_EEE4NodeESaIS9_EED2Ev
FNDA:2171,_ZNSt6vectorIhSaIhEED2Ev
FNDA:6486,_ZNSt6vectorIN6merkle5HashTILm32EEESaIS2_EE5beginEv
FNDA:2261,_ZNSt6vectorIN6merkle5TreeTILm32EXadL_ZNS0_L15sha256_compressERKNS0_5HashTILm32EEES5_RS3_EEEUt_ESaIS8_EE5beginEv
FNDA:444979,_ZNSt6vectorIPN6merkle5TreeTILm32EXadL_ZNS0_L15sha256_compressERKNS0_5HashTILm32EEES5_RS3_EEE4NodeESaIS9_EE5beginEv
FNDA:16579,_ZNSt6vectorIhSaIhEE5beginEv
FNDA:12417665,_ZNKSt6vectorIN6merkle5TreeTILm32EXadL_ZNS0_L15sha256_compressERKNS0_5HashTILm32EEES5_RS3_EEEUt_ESaIS8_EE5beginEv
FNDA:11573286,_ZNKSt6vectorIPN6merkle5TreeTILm32EXadL_ZNS0_L15sha256_compressERKNS0_5HashTILm32EEES5_RS3_EEE4NodeESaIS9_EE5beginEv
FNDA:6486,_ZNSt6vectorIN6merkle5HashTILm32EEESaIS2_EE3endEv
FNDA:36766028,_ZNSt6vectorIN6merkle5TreeTILm32EXadL_ZNS0_L15sha256_compressERKNS0_5HashTILm32EEES5_RS3_EEEUt_ESaIS8_EE3endEv
FNDA:29668616,_ZNSt6vectorIPN6merkle5TreeTILm32EXadL_ZNS0_L15sha256_compressERKNS0_5HashTILm32EEES5_RS3_EEE4NodeESaIS9_EE3endEv
FNDA:77252,_ZNSt6vectorIhSaIhEE3endEv
FNDA:12417665,_ZNKSt6vectorIN6merkle5TreeTILm32EXadL_ZNS0_L15sha256_compressERKNS0_5HashTILm32EEES5_RS3_EEEUt_ESaIS8_EE3endEv
FNDA:11573286,_ZNKSt6vectorIPN6merkle5TreeTILm32EXadL_ZNS0_L15sha256_compressERKNS0_5HashTILm32EEES5_RS3_EEE4NodeESaIS9_EE3endEv
FNDA:91095,_ZNKSt6vectorIPN6merkle5TreeTILm32EXadL_ZNS0_L15sha256_compressERKNS0_5HashTILm32EEES5_RS3_EEE4NodeESaIS9_EE6cbeginEv
FNDA:451,_ZNSt12_Vector_baseIN6merkle5HashTILm32EEESaIS2_EE17_Vector_impl_dataC2Ev
FNDA:3082,_ZNSt12_Vector_baseIN6merkle5TreeTILm32EXadL_ZNS0_L15sha256_compressERKNS0_5HashTILm32EEES5_RS3_EEEUt_ESaIS8_EE17_Vector_impl_dataC2Ev
FNDA:26861,_ZNSt12_Vector_baseIPN6merkle5TreeTILm32EXadL_ZNS0_L15sha256_compressERKNS0_5HashTILm32EEES5_RS3_EEE4NodeESaIS9_EE17_Vector_impl_dataC2Ev
FNDA:2171,_ZNSt12_Vector_baseIhSaIhEE17_Vector_impl_dataC2Ev
FNDA:4589733,_ZNKSt6vectorIN6merkle5HashTILm32EEESaIS2_EE4sizeEv
FNDA:9044,_ZNKSt6vectorIN6merkle5TreeTILm32EXadL_ZNS0_L15sha256_compressERKNS0_5HashTILm32EEES5_RS3_EEEUt_ESaIS8_EE4sizeEv
FNDA:48900227,_ZNKSt6vectorIPN6merkle5TreeTILm32EXadL_ZNS0_L15sha256_compressERKNS0_5HashTILm32EEES5_RS3_EEE4NodeESaIS9_EE4sizeEv
FNDA:107039,_ZNKSt6vectorIhSaIhEE4sizeEv
FNDA:12328,_ZNKSt6vectorIN6merkle5HashTILm32EEESaIS2_EE8max_sizeEv
FNDA:4522,_ZNKSt6vectorIN6merkle5TreeTILm32EXadL_ZNS0_L15sha256_compressERKNS0_5HashTILm32EEES5_RS3_EEEUt_ESaIS8_EE8max_sizeEv
FNDA:217158,_ZNKSt6vectorIPN6merkle5TreeTILm32EXadL_ZNS0_L15sha256_compressERKNS0_5HashTILm32EEES5_RS3_EEE4NodeESaIS9_EE8max_sizeEv
FNDA:38628,_ZNKSt6vectorIhSaIhEE8max_sizeEv
FNF:119
FNH:119
DA:99,32565
DA:100,32565
DA:101,32565
DA:113,34251
DA:115,34251
DA:116,34251
DA:117,34251
DA:118,34251
DA:122,11417
DA:126,11417
DA:127,11417
DA:128,11417
DA:129,11417
DA:130,11417
DA:137,20110
DA:142,20110
DA:143,20110
DA:146,1038
DA:147,1038
DA:148,1038
DA:301,438060
DA:302,438060
DA:306,273674
DA:307,273674
DA:315,20110
DA:333,1038
DA:334,1038
DA:335,1038
DA:367,21148
DA:369,21148
DA:370,21148
DA:371,21148
DA:378,84909
DA:381,169818
DA:386,105019
DA:389,105019
DA:390,84909
DA:391,105019
DA:396,1038
DA:398,1038
DA:399,1038
DA:400,1038
DA:401,1038
DA:504,156544
DA:509,156544
DA:531,20110
DA:601,1038
DA:603,2076
DA:605,1038
DA:606,1038
DA:608,1038
DA:609,1038
DA:733,21148
DA:735,21148
DA:736,21148
DA:738,21148
DA:873,470305
DA:874,470305
DA:883,23990951
DA:884,23990951
DA:893,66518382
DA:894,66518382
DA:903,23990951
DA:904,23990951
DA:954,91095
DA:955,91095
DA:992,53606043
DA:993,53606043
DA:998,272636
DA:999,272636
DA:1013,21623
DA:1015,21623
DA:1016,0
DA:1017,21623
DA:1018,21623
DA:1019,21623
DA:1078,127290
DA:1079,127290
DA:1080,127290
DA:1088,23988470
DA:1089,23988470
DA:1126,7009590
DA:1129,7009590
DA:1145,239446
DA:1148,239446
DA:1155,107426
DA:1157,107426
DA:1158,0
DA:1162,107426
DA:1178,60844
DA:1180,60844
DA:1181,60844
DA:1197,46582
DA:1199,46582
DA:1200,46582
DA:1233,66061987
DA:1236,66061987
DA:1265,8392
DA:1266,8392
DA:1281,30755820
DA:1283,30755820
DA:1286,30694748
DA:1288,30694748
DA:1292,61072
DA:1293,30755820
DA:1298,23785903
DA:1299,23785903
DA:1322,24727172
DA:1325,24727172
DA:1326,24727172
DA:1328,24727172
DA:1562,85068
DA:1564,85068
DA:1565,85068
DA:1566,170136
DA:1586,11417
DA:1589,11417
DA:1592,11417
DA:1593,11417
DA:1594,11417
DA:1595,11417
DA:1605,142210
DA:1606,142210
DA:1833,5099
DA:1835,5099
DA:1837,5099
DA:1840,5099
DA:1841,10198
DA:1844,5099
DA:1848,10198
DA:1852,5099
DA:1853,5099
DA:1896,72673
DA:1898,72673
DA:1899,0
DA:1901,72673
DA:1902,72673
DA:1916,272636
DA:1921,272636
DA:1923,272636
DA:1924,272636
DA:1933,248901
DA:1935,248901
DA:1937,236496
DA:1938,236496
DA:1939,236496
DA:1942,248901
DA:1990,8392
DA:1991,8392
DA:2112,5
DA:2114,5
LF:151
LH:148
end_of_record
TN:
SF:/usr/include/c++/13/bits/vector.tcc
FN:111,127,_ZNSt6vectorIN6merkle5TreeTILm32EXadL_ZNS0_L15sha256_compressERKNS0_5HashTILm32EEES5_RS3_EEEUt_ESaIS8_EE12emplace_backIJS8_EEERS8_DpOT_
FN:111,127,_ZNSt6vectorIPN6merkle5TreeTILm32EXadL_ZNS0_L15sha256_compressERKNS0_5HashTILm32EEES5_RS3_EEE4NodeESaIS9_EE12emplace_backIJS9_EEERS9_DpOT_
FN:111,127,_ZNSt6vectorIhSaIhEE12emplace_backIJhEEERhDpOT_
FN:133,176,_ZNSt6vectorIPN6merkle5TreeTILm32EXadL_ZNS0_L15sha256_compressERKNS0_5HashTILm32EEES5_RS3_EEE4NodeESaIS9_EE6insertEN9__gnu_cxx17__normal_iteratorIPKS9_SB_EERSE_
FN:195,205,_ZNSt6vectorIPN6merkle5TreeTILm32EXadL_ZNS0_L15sha256_compressERKNS0_5HashTILm32EEES5_RS3_EEE4NodeESaIS9_EE8_M_eraseEN9__gnu_cxx17__normal_iteratorIPS9_SB_EESF_
FN:413,438,_ZNSt6vectorIPN6merkle5TreeTILm32EXadL_ZNS0_L15sha256_compressERKNS0_5HashTILm32EEES5_RS3_EEE4NodeESaIS9_EE13_M_insert_auxIS9_EEvN9__gnu_cxx17__normal_iteratorIPS9_SB_EEOT_
FN:445,524,_ZNSt6vectorIN6merkle5HashTILm32EEESaIS2_EE17_M_realloc_insertIJRKS2_EEEvN9__gnu_cxx17__normal_iteratorIPS2_S4_EEDpOT_
FN:445,524,_ZNSt6vectorIN6merkle5TreeTILm32EXadL_ZNS0_L15sha256_compressERKNS0_5HashTILm32EEES5_RS3_EEEUt_ESaIS8_EE17_M_realloc_insertIJS8_EEEvN9__gnu_cxx17__normal_iteratorIPS8_SA_EEDpOT_
FN:445,524,_ZNSt6vectorIPN6merkle5TreeTILm32EXadL_ZNS0_L15sha256_compressERKNS0_5HashTILm32EEES5_RS3_EEE4NodeESaIS9_EE17_M_realloc_insertIJRKS9_EEEvN9__gnu_cxx17__normal_iteratorIPS9_SB_EEDpOT_
FN:445,524,_ZNSt6vectorIPN6merkle5TreeTILm32EXadL_ZNS0_L15sha256_compressERKNS0_5HashTILm32EEES5_RS3_EEE4NodeESaIS9_EE17_M_realloc_insertIJS9_EEEvN9__gnu_cxx17__normal_iteratorIPS9_SB_EEDpOT_
FN:445,524,_ZNSt6vectorIhSaIhEE17_M_realloc_insertIJRKhEEEvN9__gnu_cxx17__normal_iteratorIPhS1_EEDpOT_
FN:445,524,_ZNSt6vectorIhSaIhEE17_M_realloc_insertIJhEEEvN9__gnu_cxx17__normal_iteratorIPhS1_EEDpOT_
FN:634,710,_ZNSt6vectorIPN6merkle5TreeTILm32EXadL_ZNS0_L15sha256_compressERKNS0_5HashTILm32EEES5_RS3_EEE4NodeESaIS9_EE17_M_default_appendEm
FN:67,100,_ZNSt6vectorIPN6merkle5TreeTILm32EXadL_ZNS0_L15sha256_compressERKNS0_5HashTILm32EEES5_RS3_EEE4NodeESaIS9_EE7reserveEm
FN:67,100,_ZNSt6vectorIhSaIhEE7reserveEm
FNDA:12254589,_ZNSt6vectorIN6merkle5TreeTILm32EXadL_ZNS0_L15sha256_compressERKNS0_5HashTILm32EEES5_RS3_EEEUt_ESaIS8_EE12emplace_backIJS8_EEERS8_DpOT_
FNDA:11470641,_ZNSt6vectorIPN6merkle5TreeTILm32EXadL_ZNS0_L15sha256_compressERKNS0_5HashTILm32EEES5_RS3_EEE4NodeESaIS9_EE12emplace_backIJS9_EEERS9_DpOT_
FNDA:60673,_ZNSt6vectorIhSaIhEE12emplace_backIJhEEERhDpOT_
FNDA:6027,_ZNSt6vectorIPN6merkle5TreeTILm32EXadL_ZNS0_L15sha256_compressERKNS0_5HashTILm32EEES5_RS3_EEE4NodeESaIS9_EE6insertEN9__gnu_cxx17__normal_iteratorIPKS9_SB_EERSE_
FNDA:85068,_ZNSt6vectorIPN6merkle5TreeTILm32EXadL_ZNS0_L15sha256_compressERKNS0_5HashTILm32EEES5_RS3_EEE4NodeESaIS9_EE8_M_eraseEN9__gnu_cxx17__normal_iteratorIPS9_SB_EESF_
FNDA:5099,_ZNSt6vectorIPN6merkle5TreeTILm32EXadL_ZNS0_L15sha256_compressERKNS0_5HashTILm32EEES5_RS3_EEE4NodeESaIS9_EE13_M_insert_auxIS9_EEvN9__gnu_cxx17__normal_iteratorIPS9_SB_EEOT_
FNDA:6164,_ZNSt6vectorIN6merkle5HashTILm32EEESaIS2_EE17_M_realloc_insertIJRKS2_EEEvN9__gnu_cxx17__normal_iteratorIPS2_S4_EEDpOT_
FNDA:2261,_ZNSt6vectorIN6merkle5TreeTILm32EXadL_ZNS0_L15sha256_compressERKNS0_5HashTILm32EEES5_RS3_EEEUt_ESaIS8_EE17_M_realloc_insertIJS8_EEEvN9__gnu_cxx17__normal_iteratorIPS8_SA_EEDpOT_
FNDA:39268,_ZNSt6vectorIPN6merkle5TreeTILm32EXadL_ZNS0_L15sha256_compressERKNS0_5HashTILm32EEES5_RS3_EEE4NodeESaIS9_EE17_M_realloc_insertIJRKS9_EEEvN9__gnu_cxx17__normal_iteratorIPS9_SB_EEDpOT_
FNDA:8402,_ZNSt6vectorIPN6merkle5TreeTILm32EXadL_ZNS0_L15sha256_compressERKNS0_5HashTILm32EEES5_RS3_EEE4NodeESaIS9_EE17_M_realloc_insertIJS9_EEEvN9__gnu_cxx17__normal_iteratorIPS9_SB_EEDpOT_
FNDA:16568,_ZNSt6vectorIhSaIhEE17_M_realloc_insertIJRKhEEEvN9__gnu_cxx17__normal_iteratorIPhS1_EEDpOT_
FNDA:10,_ZNSt6vectorIhSaIhEE17_M_realloc_insertIJhEEEvN9__gnu_cxx17__normal_iteratorIPhS1_EEDpOT_
FNDA:0,_ZNSt6vectorIPN6merkle5TreeTILm32EXadL_ZNS0_L15sha256_compressERKNS0_5HashTILm32EEES5_RS3_EEE4NodeESaIS9_EE17_M_default_appendEm
FNDA:121818,_ZNSt6vectorIPN6merkle5TreeTILm32EXadL_ZNS0_L15sha256_compressERKNS0_5HashTILm32EEES5_RS3_EEE4NodeESaIS9_EE7reserveEm
FNDA:5472,_ZNSt6vectorIhSaIhEE7reserveEm
FNF:15
FNH:14
DA:67,127290
DA:70,127290
DA:71,0
DA:72,127290
DA:74,11198
DA:79,11198
DA:80,11198
DA:81,11198
DA:93,11198
DA:94,11198
DA:95,11198
DA:96,11198
DA:97,11198
DA:98,11198
DA:100,127290
DA:111,23785903
DA:114,23785903
DA:117,23775230
DA:119,23775230
DA:123,10673
DA:125,23785903
DA:133,6027
DA:140,6027
DA:141,6027
DA:143,5099
DA:144,5099
DA:145,0
DA:147,5099
DA:150,0
DA:152,0
DA:158,5099
DA:161,5099
DA:162,5099
DA:166,5099
DA:170,928
DA:175,6027
DA:195,85068
DA:198,85068
DA:200,85068
DA:201,85068
DA:202,85068
DA:204,85068
DA:413,5099
DA:423,5099
DA:424,5099
DA:425,5099
DA:430,5099
DA:436,5099
DA:438,5099
DA:445,72673
DA:455,72673
DA:456,72673
DA:457,72673
DA:458,72673
DA:459,72673
DA:460,72673
DA:468,72673
DA:469,56095
DA:475,72673
DA:480,72673
DA:481,72673
DA:483,72673
DA:485,72673
DA:486,72673
DA:519,72673
DA:520,72673
DA:521,72673
DA:522,72673
DA:523,72673
DA:524,72673
DA:634,0
DA:637,0
DA:639,0
DA:640,0
DA:641,0
DA:643,0
DA:644,0
DA:646,0
DA:649,0
DA:650,0
DA:651,0
DA:658,0
DA:659,0
DA:662,0
DA:663,0
DA:668,0
DA:669,0
DA:671,0
DA:673,0
DA:674,0
DA:676,0
DA:677,0
DA:703,0
DA:704,0
DA:705,0
DA:706,0
DA:707,0
DA:710,0
LF:98
LH:66
end_of_record
TN:
SF:/usr/include/c++/13/ext/aligned_buffer.h
FN:104,107,_ZN9__gnu_cxx16__aligned_bufferIN6merkle5HashTILm32EEEE7_M_addrEv
FN:104,107,_ZN9__gnu_cxx16__aligned_bufferIN6merkle5PathTILm32EXadL_ZNS1_L15sha256_compressERKNS1_5HashTILm32EEES6_RS4_EEEEE7_M_addrEv
FN:116,117,_ZN9__gnu_cxx16__aligned_bufferIN6merkle5HashTILm32EEEE6_M_ptrEv
FN:116,117,_ZN9__gnu_cxx16__aligned_bufferIN6merkle5PathTILm32EXadL_ZNS1_L15sha256_compressERKNS1_5HashTILm32EEES6_RS4_EEEEE6_M_ptrEv
FN:64,65,_ZN9__gnu_cxx16__aligned_membufIN6merkle5PathTILm32EXadL_ZNS1_L15sha256_compressERKNS1_5HashTILm32EEES6_RS4_EEEUt0_EE7_M_addrEv
FN:64,65,_ZN9__gnu_cxx16__aligned_membufISt4pairIKmN6merkle5HashTILm32EEEEE7_M_addrEv
FN:68,69,_ZNK9__gnu_cxx16__aligned_membufIN6merkle5PathTILm32EXadL_ZNS1_L15sha256_compressERKNS1_5HashTILm32EEES6_RS4_EEEUt0_EE7_M_addrEv
FN:68,69,_ZNK9__gnu_cxx16__aligned_membufISt4pairIKmN6merkle5HashTILm32EEEEE7_M_addrEv
FN:72,73,_ZN9__gnu_cxx16__aligned_membufIN6merkle5PathTILm32EXadL_ZNS1_L15sha256_compressERKNS1_5HashTILm32EEES6_RS4_EEEUt0_EE6_M_ptrEv
FN:72,73,_ZN9__gnu_cxx16__aligned_membufISt4pairIKmN6merkle5HashTILm32EEEEE6_M_ptrEv
FN:76,77,_ZNK9__gnu_cxx16__aligned_membufIN6merkle5PathTILm32EXadL_ZNS1_L15sha256_compressERKNS1_5HashTILm32EEES6_RS4_EEEUt0_EE6_M_ptrEv
FN:76,77,_ZNK9__gnu_cxx16__aligned_membufISt4pairIKmN6merkle5HashTILm32EEEEE6_M_ptrEv
FNDA:72423,_ZN9__gnu_cxx16__aligned_bufferIN6merkle5HashTILm32EEEE7_M_addrEv
FNDA:66777,_ZN9__gnu_cxx16__aligned_bufferIN6merkle5PathTILm32EXadL_ZNS1_L15sha256_compressERKNS1_5HashTILm32EEES6_RS4_EEEEE7_M_addrEv
FNDA:72423,_ZN9__gnu_cxx16__aligned_bufferIN6merkle5HashTILm32EEEE6_M_ptrEv
FNDA:66777,_ZN9__gnu_cxx16__aligned_bufferIN6merkle5PathTILm32EXadL_ZNS1_L15sha256_compressERKNS1_5HashTILm32EEES6_RS4_EEEEE6_M_ptrEv
FNDA:605037,_ZN9__gnu_cxx16__aligned_membufIN6merkle5PathTILm32EXadL_ZNS1_L15sha256_compressERKNS1_5HashTILm32EEES6_RS4_EEEUt0_EE7_M_addrEv
FNDA:55144,_ZN9__gnu_cxx16__aligned_membufISt4pairIKmN6merkle5HashTILm32EEEEE7_M_addrEv
FNDA:397133,_ZNK9__gnu_cxx16__aligned_membufIN6merkle5PathTILm32EXadL_ZNS1_L15sha256_compressERKNS1_5HashTILm32EEES6_RS4_EEEUt0_EE7_M_addrEv
FNDA:186418,_ZNK9__gnu_cxx16__aligned_membufISt4pairIKmN6merkle5HashTILm32EEEEE7_M_addrEv
FNDA:605037,_ZN9__gnu_cxx16__aligned_membufIN6merkle5PathTILm32EXadL_ZNS1_L15sha256_compressERKNS1_5HashTILm32EEES6_RS4_EEEUt0_EE6_M_ptrEv
FNDA:55144,_ZN9__gnu_cxx16__aligned_membufISt4pairIKmN6merkle5HashTILm32EEEEE6_M_ptrEv
FNDA:397133,_ZNK9__gnu_cxx16__aligned_membufIN6merkle5PathTILm32EXadL_ZNS1_L15sha256_compressERKNS1_5HashTILm32EEES6_RS4_EEEUt0_EE6_M_ptrEv
FNDA:186418,_ZNK9__gnu_cxx16__aligned_membufISt4pairIKmN6merkle5HashTILm32EEEEE6_M_ptrEv
FNF:12
FNH:12
DA:64,660181
DA:65,660181
DA:68,583551
DA:69,583551
DA:72,660181
DA:73,660181
DA:76,583551
DA:77,583551
DA:104,139200
DA:106,139200
DA:116,139200
DA:117,139200
LF:12
LH:12
end_of_record
TN:
SF:/usr/include/c++/13/ext/alloc_traits.h
FNF:0
FNH:0
DA:98,1038
DA:102,11417
LF:2
LH:2
end_of_record
TN:
SF:/usr/include/c++/13/ext/atomicity.h
FNF:0
FNH:0
DA:52,0
DA:66,0
DA:84,0
DA:85,0
DA:86,0
DA:98,0
DA:99,0
DA:101,0
LF:8
LH:0
end_of_record
TN:
SF:/usr/include/c++/13/iomanip
FN:167,168,_ZSt7setfillIcESt8_SetfillIT_ES1_
FN:227,228,_ZSt4setwi
FNDA:11,_ZSt7setfillIcESt8_SetfillIT_ES1_
FNDA:11,_ZSt4setwi
FNF:2
FNH:2
DA:167,11
DA:168,11
DA:227,11
DA:228,11
LF:4
LH:4
end_of_record
TN:
SF:/usr/include/c++/13/new
FN:174,175,_ZnwmPv
FN:180,180,_ZdlPvS_
FNDA:66548967,_ZnwmPv
FNDA:0,_ZdlPvS_
FNF:2
FNH:1
DA:174,66548967
DA:175,66548967
DA:180,0
LF:3
LH:2
end_of_record
TN:
SF:/usr/include/c++/13/tuple
FN:1787,1788,_ZSt12__get_helperILm0ERKmJEERT0_RSt11_Tuple_implIXT_EJS2_DpT1_EE
FN:1803,1804,_ZSt3getILm0EJRKmEERNSt13tuple_elementIXT_ESt5tupleIJDpT0_EEE4typeERS6_
FN:193,194,_ZNSt10_Head_baseILm0ERKmLb0EEC2ES1_
FN:2252,2258,_ZNSt4pairIKmN6merkle5HashTILm32EEEEC2IJRS0_EJEEESt21piecewise_construct_tSt5tupleIJDpT_EES8_IJDpT0_EE
FN:2264,2269,_ZNSt4pairIKmN6merkle5HashTILm32EEEEC2IJRS0_EJLm0EEJEJEEERSt5tupleIJDpT_EERS7_IJDpT1_EESt12_Index_tupleIJXspT0_EEESG_IJXspT2_EEE
FN:234,234,_ZNSt10_Head_baseILm0ERKmLb0EE7_M_headERS2_
FN:497,497,_ZNSt11_Tuple_implILm0EJRKmEE7_M_headERS2_
FN:507,509,_ZNSt11_Tuple_implILm0EJRKmEEC2ES1_
FN:527,530,_ZNSt11_Tuple_implILm0EJRKmEEC2EOS2_
FN:874,876,_ZNSt5tupleIJRKmEEC2ILb1ELb1EEES1_
FN:903,903,_ZNSt5tupleIJRKmEEC2EOS2_
FNDA:13786,_ZSt12__get_helperILm0ERKmJEERT0_RSt11_Tuple_implIXT_EJS2_DpT1_EE
FNDA:13786,_ZSt3getILm0EJRKmEERNSt13tuple_elementIXT_ESt5tupleIJDpT0_EEE4typeERS6_
FNDA:13786,_ZNSt10_Head_baseILm0ERKmLb0EEC2ES1_
FNDA:13786,_ZNSt4pairIKmN6merkle5HashTILm32EEEEC2IJRS0_EJEEESt21piecewise_construct_tSt5tupleIJDpT_EES8_IJDpT0_EE
FNDA:13786,_ZNSt4pairIKmN6merkle5HashTILm32EEEEC2IJRS0_EJLm0EEJEJEEERSt5tupleIJDpT_EERS7_IJDpT1_EESt12_Index_tupleIJXspT0_EEESG_IJXspT2_EEE
FNDA:13786,_ZNSt10_Head_baseILm0ERKmLb0EE7_M_headERS2_
FNDA:13786,_ZNSt11_Tuple_implILm0EJRKmEE7_M_headERS2_
FNDA:13786,_ZNSt11_Tuple_implILm0EJRKmEEC2ES1_
FNDA:13786,_ZNSt11_Tuple_implILm0EJRKmEEC2EOS2_
FNDA:13786,_ZNSt5tupleIJRKmEEC2ILb1ELb1EEES1_
FNDA:13786,_ZNSt5tupleIJRKmEEC2EOS2_
FNF:11
FNH:11
DA:193,13786
DA:194,13786
DA:234,13786
DA:497,13786
DA:507,13786
DA:508,13786
DA:509,13786
DA:527,13786
DA:529,13786
DA:530,13786
DA:874,13786
DA:876,13786
DA:903,13786
DA:1787,13786
DA:1788,13786
DA:1803,13786
DA:1804,13786
DA:2252,13786
DA:2257,13786
DA:2258,13786
DA:2264,13786
DA:2267,13786
DA:2268,13786
DA:2269,13786
LF:24
LH:24
end_of_record
TN:
SF:/usr/include/c++/13/typeinfo
FN:103,104,_ZNKSt9type_info4nameEv
FN:193,210,_ZNKSt9type_infoeqERKS_
FNDA:0,_ZNKSt9type_info4nameEv
FNDA:0,_ZNKSt9type_infoeqERKS_
FNF:2
FNH:0
DA:103,0
DA:104,0
DA:193,0
DA:195,0
DA:196,0
DA:198,0
DA:199,0
DA:206,0
LF:8
LH:0
end_of_record
TN:
SF:/usr/include/x86_64-linux-gnu/bits/byteswap.h
FN:49,56,__bswap_32
FNDA:134609928,__bswap_32
FNF:1
FNH:1
DA:49,134609928
DA:52,134609928
LF:2
LH:2
end_of_record
TN:
SF:/usr/include/x86_64-linux-gnu/c++/13/bits/c++config.h
FN:540,551,_ZSt23__is_constant_evaluatedv
FNDA:432145,_ZSt23__is_constant_evaluatedv
FNF:1
FNH:1
DA:540,432145
DA:547,432145
LF:2
LH:2
end_of_record
