TN:
SF:/home/runner/work/merklecpp/merklecpp/merklecpp.h
FN:100,103,_ZN6merkle5HashTILm32EEC2Ev
FN:100,103,_ZN6merkle5HashTILm48EEC2Ev
FN:100,103,_ZN6merkle5HashTILm64EEC2Ev
FN:1023,1079,_ZN6merkle5TreeTILm32EXadL_ZNS_L14sha256_opensslERKNS_5HashTILm32EEES4_RS2_EEE7walk_toEmbOKSt8functionIFbRPNS6_4NodeEbEE
FN:1023,1079,_ZN6merkle5TreeTILm32EXadL_ZNS_L15sha256_compressERKNS_5HashTILm32EEES4_RS2_EEE7walk_toEmbOKSt8functionIFbRPNS6_4NodeEbEE
FN:1023,1079,_ZN6merkle5TreeTILm48EXadL_ZNS_L14sha384_opensslERKNS_5HashTILm48EEES4_RS2_EEE7walk_toEmbOKSt8functionIFbRPNS6_4NodeEbEE
FN:1023,1079,_ZN6merkle5TreeTILm64EXadL_ZNS_L14sha512_opensslERKNS_5HashTILm64EEES4_RS2_EEE7walk_toEmbOKSt8functionIFbRPNS6_4NodeEbEE
FN:107,110,_ZN6merkle5HashTILm32EEC2EPKh
FN:107,110,_ZN6merkle5HashTILm48EEC2EPKh
FN:107,110,_ZN6merkle5HashTILm64EEC2EPKh
FN:1084,1100,_ZN6merkle5TreeTILm32EXadL_ZNS_L14sha256_opensslERKNS_5HashTILm32EEES4_RS2_EEE4pathEm
FN:1084,1100,_ZN6merkle5TreeTILm32EXadL_ZNS_L15sha256_compressERKNS_5HashTILm32EEES4_RS2_EEE4pathEm
FN:1084,1100,_ZN6merkle5TreeTILm48EXadL_ZNS_L14sha384_opensslERKNS_5HashTILm48EEES4_RS2_EEE4pathEm
FN:1084,1100,_ZN6merkle5TreeTILm64EXadL_ZNS_L14sha512_opensslERKNS_5HashTILm64EEES4_RS2_EEE4pathEm
FN:1090,1090,_ZZN6merkle5TreeTILm32EXadL_ZNS_L14sha256_opensslERKNS_5HashTILm32EEES4_RS2_EEE4pathEmENKUlPNS6_4NodeEbE_clES8_b
FN:1090,1090,_ZZN6merkle5TreeTILm32EXadL_ZNS_L15sha256_compressERKNS_5HashTILm32EEES4_RS2_EEE4pathEmENKUlPNS6_4NodeEbE_clES8_b
FN:1090,1090,_ZZN6merkle5TreeTILm48EXadL_ZNS_L14sha384_opensslERKNS_5HashTILm48EEES4_RS2_EEE4pathEmENKUlPNS6_4NodeEbE_clES8_b
FN:1090,1090,_ZZN6merkle5TreeTILm64EXadL_ZNS_L14sha512_opensslERKNS_5HashTILm64EEES4_RS2_EEE4pathEmENKUlPNS6_4NodeEbE_clES8_b
FN:1109,1286,_ZN6merkle5TreeTILm32EXadL_ZNS_L15sha256_compressERKNS_5HashTILm32EEES4_RS2_EEE9past_pathEmm
FN:1109,1286,_ZN6merkle5TreeTILm48EXadL_ZNS_L14sha384_opensslERKNS_5HashTILm48EEES4_RS2_EEE9past_pathEmm
FN:1109,1286,_ZN6merkle5TreeTILm64EXadL_ZNS_L14sha512_opensslERKNS_5HashTILm64EEES4_RS2_EEE9past_pathEmm
FN:1290,1329,_ZN6merkle5TreeTILm32EXadL_ZNS_L15sha256_compressERKNS_5HashTILm32EEES4_RS2_EEE9serialiseERSt6vectorIhSaIhEE
FN:1290,1329,_ZN6merkle5TreeTILm48EXadL_ZNS_L14sha384_opensslERKNS_5HashTILm48EEES4_RS2_EEE9serialiseERSt6vectorIhSaIhEE
FN:1290,1329,_ZN6merkle5TreeTILm64EXadL_ZNS_L14sha512_opensslERKNS_5HashTILm64EEES4_RS2_EEE9serialiseERSt6vectorIhSaIhEE
FN:1316,1316,_ZZN6merkle5TreeTILm32EXadL_ZNS_L15sha256_compressERKNS_5HashTILm32EEES4_RS2_EEE9serialiseERSt6vectorIhSaIhEEENKUlRPNS6_4NodeEbE_clESD_b
FN:1316,1316,_ZZN6merkle5TreeTILm48EXadL_ZNS_L14sha384_opensslERKNS_5HashTILm48EEES4_RS2_EEE9serialiseERSt6vectorIhSaIhEEENKUlRPNS6_4NodeEbE_clESD_b
FN:1316,1316,_ZZN6merkle5TreeTILm64EXadL_ZNS_L14sha512_opensslERKNS_5HashTILm64EEES4_RS2_EEE9serialiseERSt6vectorIhSaIhEEENKUlRPNS6_4NodeEbE_clESD_b
FN:1335,1377,_ZN6merkle5TreeTILm32EXadL_ZNS_L15sha256_compressERKNS_5HashTILm32EEES4_RS2_EEE9serialiseEmmRSt6vectorIhSaIhEE
FN:1364,1364,_ZZN6merkle5TreeTILm32EXadL_ZNS_L15sha256_compressERKNS_5HashTILm32EEES4_RS2_EEE9serialiseEmmRSt6vectorIhSaIhEEENKUlRPNS6_4NodeEbE_clESD_b
FN:1381,1385,_ZN6merkle5TreeTILm32EXadL_ZNS_L15sha256_compressERKNS_5HashTILm32EEES4_RS2_EEE11deserialiseERKSt6vectorIhSaIhEE
FN:1381,1385,_ZN6merkle5TreeTILm48EXadL_ZNS_L14sha384_opensslERKNS_5HashTILm48EEES4_RS2_EEE11deserialiseERKSt6vectorIhSaIhEE
FN:1381,1385,_ZN6merkle5TreeTILm64EXadL_ZNS_L14sha512_opensslERKNS_5HashTILm64EEES4_RS2_EEE11deserialiseERKSt6vectorIhSaIhEE
FN:1390,1467,_ZN6merkle5TreeTILm32EXadL_ZNS_L15sha256_compressERKNS_5HashTILm32EEES4_RS2_EEE11deserialiseERKSt6vectorIhSaIhEERm
FN:1390,1467,_ZN6merkle5TreeTILm48EXadL_ZNS_L14sha384_opensslERKNS_5HashTILm48EEES4_RS2_EEE11deserialiseERKSt6vectorIhSaIhEERm
FN:1390,1467,_ZN6merkle5TreeTILm64EXadL_ZNS_L14sha512_opensslERKNS_5HashTILm64EEES4_RS2_EEE11deserialiseERKSt6vectorIhSaIhEERm
FN:142,149,_ZN6merkle5HashTILm32EEC2ERKSt6vectorIhSaIhEERm
FN:142,149,_ZN6merkle5HashTILm48EEC2ERKSt6vectorIhSaIhEERm
FN:142,149,_ZN6merkle5HashTILm64EEC2ERKSt6vectorIhSaIhEERm
FN:1488,1502,_ZNK6merkle5TreeTILm32EXadL_ZNS_L15sha256_compressERKNS_5HashTILm32EEES4_RS2_EEE4leafEm
FN:1488,1502,_ZNK6merkle5TreeTILm48EXadL_ZNS_L14sha384_opensslERKNS_5HashTILm48EEES4_RS2_EEE4leafEm
FN:1488,1502,_ZNK6merkle5TreeTILm64EXadL_ZNS_L14sha512_opensslERKNS_5HashTILm64EEES4_RS2_EEE4leafEm
FN:1508,1511,_ZNK6merkle5TreeTILm32EXadL_ZNS_L14sha256_opensslERKNS_5HashTILm32EEES4_RS2_EEE10num_leavesEv
FN:1508,1511,_ZNK6merkle5TreeTILm32EXadL_ZNS_L15sha256_compressERKNS_5HashTILm32EEES4_RS2_EEE10num_leavesEv
FN:1508,1511,_ZNK6merkle5TreeTILm48EXadL_ZNS_L14sha384_opensslERKNS_5HashTILm48EEES4_RS2_EEE10num_leavesEv
FN:1508,1511,_ZNK6merkle5TreeTILm64EXadL_ZNS_L14sha512_opensslERKNS_5HashTILm64EEES4_RS2_EEE10num_leavesEv
FN:1517,1520,_ZNK6merkle5TreeTILm32EXadL_ZNS_L14sha256_opensslERKNS_5HashTILm32EEES4_RS2_EEE9min_indexEv
FN:1517,1520,_ZNK6merkle5TreeTILm32EXadL_ZNS_L15sha256_compressERKNS_5HashTILm32EEES4_RS2_EEE9min_indexEv
FN:1517,1520,_ZNK6merkle5TreeTILm48EXadL_ZNS_L14sha384_opensslERKNS_5HashTILm48EEES4_RS2_EEE9min_indexEv
FN:1517,1520,_ZNK6merkle5TreeTILm64EXadL_ZNS_L14sha512_opensslERKNS_5HashTILm64EEES4_RS2_EEE9min_indexEv
FN:1526,1530,_ZNK6merkle5TreeTILm32EXadL_ZNS_L14sha256_opensslERKNS_5HashTILm32EEES4_RS2_EEE9max_indexEv
FN:1526,1530,_ZNK6merkle5TreeTILm32EXadL_ZNS_L15sha256_compressERKNS_5HashTILm32EEES4_RS2_EEE9max_indexEv
FN:1526,1530,_ZNK6merkle5TreeTILm48EXadL_ZNS_L14sha384_opensslERKNS_5HashTILm48EEES4_RS2_EEE9max_indexEv
FN:1526,1530,_ZNK6merkle5TreeTILm64EXadL_ZNS_L14sha512_opensslERKNS_5HashTILm64EEES4_RS2_EEE9max_indexEv
FN:1534,1537,_ZNK6merkle5TreeTILm32EXadL_ZNS_L15sha256_compressERKNS_5HashTILm32EEES4_RS2_EEE5emptyEv
FN:1534,1537,_ZNK6merkle5TreeTILm48EXadL_ZNS_L14sha384_opensslERKNS_5HashTILm48EEES4_RS2_EEE5emptyEv
FN:1534,1537,_ZNK6merkle5TreeTILm64EXadL_ZNS_L14sha512_opensslERKNS_5HashTILm64EEES4_RS2_EEE5emptyEv
FN:1543,1550,_ZN6merkle5TreeTILm32EXadL_ZNS_L15sha256_compressERKNS_5HashTILm32EEES4_RS2_EEE4sizeEv
FN:1543,1550,_ZN6merkle5TreeTILm48EXadL_ZNS_L14sha384_opensslERKNS_5HashTILm48EEES4_RS2_EEE4sizeEv
FN:1543,1550,_ZN6merkle5TreeTILm64EXadL_ZNS_L14sha512_opensslERKNS_5HashTILm64EEES4_RS2_EEE4sizeEv
FN:1555,1572,_ZN6merkle5TreeTILm32EXadL_ZNS_L15sha256_compressERKNS_5HashTILm32EEES4_RS2_EEE15serialised_sizeEv
FN:1561,1561,_ZZN6merkle5TreeTILm32EXadL_ZNS_L15sha256_compressERKNS_5HashTILm32EEES4_RS2_EEE15serialised_sizeEvENKUlRPNS6_4NodeEbE_clES9_b
FN:1578,1591,_ZN6merkle5TreeTILm32EXadL_ZNS_L15sha256_compressERKNS_5HashTILm32EEES4_RS2_EEE15serialised_sizeEmm
FN:1581,1581,_ZZN6merkle5TreeTILm32EXadL_ZNS_L15sha256_compressERKNS_5HashTILm32EEES4_RS2_EEE15serialised_sizeEmmENKUlRPNS6_4NodeEbE_clES9_b
FN:159,162,_ZNK6merkle5HashTILm32EE4sizeEv
FN:159,162,_ZNK6merkle5HashTILm48EE4sizeEv
FN:159,162,_ZNK6merkle5HashTILm64EE4sizeEv
FN:1622,1630,_ZNK6merkle5TreeTILm32EXadL_ZNS_L15sha256_compressERKNS_5HashTILm32EEES4_RS2_EEE10Statistics9to_stringEv
FN:1622,1630,_ZNK6merkle5TreeTILm48EXadL_ZNS_L14sha384_opensslERKNS_5HashTILm48EEES4_RS2_EEE10Statistics9to_stringEv
FN:1622,1630,_ZNK6merkle5TreeTILm64EXadL_ZNS_L14sha512_opensslERKNS_5HashTILm64EEES4_RS2_EEE10Statistics9to_stringEv
FN:1638,1689,_ZNK6merkle5TreeTILm32EXadL_ZNS_L15sha256_compressERKNS_5HashTILm32EEES4_RS2_EEE9to_stringEm
FN:1735,1748,_ZNK6merkle5TreeTILm32EXadL_ZNS_L14sha256_opensslERKNS_5HashTILm32EEES4_RS2_EEE9leaf_nodeEm
FN:1735,1748,_ZNK6merkle5TreeTILm32EXadL_ZNS_L15sha256_compressERKNS_5HashTILm32EEES4_RS2_EEE9leaf_nodeEm
FN:1735,1748,_ZNK6merkle5TreeTILm48EXadL_ZNS_L14sha384_opensslERKNS_5HashTILm48EEES4_RS2_EEE9leaf_nodeEm
FN:1735,1748,_ZNK6merkle5TreeTILm64EXadL_ZNS_L14sha512_opensslERKNS_5HashTILm64EEES4_RS2_EEE9leaf_nodeEm
FN:1755,1798,_ZNK6merkle5TreeTILm32EXadL_ZNS_L14sha256_opensslERKNS_5HashTILm32EEES4_RS2_EEE4hashEPNS6_4NodeEm
FN:1755,1798,_ZNK6merkle5TreeTILm32EXadL_ZNS_L15sha256_compressERKNS_5HashTILm32EEES4_RS2_EEE4hashEPNS6_4NodeEm
FN:1755,1798,_ZNK6merkle5TreeTILm48EXadL_ZNS_L14sha384_opensslERKNS_5HashTILm48EEES4_RS2_EEE4hashEPNS6_4NodeEm
FN:1755,1798,_ZNK6merkle5TreeTILm64EXadL_ZNS_L14sha512_opensslERKNS_5HashTILm64EEES4_RS2_EEE4hashEPNS6_4NodeEm
FN:179,193,_ZNK6merkle5HashTILm32EE9to_stringB5cxx11Emb
FN:1801,1815,_ZN6merkle5TreeTILm32EXadL_ZNS_L14sha256_opensslERKNS_5HashTILm32EEES4_RS2_EEE12compute_rootEv
FN:1801,1815,_ZN6merkle5TreeTILm32EXadL_ZNS_L15sha256_compressERKNS_5HashTILm32EEES4_RS2_EEE12compute_rootEv
FN:1801,1815,_ZN6merkle5TreeTILm48EXadL_ZNS_L14sha384_opensslERKNS_5HashTILm48EEES4_RS2_EEE12compute_rootEv
FN:1801,1815,_ZN6merkle5TreeTILm64EXadL_ZNS_L14sha512_opensslERKNS_5HashTILm64EEES4_RS2_EEE12compute_rootEv
FN:1822,1855,_ZN6merkle5TreeTILm32EXadL_ZNS_L14sha256_opensslERKNS_5HashTILm32EEES4_RS2_EEE24continue_insertion_stackEPNS6_4NodeES8_
FN:1822,1855,_ZN6merkle5TreeTILm32EXadL_ZNS_L15sha256_compressERKNS_5HashTILm32EEES4_RS2_EEE24continue_insertion_stackEPNS6_4NodeES8_
FN:1822,1855,_ZN6merkle5TreeTILm48EXadL_ZNS_L14sha384_opensslERKNS_5HashTILm48EEES4_RS2_EEE24continue_insertion_stackEPNS6_4NodeES8_
FN:1822,1855,_ZN6merkle5TreeTILm64EXadL_ZNS_L14sha512_opensslERKNS_5HashTILm64EEES4_RS2_EEE24continue_insertion_stackEPNS6_4NodeES8_
FN:1860,1910,_ZN6merkle5TreeTILm32EXadL_ZNS_L14sha256_opensslERKNS_5HashTILm32EEES4_RS2_EEE23process_insertion_stackEb
FN:1860,1910,_ZN6merkle5TreeTILm32EXadL_ZNS_L15sha256_compressERKNS_5HashTILm32EEES4_RS2_EEE23process_insertion_stackEb
FN:1860,1910,_ZN6merkle5TreeTILm48EXadL_ZNS_L14sha384_opensslERKNS_5HashTILm48EEES4_RS2_EEE23process_insertion_stackEb
FN:1860,1910,_ZN6merkle5TreeTILm64EXadL_ZNS_L14sha512_opensslERKNS_5HashTILm64EEES4_RS2_EEE23process_insertion_stackEb
FN:1915,1930,_ZN6merkle5TreeTILm32EXadL_ZNS_L14sha256_opensslERKNS_5HashTILm32EEES4_RS2_EEE11insert_leafERPNS6_4NodeES8_
FN:1915,1930,_ZN6merkle5TreeTILm32EXadL_ZNS_L15sha256_compressERKNS_5HashTILm32EEES4_RS2_EEE11insert_leafERPNS6_4NodeES8_
FN:1915,1930,_ZN6merkle5TreeTILm48EXadL_ZNS_L14sha384_opensslERKNS_5HashTILm48EEES4_RS2_EEE11insert_leafERPNS6_4NodeES8_
FN:1915,1930,_ZN6merkle5TreeTILm64EXadL_ZNS_L14sha512_opensslERKNS_5HashTILm64EEES4_RS2_EEE11insert_leafERPNS6_4NodeES8_
FN:1935,1954,_ZN6merkle5TreeTILm32EXadL_ZNS_L14sha256_opensslERKNS_5HashTILm32EEES4_RS2_EEE13insert_leavesEb
FN:1935,1954,_ZN6merkle5TreeTILm32EXadL_ZNS_L15sha256_compressERKNS_5HashTILm32EEES4_RS2_EEE13insert_leavesEb
FN:1935,1954,_ZN6merkle5TreeTILm48EXadL_ZNS_L14sha384_opensslERKNS_5HashTILm48EEES4_RS2_EEE13insert_leavesEb
FN:1935,1954,_ZN6merkle5TreeTILm64EXadL_ZNS_L14sha512_opensslERKNS_5HashTILm64EEES4_RS2_EEE13insert_leavesEb
FN:196,200,_ZN6merkle5HashTILm32EEaSERKS1_
FN:196,200,_ZN6merkle5HashTILm48EEaSERKS1_
FN:196,200,_ZN6merkle5HashTILm64EEaSERKS1_
FN:1965,2030,_ZN6merkleL15sha256_compressERKNS_5HashTILm32EEES3_RS1_
FN:203,206,_ZNK6merkle5HashTILm32EEeqERKS1_
FN:203,206,_ZNK6merkle5HashTILm48EEeqERKS1_
FN:203,206,_ZNK6merkle5HashTILm64EEeqERKS1_
FN:2039,2055,_ZN6merkleL14sha256_opensslERKNS_5HashTILm32EEES3_RS1_
FN:2061,2077,_ZN6merkleL14sha384_opensslERKNS_5HashTILm48EEES3_RS1_
FN:2083,2099,_ZN6merkleL14sha512_opensslERKNS_5HashTILm64EEES3_RS1_
FN:209,212,_ZNK6merkle5HashTILm32EEneERKS1_
FN:216,223,_ZNK6merkle5HashTILm32EE9serialiseERSt6vectorIhSaIhEE
FN:216,223,_ZNK6merkle5HashTILm48EE9serialiseERSt6vectorIhSaIhEE
FN:216,223,_ZNK6merkle5HashTILm64EE9serialiseERSt6vectorIhSaIhEE
FN:228,239,_ZN6merkle5HashTILm32EE11deserialiseERKSt6vectorIhSaIhEERm
FN:228,239,_ZN6merkle5HashTILm48EE11deserialiseERKSt6vectorIhSaIhEERm
FN:228,239,_ZN6merkle5HashTILm64EE11deserialiseERKSt6vectorIhSaIhEERm
FN:290,299,_ZN6merkle5PathTILm32EXadL_ZNS_L14sha256_opensslERKNS_5HashTILm32EEES4_RS2_EEEC2ES4_mONSt7__cxx114listINS6_Ut0_ESaIS9_EEEm
FN:290,299,_ZN6merkle5PathTILm32EXadL_ZNS_L15sha256_compressERKNS_5HashTILm32EEES4_RS2_EEEC2ES4_mONSt7__cxx114listINS6_Ut0_ESaIS9_EEEm
FN:290,299,_ZN6merkle5PathTILm48EXadL_ZNS_L14sha384_opensslERKNS_5HashTILm48EEES4_RS2_EEEC2ES4_mONSt7__cxx114listINS6_Ut0_ESaIS9_EEEm
FN:290,299,_ZN6merkle5PathTILm64EXadL_ZNS_L14sha512_opensslERKNS_5HashTILm64EEES4_RS2_EEEC2ES4_mONSt7__cxx114listINS6_Ut0_ESaIS9_EEEm
FN:327,357,_ZNK6merkle5PathTILm32EXadL_ZNS_L14sha256_opensslERKNS_5HashTILm32EEES4_RS2_EEE4rootEv
FN:327,357,_ZNK6merkle5PathTILm32EXadL_ZNS_L15sha256_compressERKNS_5HashTILm32EEES4_RS2_EEE4rootEv
FN:327,357,_ZNK6merkle5PathTILm48EXadL_ZNS_L14sha384_opensslERKNS_5HashTILm48EEES4_RS2_EEE4rootEv
FN:327,357,_ZNK6merkle5PathTILm64EXadL_ZNS_L14sha512_opensslERKNS_5HashTILm64EEES4_RS2_EEE4rootEv
FN:362,365,_ZNK6merkle5PathTILm32EXadL_ZNS_L14sha256_opensslERKNS_5HashTILm32EEES4_RS2_EEE6verifyES4_
FN:362,365,_ZNK6merkle5PathTILm32EXadL_ZNS_L15sha256_compressERKNS_5HashTILm32EEES4_RS2_EEE6verifyES4_
FN:362,365,_ZNK6merkle5PathTILm48EXadL_ZNS_L14sha384_opensslERKNS_5HashTILm48EEES4_RS2_EEE6verifyES4_
FN:362,365,_ZNK6merkle5PathTILm64EXadL_ZNS_L14sha512_opensslERKNS_5HashTILm64EEES4_RS2_EEE6verifyES4_
FN:369,381,_ZNK6merkle5PathTILm32EXadL_ZNS_L15sha256_compressERKNS_5HashTILm32EEES4_RS2_EEE9serialiseERSt6vectorIhSaIhEE
FN:369,381,_ZNK6merkle5PathTILm48EXadL_ZNS_L14sha384_opensslERKNS_5HashTILm48EEES4_RS2_EEE9serialiseERSt6vectorIhSaIhEE
FN:369,381,_ZNK6merkle5PathTILm64EXadL_ZNS_L14sha512_opensslERKNS_5HashTILm64EEES4_RS2_EEE9serialiseERSt6vectorIhSaIhEE
FN:415,420,_ZNK6merkle5PathTILm32EXadL_ZNS_L15sha256_compressERKNS_5HashTILm32EEES4_RS2_EEEcvSt6vectorIhSaIhEEEv
FN:423,426,_ZNK6merkle5PathTILm32EXadL_ZNS_L15sha256_compressERKNS_5HashTILm32EEES4_RS2_EEE4sizeEv
FN:423,426,_ZNK6merkle5PathTILm48EXadL_ZNS_L14sha384_opensslERKNS_5HashTILm48EEES4_RS2_EEE4sizeEv
FN:423,426,_ZNK6merkle5PathTILm64EXadL_ZNS_L14sha512_opensslERKNS_5HashTILm64EEES4_RS2_EEE4sizeEv
FN:429,439,_ZNK6merkle5PathTILm32EXadL_ZNS_L15sha256_compressERKNS_5HashTILm32EEES4_RS2_EEE15serialised_sizeEv
FN:429,439,_ZNK6merkle5PathTILm48EXadL_ZNS_L14sha384_opensslERKNS_5HashTILm48EEES4_RS2_EEE15serialised_sizeEv
FN:429,439,_ZNK6merkle5PathTILm64EXadL_ZNS_L14sha512_opensslERKNS_5HashTILm64EEES4_RS2_EEE15serialised_sizeEv
FN:455,458,_ZNK6merkle5PathTILm32EXadL_ZNS_L15sha256_compressERKNS_5HashTILm32EEES4_RS2_EEEixEm
FN:455,458,_ZNK6merkle5PathTILm48EXadL_ZNS_L14sha384_opensslERKNS_5HashTILm48EEES4_RS2_EEEixEm
FN:455,458,_ZNK6merkle5PathTILm64EXadL_ZNS_L14sha512_opensslERKNS_5HashTILm64EEES4_RS2_EEEixEm
FN:464,467,_ZNK6merkle5PathTILm32EXadL_ZNS_L15sha256_compressERKNS_5HashTILm32EEES4_RS2_EEE5beginEv
FN:464,467,_ZNK6merkle5PathTILm48EXadL_ZNS_L14sha384_opensslERKNS_5HashTILm48EEES4_RS2_EEE5beginEv
FN:464,467,_ZNK6merkle5PathTILm64EXadL_ZNS_L14sha512_opensslERKNS_5HashTILm64EEES4_RS2_EEE5beginEv
FN:470,473,_ZNK6merkle5PathTILm32EXadL_ZNS_L15sha256_compressERKNS_5HashTILm32EEES4_RS2_EEE3endEv
FN:470,473,_ZNK6merkle5PathTILm48EXadL_ZNS_L14sha384_opensslERKNS_5HashTILm48EEES4_RS2_EEE3endEv
FN:470,473,_ZNK6merkle5PathTILm64EXadL_ZNS_L14sha512_opensslERKNS_5HashTILm64EEES4_RS2_EEE3endEv
FN:478,489,_ZNK6merkle5PathTILm32EXadL_ZNS_L15sha256_compressERKNS_5HashTILm32EEES4_RS2_EEE9to_stringEmb
FN:48,67,_ZN6merkleL18convert_endiannessEj
FN:492,495,_ZNK6merkle5PathTILm32EXadL_ZNS_L15sha256_compressERKNS_5HashTILm32EEES4_RS2_EEE4leafEv
FN:492,495,_ZNK6merkle5PathTILm48EXadL_ZNS_L14sha384_opensslERKNS_5HashTILm48EEES4_RS2_EEE4leafEv
FN:492,495,_ZNK6merkle5PathTILm64EXadL_ZNS_L14sha512_opensslERKNS_5HashTILm64EEES4_RS2_EEE4leafEv
FN:498,516,_ZNK6merkle5PathTILm32EXadL_ZNS_L15sha256_compressERKNS_5HashTILm32EEES4_RS2_EEEeqERKS6_
FN:519,522,_ZN6merkle5PathTILm32EXadL_ZNS_L15sha256_compressERKNS_5HashTILm32EEES4_RS2_EEEneERKS6_
FN:555,564,_ZN6merkle5TreeTILm32EXadL_ZNS_L14sha256_opensslERKNS_5HashTILm32EEES4_RS2_EEE4Node4makeES4_
FN:555,564,_ZN6merkle5TreeTILm32EXadL_ZNS_L15sha256_compressERKNS_5HashTILm32EEES4_RS2_EEE4Node4makeES4_
FN:555,564,_ZN6merkle5TreeTILm48EXadL_ZNS_L14sha384_opensslERKNS_5HashTILm48EEES4_RS2_EEE4Node4makeES4_
FN:555,564,_ZN6merkle5TreeTILm64EXadL_ZNS_L14sha512_opensslERKNS_5HashTILm64EEES4_RS2_EEE4Node4makeES4_
FN:569,579,_ZN6merkle5TreeTILm32EXadL_ZNS_L14sha256_opensslERKNS_5HashTILm32EEES4_RS2_EEE4Node4makeEPS7_S8_
FN:569,579,_ZN6merkle5TreeTILm32EXadL_ZNS_L15sha256_compressERKNS_5HashTILm32EEES4_RS2_EEE4Node4makeEPS7_S8_
FN:569,579,_ZN6merkle5TreeTILm48EXadL_ZNS_L14sha384_opensslERKNS_5HashTILm48EEES4_RS2_EEE4Node4makeEPS7_S8_
FN:569,579,_ZN6merkle5TreeTILm64EXadL_ZNS_L14sha512_opensslERKNS_5HashTILm64EEES4_RS2_EEE4Node4makeEPS7_S8_
FN:588,631,_ZN6merkle5TreeTILm32EXadL_ZNS_L15sha256_compressERKNS_5HashTILm32EEES4_RS2_EEE4Node9copy_nodeEPKS7_PSt6vectorIPS7_SaISB_EEPmmmm
FN:588,631,_ZN6merkle5TreeTILm48EXadL_ZNS_L14sha384_opensslERKNS_5HashTILm48EEES4_RS2_EEE4Node9copy_nodeEPKS7_PSt6vectorIPS7_SaISB_EEPmmmm
FN:588,631,_ZN6merkle5TreeTILm64EXadL_ZNS_L14sha512_opensslERKNS_5HashTILm64EEES4_RS2_EEE4Node9copy_nodeEPKS7_PSt6vectorIPS7_SaISB_EEPmmmm
FN:636,645,_ZN6merkle5TreeTILm32EXadL_ZNS_L14sha256_opensslERKNS_5HashTILm32EEES4_RS2_EEE4Node9invariantEv
FN:636,645,_ZN6merkle5TreeTILm32EXadL_ZNS_L15sha256_compressERKNS_5HashTILm32EEES4_RS2_EEE4Node9invariantEv
FN:636,645,_ZN6merkle5TreeTILm48EXadL_ZNS_L14sha384_opensslERKNS_5HashTILm48EEES4_RS2_EEE4Node9invariantEv
FN:636,645,_ZN6merkle5TreeTILm64EXadL_ZNS_L14sha512_opensslERKNS_5HashTILm64EEES4_RS2_EEE4Node9invariantEv
FN:647,654,_ZN6merkle5TreeTILm32EXadL_ZNS_L14sha256_opensslERKNS_5HashTILm32EEES4_RS2_EEE4NodeD2Ev
FN:647,654,_ZN6merkle5TreeTILm32EXadL_ZNS_L15sha256_compressERKNS_5HashTILm32EEES4_RS2_EEE4NodeD2Ev
FN:647,654,_ZN6merkle5TreeTILm48EXadL_ZNS_L14sha384_opensslERKNS_5HashTILm48EEES4_RS2_EEE4NodeD2Ev
FN:647,654,_ZN6merkle5TreeTILm64EXadL_ZNS_L14sha512_opensslERKNS_5HashTILm64EEES4_RS2_EEE4NodeD2Ev
FN:659,664,_ZNK6merkle5TreeTILm32EXadL_ZNS_L14sha256_opensslERKNS_5HashTILm32EEES4_RS2_EEE4Node7is_fullEv
FN:659,664,_ZNK6merkle5TreeTILm32EXadL_ZNS_L15sha256_compressERKNS_5HashTILm32EEES4_RS2_EEE4Node7is_fullEv
FN:659,664,_ZNK6merkle5TreeTILm48EXadL_ZNS_L14sha384_opensslERKNS_5HashTILm48EEES4_RS2_EEE4Node7is_fullEv
FN:659,664,_ZNK6merkle5TreeTILm64EXadL_ZNS_L14sha512_opensslERKNS_5HashTILm64EEES4_RS2_EEE4Node7is_fullEv
FN:667,678,_ZN6merkle5TreeTILm32EXadL_ZNS_L14sha256_opensslERKNS_5HashTILm32EEES4_RS2_EEE4Node12update_sizesEv
FN:667,678,_ZN6merkle5TreeTILm32EXadL_ZNS_L15sha256_compressERKNS_5HashTILm32EEES4_RS2_EEE4Node12update_sizesEv
FN:667,678,_ZN6merkle5TreeTILm48EXadL_ZNS_L14sha384_opensslERKNS_5HashTILm48EEES4_RS2_EEE4Node12update_sizesEv
FN:667,678,_ZN6merkle5TreeTILm64EXadL_ZNS_L14sha512_opensslERKNS_5HashTILm64EEES4_RS2_EEE4Node12update_sizesEv
FN:69,77,_ZN6merkleL18serialise_uint64_tEmRSt6vectorIhSaIhEE
FN:712,712,_ZN6merkle5TreeTILm32EXadL_ZNS_L14sha256_opensslERKNS_5HashTILm32EEES4_RS2_EEEC2Ev
FN:712,712,_ZN6merkle5TreeTILm32EXadL_ZNS_L15sha256_compressERKNS_5HashTILm32EEES4_RS2_EEEC2Ev
FN:712,712,_ZN6merkle5TreeTILm48EXadL_ZNS_L14sha384_opensslERKNS_5HashTILm48EEES4_RS2_EEEC2Ev
FN:712,712,_ZN6merkle5TreeTILm64EXadL_ZNS_L14sha512_opensslERKNS_5HashTILm64EEES4_RS2_EEEC2Ev
FN:715,718,_ZN6merkle5TreeTILm32EXadL_ZNS_L15sha256_compressERKNS_5HashTILm32EEES4_RS2_EEEC2ERKS6_
FN:715,718,_ZN6merkle5TreeTILm48EXadL_ZNS_L14sha384_opensslERKNS_5HashTILm48EEES4_RS2_EEEC2ERKS6_
FN:715,718,_ZN6merkle5TreeTILm64EXadL_ZNS_L14sha512_opensslERKNS_5HashTILm64EEES4_RS2_EEEC2ERKS6_
FN:734,737,_ZN6merkle5TreeTILm32EXadL_ZNS_L15sha256_compressERKNS_5HashTILm32EEES4_RS2_EEEC2ERKSt6vectorIhSaIhEE
FN:734,737,_ZN6merkle5TreeTILm48EXadL_ZNS_L14sha384_opensslERKNS_5HashTILm48EEES4_RS2_EEEC2ERKSt6vectorIhSaIhEE
FN:734,737,_ZN6merkle5TreeTILm64EXadL_ZNS_L14sha512_opensslERKNS_5HashTILm64EEES4_RS2_EEEC2ERKSt6vectorIhSaIhEE
FN:749,752,_ZN6merkle5TreeTILm32EXadL_ZNS_L15sha256_compressERKNS_5HashTILm32EEES4_RS2_EEEC2ES4_
FN:749,752,_ZN6merkle5TreeTILm48EXadL_ZNS_L14sha384_opensslERKNS_5HashTILm48EEES4_RS2_EEEC2ES4_
FN:749,752,_ZN6merkle5TreeTILm64EXadL_ZNS_L14sha512_opensslERKNS_5HashTILm64EEES4_RS2_EEEC2ES4_
FN:755,762,_ZN6merkle5TreeTILm32EXadL_ZNS_L14sha256_opensslERKNS_5HashTILm32EEES4_RS2_EEED2Ev
FN:755,762,_ZN6merkle5TreeTILm32EXadL_ZNS_L15sha256_compressERKNS_5HashTILm32EEES4_RS2_EEED2Ev
FN:755,762,_ZN6merkle5TreeTILm48EXadL_ZNS_L14sha384_opensslERKNS_5HashTILm48EEES4_RS2_EEED2Ev
FN:755,762,_ZN6merkle5TreeTILm64EXadL_ZNS_L14sha512_opensslERKNS_5HashTILm64EEES4_RS2_EEED2Ev
FN:765,768,_ZN6merkle5TreeTILm32EXadL_ZNS_L15sha256_compressERKNS_5HashTILm32EEES4_RS2_EEE9invariantEv
FN:779,786,_ZN6merkle5TreeTILm32EXadL_ZNS_L14sha256_opensslERKNS_5HashTILm32EEES4_RS2_EEE6insertES4_
FN:779,786,_ZN6merkle5TreeTILm32EXadL_ZNS_L15sha256_compressERKNS_5HashTILm32EEES4_RS2_EEE6insertES4_
FN:779,786,_ZN6merkle5TreeTILm48EXadL_ZNS_L14sha384_opensslERKNS_5HashTILm48EEES4_RS2_EEE6insertES4_
FN:779,786,_ZN6merkle5TreeTILm64EXadL_ZNS_L14sha512_opensslERKNS_5HashTILm64EEES4_RS2_EEE6insertES4_
FN:79,89,_ZN6merkleL20deserialise_uint64_tERKSt6vectorIhSaIhEERm
FN:812,845,_ZN6merkle5TreeTILm32EXadL_ZNS_L15sha256_compressERKNS_5HashTILm32EEES4_RS2_EEE8flush_toEm
FN:812,845,_ZN6merkle5TreeTILm48EXadL_ZNS_L14sha384_opensslERKNS_5HashTILm48EEES4_RS2_EEE8flush_toEm
FN:812,845,_ZN6merkle5TreeTILm64EXadL_ZNS_L14sha512_opensslERKNS_5HashTILm64EEES4_RS2_EEE8flush_toEm
FN:822,822,_ZZN6merkle5TreeTILm32EXadL_ZNS_L15sha256_compressERKNS_5HashTILm32EEES4_RS2_EEE8flush_toEmENKUlRPNS6_4NodeEbE_clES9_b
FN:822,822,_ZZN6merkle5TreeTILm48EXadL_ZNS_L14sha384_opensslERKNS_5HashTILm48EEES4_RS2_EEE8flush_toEmENKUlRPNS6_4NodeEbE_clES9_b
FN:822,822,_ZZN6merkle5TreeTILm64EXadL_ZNS_L14sha512_opensslERKNS_5HashTILm64EEES4_RS2_EEE8flush_toEmENKUlRPNS6_4NodeEbE_clES9_b
FN:851,937,_ZN6merkle5TreeTILm32EXadL_ZNS_L15sha256_compressERKNS_5HashTILm32EEES4_RS2_EEE10retract_toEm
FN:851,937,_ZN6merkle5TreeTILm48EXadL_ZNS_L14sha384_opensslERKNS_5HashTILm48EEES4_RS2_EEE10retract_toEm
FN:851,937,_ZN6merkle5TreeTILm64EXadL_ZNS_L14sha512_opensslERKNS_5HashTILm64EEES4_RS2_EEE10retract_toEm
FN:878,878,_ZZN6merkle5TreeTILm32EXadL_ZNS_L15sha256_compressERKNS_5HashTILm32EEES4_RS2_EEE10retract_toEmENKUlRPNS6_4NodeEbE_clES9_b
FN:878,878,_ZZN6merkle5TreeTILm48EXadL_ZNS_L14sha384_opensslERKNS_5HashTILm48EEES4_RS2_EEE10retract_toEmENKUlRPNS6_4NodeEbE_clES9_b
FN:878,878,_ZZN6merkle5TreeTILm64EXadL_ZNS_L14sha512_opensslERKNS_5HashTILm64EEES4_RS2_EEE10retract_toEmENKUlRPNS6_4NodeEbE_clES9_b
FN:942,969,_ZN6merkle5TreeTILm32EXadL_ZNS_L15sha256_compressERKNS_5HashTILm32EEES4_RS2_EEEaSERKS6_
FN:942,969,_ZN6merkle5TreeTILm48EXadL_ZNS_L14sha384_opensslERKNS_5HashTILm48EEES4_RS2_EEEaSERKS6_
FN:942,969,_ZN6merkle5TreeTILm64EXadL_ZNS_L14sha512_opensslERKNS_5HashTILm64EEES4_RS2_EEEaSERKS6_
FN:973,983,_ZN6merkle5TreeTILm32EXadL_ZNS_L14sha256_opensslERKNS_5HashTILm32EEES4_RS2_EEE4rootEv
FN:973,983,_ZN6merkle5TreeTILm32EXadL_ZNS_L15sha256_compressERKNS_5HashTILm32EEES4_RS2_EEE4rootEv
FN:973,983,_ZN6merkle5TreeTILm48EXadL_ZNS_L14sha384_opensslERKNS_5HashTILm48EEES4_RS2_EEE4rootEv
FN:973,983,_ZN6merkle5TreeTILm64EXadL_ZNS_L14sha512_opensslERKNS_5HashTILm64EEES4_RS2_EEE4rootEv
FN:992,1014,_ZN6merkle5TreeTILm32EXadL_ZNS_L15sha256_compressERKNS_5HashTILm32EEES4_RS2_EEE9past_rootEm
FN:992,1014,_ZN6merkle5TreeTILm48EXadL_ZNS_L14sha384_opensslERKNS_5HashTILm48EEES4_RS2_EEE9past_rootEm
FN:992,1014,_ZN6merkle5TreeTILm64EXadL_ZNS_L14sha512_opensslERKNS_5HashTILm64EEES4_RS2_EEE9past_rootEm
FNDA:69094572,_ZN6merkle5HashTILm32EEC2Ev
FNDA:1049113,_ZN6merkle5HashTILm48EEC2Ev
FNDA:1049113,_ZN6merkle5HashTILm64EEC2Ev
FNDA:2,_ZN6merkle5TreeTILm32EXadL_ZNS_L14sha256_opensslERKNS_5HashTILm32EEES4_RS2_EEE7walk_toEmbOKSt8functionIFbRPNS6_4NodeEbEE
FNDA:262706,_ZN6merkle5TreeTILm32EXadL_ZNS_L15sha256_compressERKNS_5HashTILm32EEES4_RS2_EEE7walk_toEmbOKSt8functionIFbRPNS6_4NodeEbEE
FNDA:79,_ZN6merkle5TreeTILm48EXadL_ZNS_L14sha384_opensslERKNS_5HashTILm48EEES4_RS2_EEE7walk_toEmbOKSt8functionIFbRPNS6_4NodeEbEE
FNDA:79,_ZN6merkle5TreeTILm64EXadL_ZNS_L14sha512_opensslERKNS_5HashTILm64EEES4_RS2_EEE7walk_toEmbOKSt8functionIFbRPNS6_4NodeEbEE
FNDA:16787,_ZN6merkle5HashTILm32EEC2EPKh
FNDA:3,_ZN6merkle5HashTILm48EEC2EPKh
FNDA:3,_ZN6merkle5HashTILm64EEC2EPKh
FNDA:2,_ZN6merkle5TreeTILm32EXadL_ZNS_L14sha256_opensslERKNS_5HashTILm32EEES4_RS2_EEE4pathEm
FNDA:43296,_ZN6merkle5TreeTILm32EXadL_ZNS_L15sha256_compressERKNS_5HashTILm32EEES4_RS2_EEE4pathEm
FNDA:72,_ZN6merkle5TreeTILm48EXadL_ZNS_L14sha384_opensslERKNS_5HashTILm48EEES4_RS2_EEE4pathEm
FNDA:72,_ZN6merkle5TreeTILm64EXadL_ZNS_L14sha512_opensslERKNS_5HashTILm64EEES4_RS2_EEE4pathEm
FNDA:4,_ZZN6merkle5TreeTILm32EXadL_ZNS_L14sha256_opensslERKNS_5HashTILm32EEES4_RS2_EEE4pathEmENKUlPNS6_4NodeEbE_clES8_b
FNDA:498103,_ZZN6merkle5TreeTILm32EXadL_ZNS_L15sha256_compressERKNS_5HashTILm32EEES4_RS2_EEE4pathEmENKUlPNS6_4NodeEbE_clES8_b
FNDA:387,_ZZN6merkle5TreeTILm48EXadL_ZNS_L14sha384_opensslERKNS_5HashTILm48EEES4_RS2_EEE4pathEmENKUlPNS6_4NodeEbE_clES8_b
FNDA:387,_ZZN6merkle5TreeTILm64EXadL_ZNS_L14sha512_opensslERKNS_5HashTILm64EEES4_RS2_EEE4pathEmENKUlPNS6_4NodeEbE_clES8_b
FNDA:4700,_ZN6merkle5TreeTILm32EXadL_ZNS_L15sha256_compressERKNS_5HashTILm32EEES4_RS2_EEE9past_pathEmm
FNDA:5,_ZN6merkle5TreeTILm48EXadL_ZNS_L14sha384_opensslERKNS_5HashTILm48EEES4_RS2_EEE9past_pathEmm
FNDA:5,_ZN6merkle5TreeTILm64EXadL_ZNS_L14sha512_opensslERKNS_5HashTILm64EEES4_RS2_EEE9past_pathEmm
FNDA:70,_ZN6merkle5TreeTILm32EXadL_ZNS_L15sha256_compressERKNS_5HashTILm32EEES4_RS2_EEE9serialiseERSt6vectorIhSaIhEE
FNDA:3,_ZN6merkle5TreeTILm48EXadL_ZNS_L14sha384_opensslERKNS_5HashTILm48EEES4_RS2_EEE9serialiseERSt6vectorIhSaIhEE
FNDA:3,_ZN6merkle5TreeTILm64EXadL_ZNS_L14sha512_opensslERKNS_5HashTILm64EEES4_RS2_EEE9serialiseERSt6vectorIhSaIhEE
FNDA:637,_ZZN6merkle5TreeTILm32EXadL_ZNS_L15sha256_compressERKNS_5HashTILm32EEES4_RS2_EEE9serialiseERSt6vectorIhSaIhEEENKUlRPNS6_4NodeEbE_clESD_b
FNDA:1,_ZZN6merkle5TreeTILm48EXadL_ZNS_L14sha384_opensslERKNS_5HashTILm48EEES4_RS2_EEE9serialiseERSt6vectorIhSaIhEEENKUlRPNS6_4NodeEbE_clESD_b
FNDA:1,_ZZN6merkle5TreeTILm64EXadL_ZNS_L14sha512_opensslERKNS_5HashTILm64EEES4_RS2_EEE9serialiseERSt6vectorIhSaIhEEENKUlRPNS6_4NodeEbE_clESD_b
FNDA:2008,_ZN6merkle5TreeTILm32EXadL_ZNS_L15sha256_compressERKNS_5HashTILm32EEES4_RS2_EEE9serialiseEmmRSt6vectorIhSaIhEE
FNDA:16864,_ZZN6merkle5TreeTILm32EXadL_ZNS_L15sha256_compressERKNS_5HashTILm32EEES4_RS2_EEE9serialiseEmmRSt6vectorIhSaIhEEENKUlRPNS6_4NodeEbE_clESD_b
FNDA:2079,_ZN6merkle5TreeTILm32EXadL_ZNS_L15sha256_compressERKNS_5HashTILm32EEES4_RS2_EEE11deserialiseERKSt6vectorIhSaIhEE
FNDA:3,_ZN6merkle5TreeTILm48EXadL_ZNS_L14sha384_opensslERKNS_5HashTILm48EEES4_RS2_EEE11deserialiseERKSt6vectorIhSaIhEE
FNDA:3,_ZN6merkle5TreeTILm64EXadL_ZNS_L14sha512_opensslERKNS_5HashTILm64EEES4_RS2_EEE11deserialiseERKSt6vectorIhSaIhEE
FNDA:2079,_ZN6merkle5TreeTILm32EXadL_ZNS_L15sha256_compressERKNS_5HashTILm32EEES4_RS2_EEE11deserialiseERKSt6vectorIhSaIhEERm
FNDA:3,_ZN6merkle5TreeTILm48EXadL_ZNS_L14sha384_opensslERKNS_5HashTILm48EEES4_RS2_EEE11deserialiseERKSt6vectorIhSaIhEERm
FNDA:3,_ZN6merkle5TreeTILm64EXadL_ZNS_L14sha512_opensslERKNS_5HashTILm64EEES4_RS2_EEE11deserialiseERKSt6vectorIhSaIhEERm
FNDA:12054,_ZN6merkle5HashTILm32EEC2ERKSt6vectorIhSaIhEERm
FNDA:0,_ZN6merkle5HashTILm48EEC2ERKSt6vectorIhSaIhEERm
FNDA:0,_ZN6merkle5HashTILm64EEC2ERKSt6vectorIhSaIhEERm
FNDA:15433,_ZNK6merkle5TreeTILm32EXadL_ZNS_L15sha256_compressERKNS_5HashTILm32EEES4_RS2_EEE4leafEm
FNDA:3,_ZNK6merkle5TreeTILm48EXadL_ZNS_L14sha384_opensslERKNS_5HashTILm48EEES4_RS2_EEE4leafEm
FNDA:3,_ZNK6merkle5TreeTILm64EXadL_ZNS_L14sha512_opensslERKNS_5HashTILm64EEES4_RS2_EEE4leafEm
FNDA:2060,_ZNK6merkle5TreeTILm32EXadL_ZNS_L14sha256_opensslERKNS_5HashTILm32EEES4_RS2_EEE10num_leavesEv
FNDA:27996964,_ZNK6merkle5TreeTILm32EXadL_ZNS_L15sha256_compressERKNS_5HashTILm32EEES4_RS2_EEE10num_leavesEv
FNDA:4446,_ZNK6merkle5TreeTILm48EXadL_ZNS_L14sha384_opensslERKNS_5HashTILm48EEES4_RS2_EEE10num_leavesEv
FNDA:4446,_ZNK6merkle5TreeTILm64EXadL_ZNS_L14sha512_opensslERKNS_5HashTILm64EEES4_RS2_EEE10num_leavesEv
FNDA:2,_ZNK6merkle5TreeTILm32EXadL_ZNS_L14sha256_opensslERKNS_5HashTILm32EEES4_RS2_EEE9min_indexEv
FNDA:11065069,_ZNK6merkle5TreeTILm32EXadL_ZNS_L15sha256_compressERKNS_5HashTILm32EEES4_RS2_EEE9min_indexEv
FNDA:108,_ZNK6merkle5TreeTILm48EXadL_ZNS_L14sha384_opensslERKNS_5HashTILm48EEES4_RS2_EEE9min_indexEv
FNDA:108,_ZNK6merkle5TreeTILm64EXadL_ZNS_L14sha512_opensslERKNS_5HashTILm64EEES4_RS2_EEE9min_indexEv
FNDA:4,_ZNK6merkle5TreeTILm32EXadL_ZNS_L14sha256_opensslERKNS_5HashTILm32EEES4_RS2_EEE9max_indexEv
FNDA:27528219,_ZNK6merkle5TreeTILm32EXadL_ZNS_L15sha256_compressERKNS_5HashTILm32EEES4_RS2_EEE9max_indexEv
FNDA:169,_ZNK6merkle5TreeTILm48EXadL_ZNS_L14sha384_opensslERKNS_5HashTILm48EEES4_RS2_EEE9max_indexEv
FNDA:169,_ZNK6merkle5TreeTILm64EXadL_ZNS_L14sha512_opensslERKNS_5HashTILm64EEES4_RS2_EEE9max_indexEv
FNDA:4215,_ZNK6merkle5TreeTILm32EXadL_ZNS_L15sha256_compressERKNS_5HashTILm32EEES4_RS2_EEE5emptyEv
FNDA:4,_ZNK6merkle5TreeTILm48EXadL_ZNS_L14sha384_opensslERKNS_5HashTILm48EEES4_RS2_EEE5emptyEv
FNDA:4,_ZNK6merkle5TreeTILm64EXadL_ZNS_L14sha512_opensslERKNS_5HashTILm64EEES4_RS2_EEE5emptyEv
FNDA:129,_ZN6merkle5TreeTILm32EXadL_ZNS_L15sha256_compressERKNS_5HashTILm32EEES4_RS2_EEE4sizeEv
FNDA:1,_ZN6merkle5TreeTILm48EXadL_ZNS_L14sha384_opensslERKNS_5HashTILm48EEES4_RS2_EEE4sizeEv
FNDA:1,_ZN6merkle5TreeTILm64EXadL_ZNS_L14sha512_opensslERKNS_5HashTILm64EEES4_RS2_EEE4sizeEv
FNDA:2136,_ZN6merkle5TreeTILm32EXadL_ZNS_L15sha256_compressERKNS_5HashTILm32EEES4_RS2_EEE15serialised_sizeEv
FNDA:16688,_ZZN6merkle5TreeTILm32EXadL_ZNS_L15sha256_compressERKNS_5HashTILm32EEES4_RS2_EEE15serialised_sizeEvENKUlRPNS6_4NodeEbE_clES9_b
FNDA:2008,_ZN6merkle5TreeTILm32EXadL_ZNS_L15sha256_compressERKNS_5HashTILm32EEES4_RS2_EEE15serialised_sizeEmm
FNDA:16864,_ZZN6merkle5TreeTILm32EXadL_ZNS_L15sha256_compressERKNS_5HashTILm32EEES4_RS2_EEE15serialised_sizeEmmENKUlRPNS6_4NodeEbE_clES9_b
FNDA:1,_ZNK6merkle5HashTILm32EE4sizeEv
FNDA:1,_ZNK6merkle5HashTILm48EE4sizeEv
FNDA:1,_ZNK6merkle5HashTILm64EE4sizeEv
FNDA:4,_ZNK6merkle5TreeTILm32EXadL_ZNS_L15sha256_compressERKNS_5HashTILm32EEES4_RS2_EEE10Statistics9to_stringEv
FNDA:2,_ZNK6merkle5TreeTILm48EXadL_ZNS_L14sha384_opensslERKNS_5HashTILm48EEES4_RS2_EEE10Statistics9to_stringEv
FNDA:2,_ZNK6merkle5TreeTILm64EXadL_ZNS_L14sha512_opensslERKNS_5HashTILm64EEES4_RS2_EEE10Statistics9to_stringEv
FNDA:2,_ZNK6merkle5TreeTILm32EXadL_ZNS_L15sha256_compressERKNS_5HashTILm32EEES4_RS2_EEE9to_stringEm
FNDA:2,_ZNK6merkle5TreeTILm32EXadL_ZNS_L14sha256_opensslERKNS_5HashTILm32EEES4_RS2_EEE9leaf_nodeEm
FNDA:47991,_ZNK6merkle5TreeTILm32EXadL_ZNS_L15sha256_compressERKNS_5HashTILm32EEES4_RS2_EEE9leaf_nodeEm
FNDA:72,_ZNK6merkle5TreeTILm48EXadL_ZNS_L14sha384_opensslERKNS_5HashTILm48EEES4_RS2_EEE9leaf_nodeEm
FNDA:72,_ZNK6merkle5TreeTILm64EXadL_ZNS_L14sha512_opensslERKNS_5HashTILm64EEES4_RS2_EEE9leaf_nodeEm
FNDA:2050,_ZNK6merkle5TreeTILm32EXadL_ZNS_L14sha256_opensslERKNS_5HashTILm32EEES4_RS2_EEE4hashEPNS6_4NodeEm
FNDA:247473,_ZNK6merkle5TreeTILm32EXadL_ZNS_L15sha256_compressERKNS_5HashTILm32EEES4_RS2_EEE4hashEPNS6_4NodeEm
FNDA:4101,_ZNK6merkle5TreeTILm48EXadL_ZNS_L14sha384_opensslERKNS_5HashTILm48EEES4_RS2_EEE4hashEPNS6_4NodeEm
FNDA:4101,_ZNK6merkle5TreeTILm64EXadL_ZNS_L14sha512_opensslERKNS_5HashTILm64EEES4_RS2_EEE4hashEPNS6_4NodeEm
FNDA:148,_ZNK6merkle5HashTILm32EE9to_stringB5cxx11Emb
FNDA:2054,_ZN6merkle5TreeTILm32EXadL_ZNS_L14sha256_opensslERKNS_5HashTILm32EEES4_RS2_EEE12compute_rootEv
FNDA:312868,_ZN6merkle5TreeTILm32EXadL_ZNS_L15sha256_compressERKNS_5HashTILm32EEES4_RS2_EEE12compute_rootEv
FNDA:4192,_ZN6merkle5TreeTILm48EXadL_ZNS_L14sha384_opensslERKNS_5HashTILm48EEES4_RS2_EEE12compute_rootEv
FNDA:4192,_ZN6merkle5TreeTILm64EXadL_ZNS_L14sha512_opensslERKNS_5HashTILm64EEES4_RS2_EEE12compute_rootEv
FNDA:262162,_ZN6merkle5TreeTILm32EXadL_ZNS_L14sha256_opensslERKNS_5HashTILm32EEES4_RS2_EEE24continue_insertion_stackEPNS6_4NodeES8_
FNDA:9747432,_ZN6merkle5TreeTILm32EXadL_ZNS_L15sha256_compressERKNS_5HashTILm32EEES4_RS2_EEE24continue_insertion_stackEPNS6_4NodeES8_
FNDA:524349,_ZN6merkle5TreeTILm48EXadL_ZNS_L14sha384_opensslERKNS_5HashTILm48EEES4_RS2_EEE24continue_insertion_stackEPNS6_4NodeES8_
FNDA:524349,_ZN6merkle5TreeTILm64EXadL_ZNS_L14sha512_opensslERKNS_5HashTILm64EEES4_RS2_EEE24continue_insertion_stackEPNS6_4NodeES8_
FNDA:264098,_ZN6merkle5TreeTILm32EXadL_ZNS_L14sha256_opensslERKNS_5HashTILm32EEES4_RS2_EEE23process_insertion_stackEb
FNDA:9982667,_ZN6merkle5TreeTILm32EXadL_ZNS_L15sha256_compressERKNS_5HashTILm32EEES4_RS2_EEE23process_insertion_stackEb
FNDA:528221,_ZN6merkle5TreeTILm48EXadL_ZNS_L14sha384_opensslERKNS_5HashTILm48EEES4_RS2_EEE23process_insertion_stackEb
FNDA:528221,_ZN6merkle5TreeTILm64EXadL_ZNS_L14sha512_opensslERKNS_5HashTILm64EEES4_RS2_EEE23process_insertion_stackEb
FNDA:262166,_ZN6merkle5TreeTILm32EXadL_ZNS_L14sha256_opensslERKNS_5HashTILm32EEES4_RS2_EEE11insert_leafERPNS6_4NodeES8_
FNDA:9748431,_ZN6merkle5TreeTILm32EXadL_ZNS_L15sha256_compressERKNS_5HashTILm32EEES4_RS2_EEE11insert_leafERPNS6_4NodeES8_
FNDA:524357,_ZN6merkle5TreeTILm48EXadL_ZNS_L14sha384_opensslERKNS_5HashTILm48EEES4_RS2_EEE11insert_leafERPNS6_4NodeES8_
FNDA:524357,_ZN6merkle5TreeTILm64EXadL_ZNS_L14sha512_opensslERKNS_5HashTILm64EEES4_RS2_EEE11insert_leafERPNS6_4NodeES8_
FNDA:2054,_ZN6merkle5TreeTILm32EXadL_ZNS_L14sha256_opensslERKNS_5HashTILm32EEES4_RS2_EEE13insert_leavesEb
FNDA:312868,_ZN6merkle5TreeTILm32EXadL_ZNS_L15sha256_compressERKNS_5HashTILm32EEES4_RS2_EEE13insert_leavesEb
FNDA:4192,_ZN6merkle5TreeTILm48EXadL_ZNS_L14sha384_opensslERKNS_5HashTILm48EEES4_RS2_EEE13insert_leavesEb
FNDA:4192,_ZN6merkle5TreeTILm64EXadL_ZNS_L14sha512_opensslERKNS_5HashTILm64EEES4_RS2_EEE13insert_leavesEb
FNDA:59172638,_ZN6merkle5HashTILm32EEaSERKS1_
FNDA:524755,_ZN6merkle5HashTILm48EEaSERKS1_
FNDA:524755,_ZN6merkle5HashTILm64EEaSERKS1_
FNDA:11583318,_ZN6merkleL15sha256_compressERKNS_5HashTILm32EEES3_RS1_
FNDA:11677,_ZNK6merkle5HashTILm32EEeqERKS1_
FNDA:82,_ZNK6merkle5HashTILm48EEeqERKS1_
FNDA:82,_ZNK6merkle5HashTILm64EEeqERKS1_
FNDA:272406,_ZN6merkleL14sha256_opensslERKNS_5HashTILm32EEES3_RS1_
FNDA:545218,_ZN6merkleL14sha384_opensslERKNS_5HashTILm48EEES3_RS1_
FNDA:545218,_ZN6merkleL14sha512_opensslERKNS_5HashTILm64EEES3_RS1_
FNDA:87270,_ZNK6merkle5HashTILm32EEneERKS1_
FNDA:64150,_ZNK6merkle5HashTILm32EE9serialiseERSt6vectorIhSaIhEE
FNDA:451,_ZNK6merkle5HashTILm48EE9serialiseERSt6vectorIhSaIhEE
FNDA:451,_ZNK6merkle5HashTILm64EE9serialiseERSt6vectorIhSaIhEE
FNDA:12054,_ZN6merkle5HashTILm32EE11deserialiseERKSt6vectorIhSaIhEERm
FNDA:0,_ZN6merkle5HashTILm48EE11deserialiseERKSt6vectorIhSaIhEERm
FNDA:0,_ZN6merkle5HashTILm64EE11deserialiseERKSt6vectorIhSaIhEERm
FNDA:2,_ZN6merkle5PathTILm32EXadL_ZNS_L14sha256_opensslERKNS_5HashTILm32EEES4_RS2_EEEC2ES4_mONSt7__cxx114listINS6_Ut0_ESaIS9_EEEm
FNDA:47991,_ZN6merkle5PathTILm32EXadL_ZNS_L15sha256_compressERKNS_5HashTILm32EEES4_RS2_EEEC2ES4_mONSt7__cxx114listINS6_Ut0_ESaIS9_EEEm
FNDA:72,_ZN6merkle5PathTILm48EXadL_ZNS_L14sha384_opensslERKNS_5HashTILm48EEES4_RS2_EEEC2ES4_mONSt7__cxx114listINS6_Ut0_ESaIS9_EEEm
FNDA:72,_ZN6merkle5PathTILm64EXadL_ZNS_L14sha512_opensslERKNS_5HashTILm64EEES4_RS2_EEEC2ES4_mONSt7__cxx114listINS6_Ut0_ESaIS9_EEEm
FNDA:2,_ZNK6merkle5PathTILm32EXadL_ZNS_L14sha256_opensslERKNS_5HashTILm32EEES4_RS2_EEE4rootEv
FNDA:15025,_ZNK6merkle5PathTILm32EXadL_ZNS_L15sha256_compressERKNS_5HashTILm32EEES4_RS2_EEE4rootEv
FNDA:69,_ZNK6merkle5PathTILm48EXadL_ZNS_L14sha384_opensslERKNS_5HashTILm48EEES4_RS2_EEE4rootEv
FNDA:69,_ZNK6merkle5PathTILm64EXadL_ZNS_L14sha512_opensslERKNS_5HashTILm64EEES4_RS2_EEE4rootEv
FNDA:2,_ZNK6merkle5PathTILm32EXadL_ZNS_L14sha256_opensslERKNS_5HashTILm32EEES4_RS2_EEE6verifyES4_
FNDA:9646,_ZNK6merkle5PathTILm32EXadL_ZNS_L15sha256_compressERKNS_5HashTILm32EEES4_RS2_EEE6verifyES4_
FNDA:64,_ZNK6merkle5PathTILm48EXadL_ZNS_L14sha384_opensslERKNS_5HashTILm48EEES4_RS2_EEE6verifyES4_
FNDA:64,_ZNK6merkle5PathTILm64EXadL_ZNS_L14sha512_opensslERKNS_5HashTILm64EEES4_RS2_EEE6verifyES4_
FNDA:2264,_ZNK6merkle5PathTILm32EXadL_ZNS_L15sha256_compressERKNS_5HashTILm32EEES4_RS2_EEE9serialiseERSt6vectorIhSaIhEE
FNDA:64,_ZNK6merkle5PathTILm48EXadL_ZNS_L14sha384_opensslERKNS_5HashTILm48EEES4_RS2_EEE9serialiseERSt6vectorIhSaIhEE
FNDA:64,_ZNK6merkle5PathTILm64EXadL_ZNS_L14sha512_opensslERKNS_5HashTILm64EEES4_RS2_EEE9serialiseERSt6vectorIhSaIhEE
FNDA:22,_ZNK6merkle5PathTILm32EXadL_ZNS_L15sha256_compressERKNS_5HashTILm32EEES4_RS2_EEEcvSt6vectorIhSaIhEEEv
FNDA:2,_ZNK6merkle5PathTILm32EXadL_ZNS_L15sha256_compressERKNS_5HashTILm32EEES4_RS2_EEE4sizeEv
FNDA:2,_ZNK6merkle5PathTILm48EXadL_ZNS_L14sha384_opensslERKNS_5HashTILm48EEES4_RS2_EEE4sizeEv
FNDA:2,_ZNK6merkle5PathTILm64EXadL_ZNS_L14sha512_opensslERKNS_5HashTILm64EEES4_RS2_EEE4sizeEv
FNDA:2242,_ZNK6merkle5PathTILm32EXadL_ZNS_L15sha256_compressERKNS_5HashTILm32EEES4_RS2_EEE15serialised_sizeEv
FNDA:64,_ZNK6merkle5PathTILm48EXadL_ZNS_L14sha384_opensslERKNS_5HashTILm48EEES4_RS2_EEE15serialised_sizeEv
FNDA:64,_ZNK6merkle5PathTILm64EXadL_ZNS_L14sha512_opensslERKNS_5HashTILm64EEES4_RS2_EEE15serialised_sizeEv
FNDA:1,_ZNK6merkle5PathTILm32EXadL_ZNS_L15sha256_compressERKNS_5HashTILm32EEES4_RS2_EEEixEm
FNDA:1,_ZNK6merkle5PathTILm48EXadL_ZNS_L14sha384_opensslERKNS_5HashTILm48EEES4_RS2_EEEixEm
FNDA:1,_ZNK6merkle5PathTILm64EXadL_ZNS_L14sha512_opensslERKNS_5HashTILm64EEES4_RS2_EEEixEm
FNDA:36335,_ZNK6merkle5PathTILm32EXadL_ZNS_L15sha256_compressERKNS_5HashTILm32EEES4_RS2_EEE5beginEv
FNDA:4,_ZNK6merkle5PathTILm48EXadL_ZNS_L14sha384_opensslERKNS_5HashTILm48EEES4_RS2_EEE5beginEv
FNDA:4,_ZNK6merkle5PathTILm64EXadL_ZNS_L14sha512_opensslERKNS_5HashTILm64EEES4_RS2_EEE5beginEv
FNDA:36334,_ZNK6merkle5PathTILm32EXadL_ZNS_L15sha256_compressERKNS_5HashTILm32EEES4_RS2_EEE3endEv
FNDA:3,_ZNK6merkle5PathTILm48EXadL_ZNS_L14sha384_opensslERKNS_5HashTILm48EEES4_RS2_EEE3endEv
FNDA:3,_ZNK6merkle5PathTILm64EXadL_ZNS_L14sha512_opensslERKNS_5HashTILm64EEES4_RS2_EEE3endEv
FNDA:22,_ZNK6merkle5PathTILm32EXadL_ZNS_L15sha256_compressERKNS_5HashTILm32EEES4_RS2_EEE9to_stringEmb
FNDA:277999632,_ZN6merkleL18convert_endiannessEj
FNDA:36334,_ZNK6merkle5PathTILm32EXadL_ZNS_L15sha256_compressERKNS_5HashTILm32EEES4_RS2_EEE4leafEv
FNDA:5,_ZNK6merkle5PathTILm48EXadL_ZNS_L14sha384_opensslERKNS_5HashTILm48EEES4_RS2_EEE4leafEv
FNDA:5,_ZNK6merkle5PathTILm64EXadL_ZNS_L14sha512_opensslERKNS_5HashTILm64EEES4_RS2_EEE4leafEv
FNDA:4695,_ZNK6merkle5PathTILm32EXadL_ZNS_L15sha256_compressERKNS_5HashTILm32EEES4_RS2_EEEeqERKS6_
FNDA:2687,_ZN6merkle5PathTILm32EXadL_ZNS_L15sha256_compressERKNS_5HashTILm32EEES4_RS2_EEEneERKS6_
FNDA:262166,_ZN6merkle5TreeTILm32EXadL_ZNS_L14sha256_opensslERKNS_5HashTILm32EEES4_RS2_EEE4Node4makeES4_
FNDA:58190934,_ZN6merkle5TreeTILm32EXadL_ZNS_L15sha256_compressERKNS_5HashTILm32EEES4_RS2_EEE4Node4makeES4_
FNDA:524363,_ZN6merkle5TreeTILm48EXadL_ZNS_L14sha384_opensslERKNS_5HashTILm48EEES4_RS2_EEE4Node4makeES4_
FNDA:524363,_ZN6merkle5TreeTILm64EXadL_ZNS_L14sha512_opensslERKNS_5HashTILm64EEES4_RS2_EEE4Node4makeES4_
FNDA:262162,_ZN6merkle5TreeTILm32EXadL_ZNS_L14sha256_opensslERKNS_5HashTILm32EEES4_RS2_EEE4Node4makeEPS7_S8_
FNDA:9774195,_ZN6merkle5TreeTILm32EXadL_ZNS_L15sha256_compressERKNS_5HashTILm32EEES4_RS2_EEE4Node4makeEPS7_S8_
FNDA:524350,_ZN6merkle5TreeTILm48EXadL_ZNS_L14sha384_opensslERKNS_5HashTILm48EEES4_RS2_EEE4Node4makeEPS7_S8_
FNDA:524350,_ZN6merkle5TreeTILm64EXadL_ZNS_L14sha512_opensslERKNS_5HashTILm64EEES4_RS2_EEE4Node4makeEPS7_S8_
FNDA:68917663,_ZN6merkle5TreeTILm32EXadL_ZNS_L15sha256_compressERKNS_5HashTILm32EEES4_RS2_EEE4Node9copy_nodeEPKS7_PSt6vectorIPS7_SaISB_EEPmmmm
FNDA:7,_ZN6merkle5TreeTILm48EXadL_ZNS_L14sha384_opensslERKNS_5HashTILm48EEES4_RS2_EEE4Node9copy_nodeEPKS7_PSt6vectorIPS7_SaISB_EEPmmmm
FNDA:7,_ZN6merkle5TreeTILm64EXadL_ZNS_L14sha512_opensslERKNS_5HashTILm64EEES4_RS2_EEE4Node9copy_nodeEPKS7_PSt6vectorIPS7_SaISB_EEPmmmm
FNDA:1010318518,_ZN6merkle5TreeTILm32EXadL_ZNS_L14sha256_opensslERKNS_5HashTILm32EEES4_RS2_EEE4Node9invariantEv
FNDA:7291949408,_ZN6merkle5TreeTILm32EXadL_ZNS_L15sha256_compressERKNS_5HashTILm32EEES4_RS2_EEE4Node9invariantEv
FNDA:2020663601,_ZN6merkle5TreeTILm48EXadL_ZNS_L14sha384_opensslERKNS_5HashTILm48EEES4_RS2_EEE4Node9invariantEv
FNDA:2020663601,_ZN6merkle5TreeTILm64EXadL_ZNS_L14sha512_opensslERKNS_5HashTILm64EEES4_RS2_EEE4Node9invariantEv
FNDA:524328,_ZN6merkle5TreeTILm32EXadL_ZNS_L14sha256_opensslERKNS_5HashTILm32EEES4_RS2_EEE4NodeD2Ev
FNDA:67965129,_ZN6merkle5TreeTILm32EXadL_ZNS_L15sha256_compressERKNS_5HashTILm32EEES4_RS2_EEE4NodeD2Ev
FNDA:1048713,_ZN6merkle5TreeTILm48EXadL_ZNS_L14sha384_opensslERKNS_5HashTILm48EEES4_RS2_EEE4NodeD2Ev
FNDA:1048713,_ZN6merkle5TreeTILm64EXadL_ZNS_L14sha512_opensslERKNS_5HashTILm64EEES4_RS2_EEE4NodeD2Ev
FNDA:1453978,_ZNK6merkle5TreeTILm32EXadL_ZNS_L14sha256_opensslERKNS_5HashTILm32EEES4_RS2_EEE4Node7is_fullEv
FNDA:55517893,_ZNK6merkle5TreeTILm32EXadL_ZNS_L15sha256_compressERKNS_5HashTILm32EEES4_RS2_EEE4Node7is_fullEv
FNDA:2908146,_ZNK6merkle5TreeTILm48EXadL_ZNS_L14sha384_opensslERKNS_5HashTILm48EEES4_RS2_EEE4Node7is_fullEv
FNDA:2908146,_ZNK6merkle5TreeTILm64EXadL_ZNS_L14sha512_opensslERKNS_5HashTILm64EEES4_RS2_EEE4Node7is_fullEv
FNDA:1185818,_ZN6merkle5TreeTILm32EXadL_ZNS_L14sha256_opensslERKNS_5HashTILm32EEES4_RS2_EEE4Node12update_sizesEv
FNDA:93926471,_ZN6merkle5TreeTILm32EXadL_ZNS_L15sha256_compressERKNS_5HashTILm32EEES4_RS2_EEE4Node12update_sizesEv
FNDA:2371776,_ZN6merkle5TreeTILm48EXadL_ZNS_L14sha384_opensslERKNS_5HashTILm48EEES4_RS2_EEE4Node12update_sizesEv
FNDA:2371776,_ZN6merkle5TreeTILm64EXadL_ZNS_L14sha512_opensslERKNS_5HashTILm64EEES4_RS2_EEE4Node12update_sizesEv
FNDA:11344,_ZN6merkleL18serialise_uint64_tEmRSt6vectorIhSaIhEE
FNDA:4,_ZN6merkle5TreeTILm32EXadL_ZNS_L14sha256_opensslERKNS_5HashTILm32EEES4_RS2_EEEC2Ev
FNDA:3257,_ZN6merkle5TreeTILm32EXadL_ZNS_L15sha256_compressERKNS_5HashTILm32EEES4_RS2_EEEC2Ev
FNDA:8,_ZN6merkle5TreeTILm48EXadL_ZNS_L14sha384_opensslERKNS_5HashTILm48EEES4_RS2_EEEC2Ev
FNDA:8,_ZN6merkle5TreeTILm64EXadL_ZNS_L14sha512_opensslERKNS_5HashTILm64EEES4_RS2_EEEC2Ev
FNDA:2688,_ZN6merkle5TreeTILm32EXadL_ZNS_L15sha256_compressERKNS_5HashTILm32EEES4_RS2_EEEC2ERKS6_
FNDA:1,_ZN6merkle5TreeTILm48EXadL_ZNS_L14sha384_opensslERKNS_5HashTILm48EEES4_RS2_EEEC2ERKS6_
FNDA:1,_ZN6merkle5TreeTILm64EXadL_ZNS_L14sha512_opensslERKNS_5HashTILm64EEES4_RS2_EEEC2ERKS6_
FNDA:2077,_ZN6merkle5TreeTILm32EXadL_ZNS_L15sha256_compressERKNS_5HashTILm32EEES4_RS2_EEEC2ERKSt6vectorIhSaIhEE
FNDA:3,_ZN6merkle5TreeTILm48EXadL_ZNS_L14sha384_opensslERKNS_5HashTILm48EEES4_RS2_EEEC2ERKSt6vectorIhSaIhEE
FNDA:3,_ZN6merkle5TreeTILm64EXadL_ZNS_L14sha512_opensslERKNS_5HashTILm64EEES4_RS2_EEEC2ERKSt6vectorIhSaIhEE
FNDA:1,_ZN6merkle5TreeTILm32EXadL_ZNS_L15sha256_compressERKNS_5HashTILm32EEES4_RS2_EEEC2ES4_
FNDA:1,_ZN6merkle5TreeTILm48EXadL_ZNS_L14sha384_opensslERKNS_5HashTILm48EEES4_RS2_EEEC2ES4_
FNDA:1,_ZN6merkle5TreeTILm64EXadL_ZNS_L14sha512_opensslERKNS_5HashTILm64EEES4_RS2_EEEC2ES4_
FNDA:4,_ZN6merkle5TreeTILm32EXadL_ZNS_L14sha256_opensslERKNS_5HashTILm32EEES4_RS2_EEED2Ev
FNDA:8023,_ZN6merkle5TreeTILm32EXadL_ZNS_L15sha256_compressERKNS_5HashTILm32EEES4_RS2_EEED2Ev
FNDA:13,_ZN6merkle5TreeTILm48EXadL_ZNS_L14sha384_opensslERKNS_5HashTILm48EEES4_RS2_EEED2Ev
FNDA:13,_ZN6merkle5TreeTILm64EXadL_ZNS_L14sha512_opensslERKNS_5HashTILm64EEES4_RS2_EEED2Ev
FNDA:3650796,_ZN6merkle5TreeTILm32EXadL_ZNS_L15sha256_compressERKNS_5HashTILm32EEES4_RS2_EEE9invariantEv
FNDA:262166,_ZN6merkle5TreeTILm32EXadL_ZNS_L14sha256_opensslERKNS_5HashTILm32EEES4_RS2_EEE6insertES4_
FNDA:23891762,_ZN6merkle5TreeTILm32EXadL_ZNS_L15sha256_compressERKNS_5HashTILm32EEES4_RS2_EEE6insertES4_
FNDA:524357,_ZN6merkle5TreeTILm48EXadL_ZNS_L14sha384_opensslERKNS_5HashTILm48EEES4_RS2_EEE6insertES4_
FNDA:524357,_ZN6merkle5TreeTILm64EXadL_ZNS_L14sha512_opensslERKNS_5HashTILm64EEES4_RS2_EEE6insertES4_
FNDA:4170,_ZN6merkleL20deserialise_uint64_tERKSt6vectorIhSaIhEERm
FNDA:182401,_ZN6merkle5TreeTILm32EXadL_ZNS_L15sha256_compressERKNS_5HashTILm32EEES4_RS2_EEE8flush_toEm
FNDA:6,_ZN6merkle5TreeTILm48EXadL_ZNS_L14sha384_opensslERKNS_5HashTILm48EEES4_RS2_EEE8flush_toEm
FNDA:6,_ZN6merkle5TreeTILm64EXadL_ZNS_L14sha512_opensslERKNS_5HashTILm64EEES4_RS2_EEE8flush_toEm
FNDA:1612664,_ZZN6merkle5TreeTILm32EXadL_ZNS_L15sha256_compressERKNS_5HashTILm32EEES4_RS2_EEE8flush_toEmENKUlRPNS6_4NodeEbE_clES9_b
FNDA:1,_ZZN6merkle5TreeTILm48EXadL_ZNS_L14sha384_opensslERKNS_5HashTILm48EEES4_RS2_EEE8flush_toEmENKUlRPNS6_4NodeEbE_clES9_b
FNDA:1,_ZZN6merkle5TreeTILm64EXadL_ZNS_L14sha512_opensslERKNS_5HashTILm64EEES4_RS2_EEE8flush_toEmENKUlRPNS6_4NodeEbE_clES9_b
FNDA:9175002,_ZN6merkle5TreeTILm32EXadL_ZNS_L15sha256_compressERKNS_5HashTILm32EEES4_RS2_EEE10retract_toEm
FNDA:5,_ZN6merkle5TreeTILm48EXadL_ZNS_L14sha384_opensslERKNS_5HashTILm48EEES4_RS2_EEE10retract_toEm
FNDA:5,_ZN6merkle5TreeTILm64EXadL_ZNS_L14sha512_opensslERKNS_5HashTILm64EEES4_RS2_EEE10retract_toEm
FNDA:384165,_ZZN6merkle5TreeTILm32EXadL_ZNS_L15sha256_compressERKNS_5HashTILm32EEES4_RS2_EEE10retract_toEmENKUlRPNS6_4NodeEbE_clES9_b
FNDA:2,_ZZN6merkle5TreeTILm48EXadL_ZNS_L14sha384_opensslERKNS_5HashTILm48EEES4_RS2_EEE10retract_toEmENKUlRPNS6_4NodeEbE_clES9_b
FNDA:2,_ZZN6merkle5TreeTILm64EXadL_ZNS_L14sha512_opensslERKNS_5HashTILm64EEES4_RS2_EEE10retract_toEmENKUlRPNS6_4NodeEbE_clES9_b
FNDA:2688,_ZN6merkle5TreeTILm32EXadL_ZNS_L15sha256_compressERKNS_5HashTILm32EEES4_RS2_EEEaSERKS6_
FNDA:1,_ZN6merkle5TreeTILm48EXadL_ZNS_L14sha384_opensslERKNS_5HashTILm48EEES4_RS2_EEEaSERKS6_
FNDA:1,_ZN6merkle5TreeTILm64EXadL_ZNS_L14sha512_opensslERKNS_5HashTILm64EEES4_RS2_EEEaSERKS6_
FNDA:2052,_ZN6merkle5TreeTILm32EXadL_ZNS_L14sha256_opensslERKNS_5HashTILm32EEES4_RS2_EEE4rootEv
FNDA:43389,_ZN6merkle5TreeTILm32EXadL_ZNS_L15sha256_compressERKNS_5HashTILm32EEES4_RS2_EEE4rootEv
FNDA:4110,_ZN6merkle5TreeTILm48EXadL_ZNS_L14sha384_opensslERKNS_5HashTILm48EEES4_RS2_EEE4rootEv
FNDA:4110,_ZN6merkle5TreeTILm64EXadL_ZNS_L14sha512_opensslERKNS_5HashTILm64EEES4_RS2_EEE4rootEv
FNDA:36334,_ZN6merkle5TreeTILm32EXadL_ZNS_L15sha256_compressERKNS_5HashTILm32EEES4_RS2_EEE9past_rootEm
FNDA:5,_ZN6merkle5TreeTILm48EXadL_ZNS_L14sha384_opensslERKNS_5HashTILm48EEES4_RS2_EEE9past_rootEm
FNDA:5,_ZN6merkle5TreeTILm64EXadL_ZNS_L14sha512_opensslERKNS_5HashTILm64EEES4_RS2_EEE9past_rootEm
FNF:227
FNH:223
DA:48,277999632
DA:50,277999632
DA:53,277999632
DA:69,11344
DA:71,11344
DA:72,11344
DA:73,102096
DA:75,90752
DA:77,11344
DA:79,4170
DA:82,4170
DA:83,4170
DA:84,37530
DA:86,33360
DA:88,4170
DA:100,71192798
DA:102,71192798
DA:103,71192798
DA:107,16793
DA:109,16793
DA:110,16793
DA:142,12054
DA:144,12054
DA:146,0
DA:148,12054
DA:149,12054
DA:159,3
DA:161,3
DA:179,148
DA:182,148
DA:183,148
DA:184,708
DA:186,560
DA:187,560
DA:188,560
DA:190,560
DA:192,148
DA:196,60222148
DA:198,60222148
DA:199,60222148
DA:203,11841
DA:205,11841
DA:209,87270
DA:211,87270
DA:216,65052
DA:219,2168364
DA:221,2103312
DA:223,65052
DA:228,12054
DA:231,12054
DA:233,0
DA:235,397782
DA:237,385728
DA:239,12054
DA:290,48137
DA:295,48137
DA:296,48137
DA:297,48137
DA:298,48137
DA:299,48137
DA:327,15165
DA:329,15165
DA:330,15165
DA:334,195455
DA:336,180290
DA:342,93902
DA:350,86388
DA:356,15165
DA:357,0
DA:362,9776
DA:364,9776
DA:369,2392
DA:372,2392
DA:373,2392
DA:374,2392
DA:375,2392
DA:376,36216
DA:378,33824
DA:379,33824
DA:381,2392
DA:415,22
DA:417,22
DA:418,22
DA:419,22
DA:420,0
DA:423,6
DA:425,6
DA:429,2370
DA:435,2370
DA:438,2370
DA:455,3
DA:457,6
DA:464,36343
DA:466,36343
DA:470,36340
DA:472,36340
DA:478,22
DA:481,22
DA:482,22
DA:483,102
DA:486,80
DA:488,44
DA:489,22
DA:492,36344
DA:494,36344
DA:498,4695
DA:500,4695
DA:502,0
DA:504,4695
DA:505,4695
DA:506,52883
DA:508,48188
DA:510,0
DA:512,48188
DA:513,48188
DA:515,4695
DA:519,2687
DA:521,2687
DA:555,59501826
DA:557,59501826
DA:558,59501826
DA:559,59501826
DA:560,59501826
DA:561,59501826
DA:562,59501826
DA:563,59501826
DA:569,11085057
DA:571,11085057
DA:572,11085057
DA:573,11085057
DA:574,11085057
DA:575,11085057
DA:576,11085057
DA:577,11085057
DA:578,11085057
DA:588,68917677
DA:596,68917677
DA:598,34647340
DA:601,34270337
DA:602,34270337
DA:603,34270337
DA:604,34270337
DA:605,68540674
DA:606,34270337
DA:612,68540674
DA:613,34270337
DA:619,34270337
DA:621,16938870
DA:623,16937787
DA:627,1083
DA:630,34270337
DA:636,12343595128
DA:638,12343595128
DA:639,12343595128
DA:640,12343595128
DA:641,12343595128
DA:642,12343595128
DA:643,12343595128
DA:644,12343595128
DA:647,70586883
DA:649,70586883
DA:652,70586883
DA:653,70586883
DA:654,70586883
DA:659,62788163
DA:661,62788163
DA:662,62788163
DA:663,62788163
DA:667,99855841
DA:669,99855841
DA:671,40271723
DA:672,40271723
DA:676,59584118
DA:678,99855841
DA:712,3277
DA:715,2690
DA:716,2690
DA:717,2690
DA:718,2690
DA:734,2083
DA:735,2083
DA:736,2083
DA:737,2083
DA:749,3
DA:750,3
DA:751,3
DA:752,3
DA:755,8053
DA:757,8053
DA:758,1060742
DA:760,1052689
DA:762,8053
DA:765,3650796
DA:767,3650796
DA:779,25202642
DA:784,25202642
DA:785,25202642
DA:786,25202642
DA:812,182413
DA:815,182413
DA:817,182413
DA:819,12270
DA:822,170149
DA:823,1612666
DA:829,1168435
DA:831,0
DA:833,1168435
DA:834,1168435
DA:835,1168435
DA:836,1168435
DA:838,1612666
DA:841,170140
DA:842,340280
DA:843,340280
DA:844,170140
DA:851,9175012
DA:854,9175012
DA:856,9175012
DA:858,0
DA:861,9175012
DA:863,3
DA:866,9175009
DA:868,9131953
DA:869,22596908
DA:871,13464955
DA:872,13464955
DA:874,9131953
DA:878,43062
DA:879,384169
DA:880,384169
DA:881,384169
DA:887,117383
DA:889,117383
DA:890,117383
DA:891,117383
DA:893,117383
DA:895,117383
DA:896,117383
DA:897,117383
DA:899,117383
DA:901,95658
DA:904,117383
DA:910,2233
DA:913,117383
DA:918,117383
DA:920,266786
DA:924,43056
DA:926,43056
DA:927,43056
DA:929,43056
DA:933,0
DA:936,43056
DA:942,2690
DA:944,2690
DA:945,2690
DA:947,0
DA:949,2690
DA:950,2690
DA:951,2690
DA:952,2690
DA:954,2690
DA:955,2690
DA:956,2690
DA:961,377003
DA:963,374313
DA:965,2690
DA:966,2690
DA:967,2690
DA:968,2690
DA:973,53661
DA:976,53661
DA:977,53661
DA:978,53658
DA:982,53658
DA:992,36344
DA:995,36344
DA:997,36344
DA:998,36338
DA:1005,453200
DA:1007,416862
DA:1009,205164
DA:1013,72676
DA:1014,36338
DA:1023,262866
DA:1026,262866
DA:1028,6
DA:1031,262860
DA:1033,262854
DA:1035,262854
DA:1036,262854
DA:1037,262854
DA:1039,262842
DA:1041,262854
DA:1043,3708160
DA:1045,3445306
DA:1046,3445306
DA:1047,3445306
DA:1049,626212
DA:1057,3445306
DA:1059,2546771
DA:1061,117383
DA:1063,2429388
DA:1065,3327923
DA:1066,3327923
DA:1069,262854
DA:1071,669268
DA:1073,626212
DA:1074,626212
DA:1078,262854
DA:1084,43442
DA:1087,43442
DA:1088,43442
DA:1090,44314
DA:1091,498881
DA:1092,498881
DA:1093,498881
DA:1094,498881
DA:1095,498881
DA:1099,86866
DA:1100,43442
DA:1109,4710
DA:1113,4710
DA:1115,4710
DA:1116,9420
DA:1117,9420
DA:1119,6
DA:1122,4704
DA:1124,4704
DA:1130,4704
DA:1131,4704
DA:1132,4704
DA:1133,4704
DA:1135,4704
DA:1136,4704
DA:1137,4704
DA:1138,4704
DA:1139,4704
DA:1141,4701
DA:1142,4701
DA:1145,61659
DA:1147,56955
DA:1148,56955
DA:1149,56955
DA:1161,56955
DA:1163,4489
DA:1164,4489
DA:1169,4489
DA:1172,56955
DA:1175,18183
DA:1176,18183
DA:1178,12904
DA:1180,9419
DA:1181,9419
DA:1182,9419
DA:1183,9419
DA:1185,12904
DA:1191,38772
DA:1193,38772
DA:1194,38772
DA:1195,38772
DA:1196,38772
DA:1197,38772
DA:1199,38772
DA:1204,36427
DA:1206,19743
DA:1207,19743
DA:1208,19743
DA:1209,19743
DA:1211,36427
DA:1215,56955
DA:1216,56955
DA:1217,56955
DA:1239,4704
DA:1242,4704
DA:1244,4489
DA:1246,38987
DA:1248,34283
DA:1251,4704
DA:1256,4489
DA:1257,4489
DA:1259,4489
DA:1261,19743
DA:1263,15254
DA:1271,4489
DA:1272,4489
DA:1273,4489
DA:1274,4489
DA:1279,14123
DA:1281,9419
DA:1285,9408
DA:1286,4704
DA:1290,76
DA:1294,76
DA:1295,76
DA:1296,76
DA:1297,720
DA:1299,644
DA:1301,784
DA:1303,708
DA:1306,76
DA:1310,73
DA:1315,73
DA:1316,76
DA:1317,639
DA:1319,444
DA:1321,639
DA:1324,517
DA:1326,444
DA:1328,73
DA:1329,76
DA:1335,2008
DA:1340,2008
DA:1341,6024
DA:1342,6024
DA:1344,0
DA:1347,2008
DA:1348,2008
DA:1349,17438
DA:1351,15430
DA:1354,2008
DA:1358,2008
DA:1363,2008
DA:1364,2008
DA:1365,16864
DA:1367,11610
DA:1369,16864
DA:1372,13618
DA:1374,11610
DA:1376,2008
DA:1377,2008
DA:1381,2085
DA:1383,2085
DA:1384,2085
DA:1385,2085
DA:1390,2085
DA:1394,2085
DA:1395,2085
DA:1396,2085
DA:1398,0
DA:1400,2085
DA:1401,2085
DA:1402,2085
DA:1403,2085
DA:1404,2085
DA:1406,2085
DA:1407,2085
DA:1409,2085
DA:1410,18878
DA:1412,16793
DA:1413,16793
DA:1414,16793
DA:1417,2085
DA:1418,2085
DA:1419,2085
DA:1420,2085
DA:1421,24912
DA:1424,22827
DA:1426,12054
DA:1428,12054
DA:1429,12054
DA:1430,12054
DA:1431,12054
DA:1432,12054
DA:1441,60380
DA:1443,37553
DA:1445,10788
DA:1449,26765
DA:1453,22827
DA:1454,22827
DA:1456,22827
DA:1457,22827
DA:1460,2085
DA:1462,2085
DA:1464,2082
DA:1465,2082
DA:1467,2085
DA:1488,15439
DA:1491,15439
DA:1493,0
DA:1495,15439
DA:1498,502
DA:1499,502
DA:1501,14937
DA:1508,28007916
DA:1510,28007916
DA:1517,11065287
DA:1519,11065287
DA:1526,27528561
DA:1528,27528561
DA:1529,27528561
DA:1534,4223
DA:1536,4223
DA:1543,131
DA:1545,131
DA:1547,0
DA:1549,131
DA:1555,2136
DA:1557,2136
DA:1559,2136
DA:1561,2136
DA:1562,16688
DA:1564,12490
DA:1566,16688
DA:1571,4272
DA:1578,2008
DA:1580,2008
DA:1581,2008
DA:1582,16864
DA:1584,11610
DA:1586,16864
DA:1590,2008
DA:1622,8
DA:1624,8
DA:1625,8
DA:1626,8
DA:1627,8
DA:1628,8
DA:1629,16
DA:1630,8
DA:1638,2
DA:1640,6
DA:1641,2
DA:1642,2
DA:1643,2
DA:1645,2
DA:1647,0
DA:1648,0
DA:1651,2
DA:1653,0
DA:1657,2
DA:1658,2
DA:1659,12
DA:1661,10
DA:1662,52
DA:1664,42
DA:1665,42
DA:1666,42
DA:1668,20
DA:1670,42
DA:1672,20
DA:1674,42
DA:1676,10
DA:1677,10
DA:1678,10
DA:1683,2
DA:1684,2
DA:1685,2
DA:1686,2
DA:1688,2
DA:1689,2
DA:1735,48137
DA:1738,48137
DA:1740,0
DA:1742,48137
DA:1744,0
DA:1745,0
DA:1747,48137
DA:1755,257725
DA:1761,257725
DA:1762,257725
DA:1763,257725
DA:1765,25090904
DA:1767,24833179
DA:1768,24833179
DA:1770,24833179
DA:1772,5437154
DA:1774,19396025
DA:1776,6850573
DA:1780,12545452
DA:1781,12545452
DA:1783,0
DA:1785,12545452
DA:1786,12545452
DA:1794,12545452
DA:1795,12545452
DA:1798,257725
DA:1801,323306
DA:1803,323306
DA:1804,323306
DA:1806,9
DA:1808,323297
DA:1809,323297
DA:1810,323297
DA:1812,257725
DA:1813,257725
DA:1815,323297
DA:1822,11058292
DA:1824,17584454
DA:1829,28642746
DA:1831,28642746
DA:1833,11058292
DA:1834,11058292
DA:1835,11058292
DA:1836,11058292
DA:1839,17584454
DA:1840,17584454
DA:1841,17584454
DA:1842,17584454
DA:1843,17584454
DA:1844,17584454
DA:1846,0
DA:1847,0
DA:1851,17584454
DA:1852,17584454
DA:1860,11303207
DA:1871,11303207
DA:1872,11303207
DA:1874,11303207
DA:1875,11303207
DA:1877,17606215
DA:1879,17339539
DA:1880,17339539
DA:1881,17339539
DA:1882,17339539
DA:1884,17339539
DA:1886,0
DA:1890,17339539
DA:1892,17339539
DA:1893,17339539
DA:1895,17339539
DA:1897,17339539
DA:1903,11036531
DA:1907,266676
DA:1909,266676
DA:1915,11059311
DA:1920,11059311
DA:1921,11059311
DA:1923,1019
DA:1927,11058292
DA:1928,11058292
DA:1930,11059311
DA:1935,323306
DA:1937,323306
DA:1944,11312460
DA:1946,11059311
DA:1948,253149
DA:1950,323306
DA:1952,244915
DA:1954,323306
DA:1965,11583318
DA:1978,11583318
DA:1979,11583318
DA:1984,11583318
DA:1986,196916406
DA:1987,185333088
DA:1990,567582582
DA:1991,555999264
DA:1992,555999264
DA:1993,555999264
DA:1994,555999264
DA:1995,555999264
DA:1996,555999264
DA:1997,555999264
DA:2001,104249862
DA:2002,92666544
DA:2005,752915670
DA:2006,741332352
DA:2007,741332352
DA:2008,741332352
DA:2009,741332352
DA:2010,741332352
DA:2011,741332352
DA:2012,741332352
DA:2013,741332352
DA:2014,741332352
DA:2015,741332352
DA:2016,741332352
DA:2017,741332352
DA:2018,741332352
DA:2019,741332352
DA:2020,741332352
DA:2021,741332352
DA:2022,741332352
DA:2023,741332352
DA:2024,741332352
DA:2027,104249862
DA:2028,92666544
DA:2030,11583318
DA:2039,272406
DA:2045,272406
DA:2046,272406
DA:2048,272406
DA:2050,272406
DA:2051,272406
DA:2053,0
DA:2055,272406
DA:2061,545218
DA:2067,545218
DA:2068,545218
DA:2070,545218
DA:2072,545218
DA:2073,545218
DA:2075,0
DA:2077,545218
DA:2083,545218
DA:2089,545218
DA:2090,545218
DA:2092,545218
DA:2094,545218
DA:2095,545218
DA:2097,0
DA:2099,545218
LF:702
LH:675
end_of_record
TN:
SF:/home/runner/work/merklecpp/merklecpp/test/compare_hash_functions.cpp
FN:194,219,_Z5benchIN6merkle5TreeTILm32EXadL_ZNS0_L14sha256_opensslERKNS0_5HashTILm32EEES5_RS3_EEEEEvRKSt6vectorIS3_SaIS3_EERKNSt7__cxx1112basic_stringIcSt11char_traitsIcESaIcEEEm
FN:194,219,_Z5benchIN6merkle5TreeTILm32EXadL_ZNS0_L15sha256_compressERKNS0_5HashTILm32EEES5_RS3_EEEEEvRKSt6vectorIS3_SaIS3_EERKNSt7__cxx1112basic_stringIcSt11char_traitsIcESaIcEEEm
FN:222,247,_Z6benchTIN6merkle5TreeTILm48EXadL_ZNS0_L14sha384_opensslERKNS0_5HashTILm48EEES5_RS3_EEEELm48EEvRKSt6vectorINS2_IXT0_EEESaIS9_EERKNSt7__cxx1112basic_stringIcSt11char_traitsIcESaIcEEEm
FN:222,247,_Z6benchTIN6merkle5TreeTILm64EXadL_ZNS0_L14sha512_opensslERKNS0_5HashTILm64EEES5_RS3_EEEELm64EEvRKSt6vectorINS2_IXT0_EEESaIS9_EERKNSt7__cxx1112basic_stringIcSt11char_traitsIcESaIcEEEm
FN:284,371,main
FN:80,134,_Z26compare_compression_hashesv
FNDA:2,_Z5benchIN6merkle5TreeTILm32EXadL_ZNS0_L14sha256_opensslERKNS0_5HashTILm32EEES5_RS3_EEEEEvRKSt6vectorIS3_SaIS3_EERKNSt7__cxx1112basic_stringIcSt11char_traitsIcESaIcEEEm
FNDA:2,_Z5benchIN6merkle5TreeTILm32EXadL_ZNS0_L15sha256_compressERKNS0_5HashTILm32EEES5_RS3_EEEEEvRKSt6vectorIS3_SaIS3_EERKNSt7__cxx1112basic_stringIcSt11char_traitsIcESaIcEEEm
FNDA:2,_Z6benchTIN6merkle5TreeTILm48EXadL_ZNS0_L14sha384_opensslERKNS0_5HashTILm48EEES5_RS3_EEEELm48EEvRKSt6vectorINS2_IXT0_EEESaIS9_EERKNSt7__cxx1112basic_stringIcSt11char_traitsIcESaIcEEEm
FNDA:2,_Z6benchTIN6merkle5TreeTILm64EXadL_ZNS0_L14sha512_opensslERKNS0_5HashTILm64EEES5_RS3_EEEELm64EEvRKSt6vectorINS2_IXT0_EEESaIS9_EERKNSt7__cxx1112basic_stringIcSt11char_traitsIcESaIcEEEm
FNDA:2,main
FNDA:2,_Z26compare_compression_hashesv
FNF:6
FNH:6
DA:80,2
DA:83,2
DA:84,2
DA:90,2
DA:91,2
DA:93,2050
DA:95,2048
DA:102,2048
DA:103,2048
DA:105,1051648
DA:107,1049600
DA:113,1049600
DA:115,1049600
DA:121,34850
DA:129,2048
DA:131,2
DA:132,2
DA:133,2
DA:134,2
DA:194,4
DA:199,4
DA:200,4
DA:201,4
DA:202,524292
DA:204,524288
DA:205,524288
DA:207,4096
DA:210,4
DA:211,4
DA:212,4
DA:213,4
DA:215,4
DA:216,4
DA:217,4
DA:218,4
DA:219,4
DA:222,4
DA:227,4
DA:228,4
DA:229,4
DA:230,524292
DA:232,524288
DA:233,524288
DA:235,4096
DA:238,4
DA:239,4
DA:240,4
DA:241,4
DA:243,4
DA:244,4
DA:245,4
DA:246,4
DA:247,4
DA:284,2
DA:289,2
DA:291,2
DA:298,2
DA:299,2
DA:305,2
DA:308,2
DA:310,2
DA:316,2
DA:319,2
DA:324,2
DA:325,2
DA:326,2
DA:327,2
DA:330,2
DA:331,2
DA:332,2
DA:333,2
DA:358,2
DA:359,0
DA:361,0
DA:362,0
DA:363,0
DA:364,0
DA:366,0
DA:367,0
DA:368,0
DA:370,2
LF:81
LH:73
end_of_record
TN:
SF:/home/runner/work/merklecpp/merklecpp/test/demo_tree.cpp
FN:18,91,main
FNDA:2,main
FNF:1
FNH:1
DA:18,2
DA:22,2
DA:24,2
DA:27,2
DA:28,24
DA:30,22
DA:32,2
DA:33,2
DA:36,2
DA:37,24
DA:39,22
DA:40,22
DA:41,22
DA:42,22
DA:43,22
DA:45,0
DA:47,22
DA:48,22
DA:51,2
DA:52,2
DA:53,2
DA:54,2
DA:56,0
DA:59,2
DA:60,2
DA:64,2
DA:66,2
DA:67,24
DA:69,22
DA:71,2
DA:72,2
DA:73,2
DA:75,2
DA:79,0
DA:81,0
DA:82,0
DA:83,0
DA:84,0
DA:86,0
DA:87,0
DA:88,0
DA:90,2
LF:42
LH:32
end_of_record
TN:
SF:/home/runner/work/merklecpp/merklecpp/test/flush.cpp
FN:14,86,main
FNDA:2,main
FNF:1
FNH:1
DA:14,2
DA:16,2
DA:17,2
DA:18,2
DA:19,2
DA:24,2
DA:25,2
DA:26,2
DA:33,2
DA:34,2
DA:36,66
DA:40,64
DA:41,64
DA:43,64
DA:45,64
DA:46,1959966
DA:48,1959902
DA:49,1959902
DA:51,98314
DA:52,98314
DA:56,1088
DA:58,1024
DA:59,1024
DA:60,1024
DA:62,0
DA:66,64
DA:68,2
DA:69,2
DA:70,2
DA:72,64
DA:74,0
DA:76,0
DA:77,0
DA:78,0
DA:79,0
DA:81,0
DA:82,0
DA:83,0
DA:85,2
LF:39
LH:30
end_of_record
TN:
SF:/home/runner/work/merklecpp/merklecpp/test/partial_serialisation.cpp
FN:17,139,main
FNDA:2,main
FNF:1
FNH:1
DA:17,2
DA:19,2
DA:20,2
DA:21,2
DA:22,2
DA:27,2
DA:28,2
DA:29,2
DA:36,2
DA:37,2
DA:38,2
DA:39,2
DA:41,130
DA:44,128
DA:46,128
DA:47,128
DA:48,128
DA:51,128
DA:52,509340
DA:54,509212
DA:55,509212
DA:56,509212
DA:57,509212
DA:59,25332
DA:60,25332
DA:61,25332
DA:62,25332
DA:64,509212
DA:66,25512
DA:67,25512
DA:68,25512
DA:69,25512
DA:73,2136
DA:74,2136
DA:77,2008
DA:78,2008
DA:79,2008
DA:81,874
DA:85,2008
DA:86,2008
DA:89,2008
DA:92,2008
DA:93,2008
DA:94,2008
DA:95,2008
DA:96,2008
DA:97,2008
DA:98,2008
DA:100,2008
DA:101,4016
DA:102,4016
DA:105,0
DA:107,0
DA:108,0
DA:111,2008
DA:113,2008
DA:114,2008
DA:115,24
DA:117,2
DA:118,2
DA:119,2
DA:120,2
DA:122,2008
DA:123,128
DA:125,0
DA:127,0
DA:128,0
DA:129,0
DA:130,0
DA:131,0
DA:133,0
DA:134,0
DA:135,0
DA:136,0
DA:138,2
LF:75
LH:62
end_of_record
TN:
SF:/home/runner/work/merklecpp/merklecpp/test/past_paths.cpp
FN:15,29,_Z14past_root_specRKN6merkle5TreeTILm32EXadL_ZNS_L15sha256_compressERKNS_5HashTILm32EEES4_RS2_EEEEmm
FN:31,169,main
FNDA:2687,_Z14past_root_specRKN6merkle5TreeTILm32EXadL_ZNS_L15sha256_compressERKNS_5HashTILm32EEES4_RS2_EEEEmm
FNDA:2,main
FNF:2
FNH:2
DA:15,2687
DA:18,2687
DA:19,2687
DA:20,2687
DA:25,2687
DA:26,2687
DA:27,2687
DA:28,5374
DA:29,2687
DA:31,2
DA:33,2
DA:34,2
DA:35,2
DA:36,2
DA:38,2
DA:43,2
DA:44,2
DA:45,2
DA:52,2
DA:53,2
DA:54,2
DA:56,2
DA:58,2
DA:59,50
DA:61,48
DA:62,48
DA:64,48
DA:65,48
DA:67,48
DA:68,374361
DA:70,374313
DA:78,2735
DA:79,2735
DA:82,2687
DA:83,2687
DA:84,2687
DA:86,1342
DA:89,2687
DA:90,2687
DA:92,2687
DA:94,149
DA:96,41
DA:97,41
DA:98,41
DA:116,2687
DA:117,2687
DA:118,2687
DA:129,2687
DA:131,0
DA:134,2687
DA:136,0
DA:139,2687
DA:141,0
DA:144,2687
DA:146,48
DA:147,48
DA:148,48
DA:151,2687
DA:152,2687
DA:153,48
DA:154,2
DA:155,0
DA:157,0
DA:158,0
DA:159,0
DA:160,0
DA:161,0
DA:163,0
DA:164,0
DA:165,0
DA:166,0
DA:168,2
LF:72
LH:59
end_of_record
TN:
SF:/home/runner/work/merklecpp/merklecpp/test/past_root.cpp
FN:17,141,main
FNDA:2,main
FNF:1
FNH:1
DA:17,2
DA:19,2
DA:20,2
DA:21,2
DA:22,2
DA:24,2
DA:30,128
DA:32,126
DA:35,126
DA:37,126
DA:38,4284
DA:40,4158
DA:41,4158
DA:43,126
DA:46,126
DA:47,4284
DA:49,4158
DA:52,4284
DA:54,4158
DA:55,4158
DA:57,0
DA:58,0
DA:59,0
DA:60,0
DA:61,0
DA:63,4158
DA:64,126
DA:66,2
DA:69,2
DA:70,2
DA:76,2
DA:77,2
DA:79,130
DA:82,128
DA:83,128
DA:84,128
DA:85,128
DA:89,128
DA:90,557590
DA:92,557462
DA:93,557462
DA:95,27474
DA:98,128
DA:101,128
DA:102,557590
DA:104,557462
DA:108,27602
DA:110,27474
DA:111,27474
DA:112,27474
DA:114,0
DA:115,0
DA:116,0
DA:117,0
DA:119,27474
DA:121,128
DA:123,2
DA:124,2
DA:125,2
DA:127,128
DA:129,0
DA:131,0
DA:132,0
DA:133,0
DA:134,0
DA:136,0
DA:137,0
DA:138,0
DA:140,2
LF:69
LH:52
end_of_record
TN:
SF:/home/runner/work/merklecpp/merklecpp/test/paths.cpp
FN:15,88,main
FNDA:2,main
FNF:1
FNH:1
DA:15,2
DA:17,2
DA:18,2
DA:19,2
DA:20,2
DA:25,2
DA:26,2
DA:27,2
DA:34,2
DA:35,2
DA:37,130
DA:40,128
DA:41,128
DA:43,128
DA:44,128
DA:46,128
DA:48,128
DA:49,4219700
DA:51,4219572
DA:53,128
DA:55,2370
DA:58,2242
DA:59,2242
DA:60,2242
DA:62,0
DA:64,2242
DA:65,2242
DA:66,2242
DA:68,0
DA:70,2242
DA:71,128
DA:73,2
DA:74,2
DA:76,0
DA:78,0
DA:79,0
DA:80,0
DA:81,0
DA:83,0
DA:84,0
DA:85,0
DA:87,2
LF:42
LH:32
end_of_record
TN:
SF:/home/runner/work/merklecpp/merklecpp/test/retract.cpp
FN:15,99,main
FNDA:2,main
FNF:1
FNH:1
DA:15,2
DA:17,2
DA:18,2
DA:19,2
DA:20,2
DA:25,2
DA:26,2
DA:27,2
DA:34,2
DA:35,2
DA:37,258
DA:40,256
DA:41,256
DA:43,256
DA:45,256
DA:46,8653266
DA:48,8653010
DA:49,8653010
DA:51,4328452
DA:52,4328452
DA:53,4328452
DA:54,4328452
DA:55,4328452
DA:56,4328452
DA:58,0
DA:62,8653010
DA:64,431402
DA:65,431402
DA:69,936
DA:71,936
DA:72,936
DA:73,936
DA:75,256
DA:79,256
DA:81,2
DA:82,2
DA:83,2
DA:85,256
DA:87,0
DA:89,0
DA:90,0
DA:91,0
DA:92,0
DA:94,0
DA:95,0
DA:96,0
DA:98,2
LF:47
LH:38
end_of_record
TN:
SF:/home/runner/work/merklecpp/merklecpp/test/serialisation.cpp
FN:17,113,main
FNDA:2,main
FNF:1
FNH:1
DA:17,2
DA:19,2
DA:20,2
DA:21,2
DA:22,2
DA:27,2
DA:28,2
DA:34,2
DA:35,2
DA:36,2
DA:38,66
DA:41,64
DA:42,64
DA:43,64
DA:46,64
DA:47,1150188
DA:49,1150124
DA:50,1150124
DA:51,1150124
DA:52,1150124
DA:54,57662
DA:55,57662
DA:56,57662
DA:57,57662
DA:59,1150124
DA:61,57556
DA:62,57556
DA:63,57556
DA:64,57556
DA:69,64
DA:70,64
DA:73,64
DA:76,64
DA:77,128
DA:78,128
DA:79,64
DA:80,192
DA:81,64
DA:84,0
DA:86,0
DA:87,0
DA:90,64
DA:92,2
DA:93,2
DA:95,2
DA:97,64
DA:99,0
DA:101,0
DA:102,0
DA:103,0
DA:104,0
DA:105,0
DA:107,0
DA:108,0
DA:109,0
DA:110,0
DA:112,2
LF:57
LH:44
end_of_record
TN:
SF:/home/runner/work/merklecpp/merklecpp/test/serialise_to_file.cpp
FN:19,87,main
FNDA:2,main
FNF:1
FNH:1
DA:19,2
DA:23,2
DA:25,2
DA:26,2
DA:27,24
DA:29,22
DA:31,2
DA:32,2
DA:36,2
DA:37,2
DA:39,1
DA:40,1
DA:41,1
DA:42,369
DA:44,368
DA:45,368
DA:47,1
DA:48,1
DA:49,1
DA:50,2
DA:53,2
DA:54,2
DA:56,2
DA:57,2
DA:58,2
DA:59,740
DA:61,738
DA:62,738
DA:64,2
DA:65,2
DA:66,2
DA:67,2
DA:68,2
DA:70,0
DA:72,2
DA:73,2
DA:75,0
DA:77,0
DA:78,0
DA:79,0
DA:80,0
DA:82,0
DA:83,0
DA:84,0
DA:86,2
LF:45
LH:36
end_of_record
TN:
SF:/home/runner/work/merklecpp/merklecpp/test/time_large_trees.cpp
FN:17,150,main
FNDA:2,main
FNF:1
FNH:1
DA:17,2
DA:22,2
DA:23,2
DA:29,2
DA:31,2
DA:32,2
DA:33,2
DA:34,262146
DA:36,262144
DA:37,262144
DA:39,2048
DA:42,2
DA:43,2
DA:45,2
DA:46,2
DA:47,2
DA:48,4
DA:49,2
DA:53,2
DA:55,2
DA:56,2
DA:57,2
DA:58,262146
DA:60,262144
DA:61,262144
DA:63,2048
DA:66,2
DA:67,2
DA:69,2
DA:70,2
DA:71,2
DA:72,4
DA:73,2
DA:74,2
DA:77,2
DA:79,2
DA:80,2
DA:81,2
DA:82,262146
DA:84,262144
DA:85,262144
DA:87,2048
DA:90,2
DA:91,2
DA:93,2
DA:94,2
DA:95,2
DA:96,4
DA:97,2
DA:98,2
DA:137,2
DA:138,0
DA:140,0
DA:141,0
DA:142,0
DA:143,0
DA:145,0
DA:146,0
DA:147,0
DA:149,2
LF:60
LH:52
end_of_record
TN:
SF:/home/runner/work/merklecpp/merklecpp/test/unit_tests.cpp
FN:10,29,_ZL20DOCTEST_ANON_FUNC_14v
FN:117,136,_ZL20DOCTEST_ANON_FUNC_20v
FN:138,161,_ZL20DOCTEST_ANON_FUNC_22v
FN:163,213,_ZL20DOCTEST_ANON_FUNC_24v
FN:215,233,_ZL20DOCTEST_ANON_FUNC_26v
FN:235,254,_ZL20DOCTEST_ANON_FUNC_28v
FN:256,279,_ZL20DOCTEST_ANON_FUNC_30v
FN:281,331,_ZL20DOCTEST_ANON_FUNC_32v
FN:31,54,_ZL20DOCTEST_ANON_FUNC_16v
FN:333,351,_ZL20DOCTEST_ANON_FUNC_34v
FN:353,381,_ZL20DOCTEST_ANON_FUNC_36v
FN:56,114,_ZL20DOCTEST_ANON_FUNC_18v
FNDA:1,_ZL20DOCTEST_ANON_FUNC_14v
FNDA:1,_ZL20DOCTEST_ANON_FUNC_20v
FNDA:1,_ZL20DOCTEST_ANON_FUNC_22v
FNDA:1,_ZL20DOCTEST_ANON_FUNC_24v
FNDA:1,_ZL20DOCTEST_ANON_FUNC_26v
FNDA:1,_ZL20DOCTEST_ANON_FUNC_28v
FNDA:1,_ZL20DOCTEST_ANON_FUNC_30v
FNDA:1,_ZL20DOCTEST_ANON_FUNC_32v
FNDA:1,_ZL20DOCTEST_ANON_FUNC_16v
FNDA:1,_ZL20DOCTEST_ANON_FUNC_34v
FNDA:1,_ZL20DOCTEST_ANON_FUNC_36v
FNDA:1,_ZL20DOCTEST_ANON_FUNC_18v
FNF:12
FNH:12
DA:10,1
DA:12,1
DA:14,1
DA:15,1
DA:16,1
DA:18,1
DA:19,1
DA:20,1
DA:21,1
DA:23,1
DA:24,1
DA:26,1
DA:27,1
DA:28,2
DA:29,1
DA:31,1
DA:33,1
DA:34,1
DA:36,1
DA:37,1
DA:39,1
DA:40,1
DA:41,1
DA:42,1
DA:43,1
DA:44,1
DA:45,1
DA:47,1
DA:48,1
DA:50,1
DA:51,1
DA:52,1
DA:53,1
DA:54,1
DA:56,1
DA:58,1
DA:59,1
DA:61,1
DA:63,1
DA:64,1
DA:66,1
DA:68,1
DA:69,1
DA:71,1
DA:72,1
DA:73,1
DA:74,1
DA:75,1
DA:76,1
DA:77,1
DA:79,1
DA:80,1
DA:81,1
DA:82,1
DA:83,1
DA:85,1
DA:86,1
DA:87,1
DA:88,1
DA:89,1
DA:90,1
DA:91,1
DA:92,1
DA:93,1
DA:94,1
DA:96,1
DA:97,1
DA:98,1
DA:99,1
DA:101,1
DA:103,1
DA:104,1
DA:105,1
DA:107,1
DA:108,1
DA:109,1
DA:110,1
DA:112,1
DA:113,1
DA:114,1
DA:117,1
DA:119,1
DA:121,1
DA:122,1
DA:123,1
DA:125,1
DA:126,1
DA:127,1
DA:128,1
DA:130,1
DA:131,1
DA:133,1
DA:134,1
DA:135,2
DA:136,1
DA:138,1
DA:140,1
DA:141,1
DA:143,1
DA:144,1
DA:146,1
DA:147,1
DA:148,1
DA:149,1
DA:150,1
DA:151,1
DA:152,1
DA:154,1
DA:155,1
DA:157,1
DA:158,1
DA:159,1
DA:160,1
DA:161,1
DA:163,1
DA:165,1
DA:166,1
DA:168,1
DA:170,1
DA:171,1
DA:173,1
DA:175,1
DA:176,1
DA:178,1
DA:179,1
DA:180,1
DA:181,1
DA:182,1
DA:184,1
DA:185,1
DA:186,1
DA:187,1
DA:189,1
DA:190,1
DA:191,1
DA:192,1
DA:193,1
DA:195,1
DA:196,1
DA:197,1
DA:198,1
DA:200,1
DA:202,1
DA:203,1
DA:204,1
DA:206,1
DA:207,1
DA:208,1
DA:209,1
DA:211,1
DA:212,1
DA:213,1
DA:215,1
DA:217,1
DA:218,1
DA:220,1
DA:221,65
DA:222,64
DA:223,1
DA:225,65
DA:227,64
DA:228,64
DA:229,64
DA:230,64
DA:231,64
DA:232,64
DA:233,1
DA:235,1
DA:237,1
DA:239,1
DA:240,1
DA:241,1
DA:243,1
DA:244,1
DA:245,1
DA:246,1
DA:248,1
DA:249,1
DA:251,1
DA:252,1
DA:253,2
DA:254,1
DA:256,1
DA:258,1
DA:259,1
DA:261,1
DA:262,1
DA:264,1
DA:265,1
DA:266,1
DA:267,1
DA:268,1
DA:269,1
DA:270,1
DA:272,1
DA:273,1
DA:275,1
DA:276,1
DA:277,1
DA:278,1
DA:279,1
DA:281,1
DA:283,1
DA:284,1
DA:286,1
DA:288,1
DA:289,1
DA:291,1
DA:293,1
DA:294,1
DA:296,1
DA:297,1
DA:298,1
DA:299,1
DA:300,1
DA:302,1
DA:303,1
DA:304,1
DA:305,1
DA:307,1
DA:308,1
DA:309,1
DA:310,1
DA:311,1
DA:313,1
DA:314,1
DA:315,1
DA:316,1
DA:318,1
DA:320,1
DA:321,1
DA:322,1
DA:324,1
DA:325,1
DA:326,1
DA:327,1
DA:329,1
DA:330,1
DA:331,1
DA:333,1
DA:335,1
DA:336,1
DA:338,1
DA:339,65
DA:340,64
DA:341,1
DA:343,65
DA:345,64
DA:346,64
DA:347,64
DA:348,64
DA:349,64
DA:350,64
DA:351,1
DA:353,1
DA:355,1
DA:356,1
DA:357,1
DA:359,1
DA:360,1
DA:361,1
DA:363,1
DA:364,1
DA:365,1
DA:367,1
DA:368,1
DA:369,1
DA:370,1
DA:371,1
DA:372,1
DA:374,1
DA:375,1
DA:376,1
DA:378,1
DA:379,1
DA:380,1
DA:381,1
LF:277
LH:277
end_of_record
TN:
SF:/home/runner/work/merklecpp/merklecpp/test/util.h
FN:11,22,_Z11make_hashesmm
FN:25,37,_Z12make_hashesTILm48EESt6vectorIN6merkle5HashTIXT_EEESaIS3_EEmm
FN:25,37,_Z12make_hashesTILm64EESt6vectorIN6merkle5HashTIXT_EEESaIS3_EEmm
FN:39,44,_Z12random_indexRN6merkle5TreeTILm32EXadL_ZNS_L15sha256_compressERKNS_5HashTILm32EEES4_RS2_EEEE
FN:46,57,_Z11get_timeoutv
FN:59,69,_Z9timed_outdRKNSt6chrono10time_pointINS_3_V212system_clockENS_8durationIlSt5ratioILl1ELl1000000000EEEEEE
FNDA:2954,_Z11make_hashesmm
FNDA:5,_Z12make_hashesTILm48EESt6vectorIN6merkle5HashTIXT_EEESaIS3_EEmm
FNDA:5,_Z12make_hashesTILm64EESt6vectorIN6merkle5HashTIXT_EEESaIS3_EEmm
FNDA:707128,_Z12random_indexRN6merkle5TreeTILm32EXadL_ZNS_L15sha256_compressERKNS_5HashTILm32EEES4_RS2_EEEE
FNDA:14,_Z11get_timeoutv
FNDA:7705,_Z9timed_outdRKNSt6chrono10time_pointINS_3_V212system_clockENS_8durationIlSt5ratioILl1ELl1000000000EEEEEE
FNF:6
FNH:6
DA:11,2954
DA:13,2954
DA:14,2954
DA:15,18663116
DA:17,18660162
DA:18,18731645
DA:21,5908
DA:22,0
DA:25,10
DA:28,10
DA:29,10
DA:30,1048714
DA:32,1048704
DA:33,1052816
DA:36,20
DA:37,0
DA:39,707128
DA:42,707128
DA:43,707128
DA:46,14
DA:48,14
DA:49,14
DA:50,14
DA:52,0
DA:53,0
DA:55,14
DA:56,14
DA:59,7705
DA:63,7705
DA:65,7705
DA:66,7705
DA:67,7705
DA:68,7705
LF:33
LH:29
end_of_record
TN:
SF:/usr/include/c++/13/atomic
FN:79,80,_ZNSt6atomicIbEaSEb
FN:86,87,_ZNKSt6atomicIbEcvbEv
FNDA:12,_ZNSt6atomicIbEaSEb
FNDA:0,_ZNKSt6atomicIbEcvbEv
FNF:2
FNH:1
DA:79,12
DA:80,12
DA:86,0
DA:87,0
LF:4
LH:2
end_of_record
TN:
SF:/usr/include/c++/13/bit
FN:195,237,_ZSt13__countl_zeroImEiT_
FN:365,369,_ZSt11__bit_widthImEiT_
FNDA:1,_ZSt13__countl_zeroImEiT_
FNDA:1,_ZSt11__bit_widthImEiT_
FNF:2
FNH:2
DA:195,1
DA:198,1
DA:200,1
DA:201,0
DA:203,1
DA:204,1
DA:205,1
DA:214,1
DA:215,1
DA:365,1
DA:367,1
DA:368,1
LF:12
LH:11
end_of_record
TN:
SF:/usr/include/c++/13/bits/alloc_traits.h
FNF:0
FNH:0
DA:482,954164
DA:517,954164
DA:538,143787386
DA:542,143787386
DA:562,81662286
DA:574,637559
DA:588,2085
DA:661,99640
DA:675,99640
DA:792,22837
DA:948,543157
DA:949,543157
LF:12
LH:12
end_of_record
TN:
SF:/usr/include/c++/13/bits/allocated_ptr.h
FN:53,55,_ZNSt15__allocated_ptrISaISt10_List_nodeIN6merkle5PathTILm32EXadL_ZNS1_L14sha256_opensslERKNS1_5HashTILm32EEES6_RS4_EEEUt0_EEEEC2ERSB_PSA_
FN:53,55,_ZNSt15__allocated_ptrISaISt10_List_nodeIN6merkle5PathTILm32EXadL_ZNS1_L15sha256_compressERKNS1_5HashTILm32EEES6_RS4_EEEUt0_EEEEC2ERSB_PSA_
FN:53,55,_ZNSt15__allocated_ptrISaISt10_List_nodeIN6merkle5PathTILm48EXadL_ZNS1_L14sha384_opensslERKNS1_5HashTILm48EEES6_RS4_EEEUt0_EEEEC2ERSB_PSA_
FN:53,55,_ZNSt15__allocated_ptrISaISt10_List_nodeIN6merkle5PathTILm64EXadL_ZNS1_L14sha512_opensslERKNS1_5HashTILm64EEES6_RS4_EEEUt0_EEEEC2ERSB_PSA_
FN:53,55,_ZNSt15__allocated_ptrISaISt23_Sp_counted_ptr_inplaceIN6merkle5HashTILm32EEESaIvELN9__gnu_cxx12_Lock_policyE2EEEEC2ERS8_PS7_
FN:53,55,_ZNSt15__allocated_ptrISaISt23_Sp_counted_ptr_inplaceIN6merkle5HashTILm48EEESaIvELN9__gnu_cxx12_Lock_policyE2EEEEC2ERS8_PS7_
FN:53,55,_ZNSt15__allocated_ptrISaISt23_Sp_counted_ptr_inplaceIN6merkle5HashTILm64EEESaIvELN9__gnu_cxx12_Lock_policyE2EEEEC2ERS8_PS7_
FN:53,55,_ZNSt15__allocated_ptrISaISt23_Sp_counted_ptr_inplaceIN6merkle5PathTILm32EXadL_ZNS1_L14sha256_opensslERKNS1_5HashTILm32EEES6_RS4_EEEESaIvELN9__gnu_cxx12_Lock_policyE2EEEEC2ERSD_PSC_
FN:53,55,_ZNSt15__allocated_ptrISaISt23_Sp_counted_ptr_inplaceIN6merkle5PathTILm32EXadL_ZNS1_L15sha256_compressERKNS1_5HashTILm32EEES6_RS4_EEEESaIvELN9__gnu_cxx12_Lock_policyE2EEEEC2ERSD_PSC_
FN:53,55,_ZNSt15__allocated_ptrISaISt23_Sp_counted_ptr_inplaceIN6merkle5PathTILm48EXadL_ZNS1_L14sha384_opensslERKNS1_5HashTILm48EEES6_RS4_EEEESaIvELN9__gnu_cxx12_Lock_policyE2EEEEC2ERSD_PSC_
FN:53,55,_ZNSt15__allocated_ptrISaISt23_Sp_counted_ptr_inplaceIN6merkle5PathTILm64EXadL_ZNS1_L14sha512_opensslERKNS1_5HashTILm64EEES6_RS4_EEEESaIvELN9__gnu_cxx12_Lock_policyE2EEEEC2ERSD_PSC_
FN:71,75,_ZNSt15__allocated_ptrISaISt10_List_nodeIN6merkle5PathTILm32EXadL_ZNS1_L14sha256_opensslERKNS1_5HashTILm32EEES6_RS4_EEEUt0_EEEED2Ev
FN:71,75,_ZNSt15__allocated_ptrISaISt10_List_nodeIN6merkle5PathTILm32EXadL_ZNS1_L15sha256_compressERKNS1_5HashTILm32EEES6_RS4_EEEUt0_EEEED2Ev
FN:71,75,_ZNSt15__allocated_ptrISaISt10_List_nodeIN6merkle5PathTILm48EXadL_ZNS1_L14sha384_opensslERKNS1_5HashTILm48EEES6_RS4_EEEUt0_EEEED2Ev
FN:71,75,_ZNSt15__allocated_ptrISaISt10_List_nodeIN6merkle5PathTILm64EXadL_ZNS1_L14sha512_opensslERKNS1_5HashTILm64EEES6_RS4_EEEUt0_EEEED2Ev
FN:71,75,_ZNSt15__allocated_ptrISaISt23_Sp_counted_ptr_inplaceIN6merkle5HashTILm32EEESaIvELN9__gnu_cxx12_Lock_policyE2EEEED2Ev
FN:71,75,_ZNSt15__allocated_ptrISaISt23_Sp_counted_ptr_inplaceIN6merkle5HashTILm48EEESaIvELN9__gnu_cxx12_Lock_policyE2EEEED2Ev
FN:71,75,_ZNSt15__allocated_ptrISaISt23_Sp_counted_ptr_inplaceIN6merkle5HashTILm64EEESaIvELN9__gnu_cxx12_Lock_policyE2EEEED2Ev
FN:71,75,_ZNSt15__allocated_ptrISaISt23_Sp_counted_ptr_inplaceIN6merkle5PathTILm32EXadL_ZNS1_L14sha256_opensslERKNS1_5HashTILm32EEES6_RS4_EEEESaIvELN9__gnu_cxx12_Lock_policyE2EEEED2Ev
FN:71,75,_ZNSt15__allocated_ptrISaISt23_Sp_counted_ptr_inplaceIN6merkle5PathTILm32EXadL_ZNS1_L15sha256_compressERKNS1_5HashTILm32EEES6_RS4_EEEESaIvELN9__gnu_cxx12_Lock_policyE2EEEED2Ev
FN:71,75,_ZNSt15__allocated_ptrISaISt23_Sp_counted_ptr_inplaceIN6merkle5PathTILm48EXadL_ZNS1_L14sha384_opensslERKNS1_5HashTILm48EEES6_RS4_EEEESaIvELN9__gnu_cxx12_Lock_policyE2EEEED2Ev
FN:71,75,_ZNSt15__allocated_ptrISaISt23_Sp_counted_ptr_inplaceIN6merkle5PathTILm64EXadL_ZNS1_L14sha512_opensslERKNS1_5HashTILm64EEES6_RS4_EEEESaIvELN9__gnu_cxx12_Lock_policyE2EEEED2Ev
FN:79,83,_ZNSt15__allocated_ptrISaISt10_List_nodeIN6merkle5PathTILm32EXadL_ZNS1_L14sha256_opensslERKNS1_5HashTILm32EEES6_RS4_EEEUt0_EEEEaSEDn
FN:79,83,_ZNSt15__allocated_ptrISaISt10_List_nodeIN6merkle5PathTILm32EXadL_ZNS1_L15sha256_compressERKNS1_5HashTILm32EEES6_RS4_EEEUt0_EEEEaSEDn
FN:79,83,_ZNSt15__allocated_ptrISaISt10_List_nodeIN6merkle5PathTILm48EXadL_ZNS1_L14sha384_opensslERKNS1_5HashTILm48EEES6_RS4_EEEUt0_EEEEaSEDn
FN:79,83,_ZNSt15__allocated_ptrISaISt10_List_nodeIN6merkle5PathTILm64EXadL_ZNS1_L14sha512_opensslERKNS1_5HashTILm64EEES6_RS4_EEEUt0_EEEEaSEDn
FN:79,83,_ZNSt15__allocated_ptrISaISt23_Sp_counted_ptr_inplaceIN6merkle5HashTILm32EEESaIvELN9__gnu_cxx12_Lock_policyE2EEEEaSEDn
FN:79,83,_ZNSt15__allocated_ptrISaISt23_Sp_counted_ptr_inplaceIN6merkle5HashTILm48EEESaIvELN9__gnu_cxx12_Lock_policyE2EEEEaSEDn
FN:79,83,_ZNSt15__allocated_ptrISaISt23_Sp_counted_ptr_inplaceIN6merkle5HashTILm64EEESaIvELN9__gnu_cxx12_Lock_policyE2EEEEaSEDn
FN:79,83,_ZNSt15__allocated_ptrISaISt23_Sp_counted_ptr_inplaceIN6merkle5PathTILm32EXadL_ZNS1_L14sha256_opensslERKNS1_5HashTILm32EEES6_RS4_EEEESaIvELN9__gnu_cxx12_Lock_policyE2EEEEaSEDn
FN:79,83,_ZNSt15__allocated_ptrISaISt23_Sp_counted_ptr_inplaceIN6merkle5PathTILm32EXadL_ZNS1_L15sha256_compressERKNS1_5HashTILm32EEES6_RS4_EEEESaIvELN9__gnu_cxx12_Lock_policyE2EEEEaSEDn
FN:79,83,_ZNSt15__allocated_ptrISaISt23_Sp_counted_ptr_inplaceIN6merkle5PathTILm48EXadL_ZNS1_L14sha384_opensslERKNS1_5HashTILm48EEES6_RS4_EEEESaIvELN9__gnu_cxx12_Lock_policyE2EEEEaSEDn
FN:79,83,_ZNSt15__allocated_ptrISaISt23_Sp_counted_ptr_inplaceIN6merkle5PathTILm64EXadL_ZNS1_L14sha512_opensslERKNS1_5HashTILm64EEES6_RS4_EEEESaIvELN9__gnu_cxx12_Lock_policyE2EEEEaSEDn
FN:86,86,_ZNSt15__allocated_ptrISaISt23_Sp_counted_ptr_inplaceIN6merkle5HashTILm32EEESaIvELN9__gnu_cxx12_Lock_policyE2EEEE3getEv
FN:86,86,_ZNSt15__allocated_ptrISaISt23_Sp_counted_ptr_inplaceIN6merkle5HashTILm48EEESaIvELN9__gnu_cxx12_Lock_policyE2EEEE3getEv
FN:86,86,_ZNSt15__allocated_ptrISaISt23_Sp_counted_ptr_inplaceIN6merkle5HashTILm64EEESaIvELN9__gnu_cxx12_Lock_policyE2EEEE3getEv
FN:86,86,_ZNSt15__allocated_ptrISaISt23_Sp_counted_ptr_inplaceIN6merkle5PathTILm32EXadL_ZNS1_L14sha256_opensslERKNS1_5HashTILm32EEES6_RS4_EEEESaIvELN9__gnu_cxx12_Lock_policyE2EEEE3getEv
FN:86,86,_ZNSt15__allocated_ptrISaISt23_Sp_counted_ptr_inplaceIN6merkle5PathTILm32EXadL_ZNS1_L15sha256_compressERKNS1_5HashTILm32EEES6_RS4_EEEESaIvELN9__gnu_cxx12_Lock_policyE2EEEE3getEv
FN:86,86,_ZNSt15__allocated_ptrISaISt23_Sp_counted_ptr_inplaceIN6merkle5PathTILm48EXadL_ZNS1_L14sha384_opensslERKNS1_5HashTILm48EEES6_RS4_EEEESaIvELN9__gnu_cxx12_Lock_policyE2EEEE3getEv
FN:86,86,_ZNSt15__allocated_ptrISaISt23_Sp_counted_ptr_inplaceIN6merkle5PathTILm64EXadL_ZNS1_L14sha512_opensslERKNS1_5HashTILm64EEES6_RS4_EEEESaIvELN9__gnu_cxx12_Lock_policyE2EEEE3getEv
FN:96,99,_ZSt18__allocate_guardedISaISt23_Sp_counted_ptr_inplaceIN6merkle5HashTILm32EEESaIvELN9__gnu_cxx12_Lock_policyE2EEEESt15__allocated_ptrIT_ERSA_
FN:96,99,_ZSt18__allocate_guardedISaISt23_Sp_counted_ptr_inplaceIN6merkle5HashTILm48EEESaIvELN9__gnu_cxx12_Lock_policyE2EEEESt15__allocated_ptrIT_ERSA_
FN:96,99,_ZSt18__allocate_guardedISaISt23_Sp_counted_ptr_inplaceIN6merkle5HashTILm64EEESaIvELN9__gnu_cxx12_Lock_policyE2EEEESt15__allocated_ptrIT_ERSA_
FN:96,99,_ZSt18__allocate_guardedISaISt23_Sp_counted_ptr_inplaceIN6merkle5PathTILm32EXadL_ZNS1_L14sha256_opensslERKNS1_5HashTILm32EEES6_RS4_EEEESaIvELN9__gnu_cxx12_Lock_policyE2EEEESt15__allocated_ptrIT_ERSF_
FN:96,99,_ZSt18__allocate_guardedISaISt23_Sp_counted_ptr_inplaceIN6merkle5PathTILm32EXadL_ZNS1_L15sha256_compressERKNS1_5HashTILm32EEES6_RS4_EEEESaIvELN9__gnu_cxx12_Lock_policyE2EEEESt15__allocated_ptrIT_ERSF_
FN:96,99,_ZSt18__allocate_guardedISaISt23_Sp_counted_ptr_inplaceIN6merkle5PathTILm48EXadL_ZNS1_L14sha384_opensslERKNS1_5HashTILm48EEES6_RS4_EEEESaIvELN9__gnu_cxx12_Lock_policyE2EEEESt15__allocated_ptrIT_ERSF_
FN:96,99,_ZSt18__allocate_guardedISaISt23_Sp_counted_ptr_inplaceIN6merkle5PathTILm64EXadL_ZNS1_L14sha512_opensslERKNS1_5HashTILm64EEES6_RS4_EEEESaIvELN9__gnu_cxx12_Lock_policyE2EEEESt15__allocated_ptrIT_ERSF_
FNDA:4,_ZNSt15__allocated_ptrISaISt10_List_nodeIN6merkle5PathTILm32EXadL_ZNS1_L14sha256_opensslERKNS1_5HashTILm32EEES6_RS4_EEEUt0_EEEEC2ERSB_PSA_
FNDA:614222,_ZNSt15__allocated_ptrISaISt10_List_nodeIN6merkle5PathTILm32EXadL_ZNS1_L15sha256_compressERKNS1_5HashTILm32EEES6_RS4_EEEUt0_EEEEC2ERSB_PSA_
FNDA:390,_ZNSt15__allocated_ptrISaISt10_List_nodeIN6merkle5PathTILm48EXadL_ZNS1_L14sha384_opensslERKNS1_5HashTILm48EEES6_RS4_EEEUt0_EEEEC2ERSB_PSA_
FNDA:390,_ZNSt15__allocated_ptrISaISt10_List_nodeIN6merkle5PathTILm64EXadL_ZNS1_L14sha512_opensslERKNS1_5HashTILm64EEES6_RS4_EEEUt0_EEEEC2ERSB_PSA_
FNDA:102718,_ZNSt15__allocated_ptrISaISt23_Sp_counted_ptr_inplaceIN6merkle5HashTILm32EEESaIvELN9__gnu_cxx12_Lock_policyE2EEEEC2ERS8_PS7_
FNDA:144,_ZNSt15__allocated_ptrISaISt23_Sp_counted_ptr_inplaceIN6merkle5HashTILm48EEESaIvELN9__gnu_cxx12_Lock_policyE2EEEEC2ERS8_PS7_
FNDA:144,_ZNSt15__allocated_ptrISaISt23_Sp_counted_ptr_inplaceIN6merkle5HashTILm64EEESaIvELN9__gnu_cxx12_Lock_policyE2EEEEC2ERS8_PS7_
FNDA:4,_ZNSt15__allocated_ptrISaISt23_Sp_counted_ptr_inplaceIN6merkle5PathTILm32EXadL_ZNS1_L14sha256_opensslERKNS1_5HashTILm32EEES6_RS4_EEEESaIvELN9__gnu_cxx12_Lock_policyE2EEEEC2ERSD_PSC_
FNDA:95982,_ZNSt15__allocated_ptrISaISt23_Sp_counted_ptr_inplaceIN6merkle5PathTILm32EXadL_ZNS1_L15sha256_compressERKNS1_5HashTILm32EEES6_RS4_EEEESaIvELN9__gnu_cxx12_Lock_policyE2EEEEC2ERSD_PSC_
FNDA:144,_ZNSt15__allocated_ptrISaISt23_Sp_counted_ptr_inplaceIN6merkle5PathTILm48EXadL_ZNS1_L14sha384_opensslERKNS1_5HashTILm48EEES6_RS4_EEEESaIvELN9__gnu_cxx12_Lock_policyE2EEEEC2ERSD_PSC_
FNDA:144,_ZNSt15__allocated_ptrISaISt23_Sp_counted_ptr_inplaceIN6merkle5PathTILm64EXadL_ZNS1_L14sha512_opensslERKNS1_5HashTILm64EEES6_RS4_EEEESaIvELN9__gnu_cxx12_Lock_policyE2EEEEC2ERSD_PSC_
FNDA:4,_ZNSt15__allocated_ptrISaISt10_List_nodeIN6merkle5PathTILm32EXadL_ZNS1_L14sha256_opensslERKNS1_5HashTILm32EEES6_RS4_EEEUt0_EEEED2Ev
FNDA:614222,_ZNSt15__allocated_ptrISaISt10_List_nodeIN6merkle5PathTILm32EXadL_ZNS1_L15sha256_compressERKNS1_5HashTILm32EEES6_RS4_EEEUt0_EEEED2Ev
FNDA:390,_ZNSt15__allocated_ptrISaISt10_List_nodeIN6merkle5PathTILm48EXadL_ZNS1_L14sha384_opensslERKNS1_5HashTILm48EEES6_RS4_EEEUt0_EEEED2Ev
FNDA:390,_ZNSt15__allocated_ptrISaISt10_List_nodeIN6merkle5PathTILm64EXadL_ZNS1_L14sha512_opensslERKNS1_5HashTILm64EEES6_RS4_EEEUt0_EEEED2Ev
FNDA:102718,_ZNSt15__allocated_ptrISaISt23_Sp_counted_ptr_inplaceIN6merkle5HashTILm32EEESaIvELN9__gnu_cxx12_Lock_policyE2EEEED2Ev
FNDA:144,_ZNSt15__allocated_ptrISaISt23_Sp_counted_ptr_inplaceIN6merkle5HashTILm48EEESaIvELN9__gnu_cxx12_Lock_policyE2EEEED2Ev
FNDA:144,_ZNSt15__allocated_ptrISaISt23_Sp_counted_ptr_inplaceIN6merkle5HashTILm64EEESaIvELN9__gnu_cxx12_Lock_policyE2EEEED2Ev
FNDA:4,_ZNSt15__allocated_ptrISaISt23_Sp_counted_ptr_inplaceIN6merkle5PathTILm32EXadL_ZNS1_L14sha256_opensslERKNS1_5HashTILm32EEES6_RS4_EEEESaIvELN9__gnu_cxx12_Lock_policyE2EEEED2Ev
FNDA:95982,_ZNSt15__allocated_ptrISaISt23_Sp_counted_ptr_inplaceIN6merkle5PathTILm32EXadL_ZNS1_L15sha256_compressERKNS1_5HashTILm32EEES6_RS4_EEEESaIvELN9__gnu_cxx12_Lock_policyE2EEEED2Ev
FNDA:144,_ZNSt15__allocated_ptrISaISt23_Sp_counted_ptr_inplaceIN6merkle5PathTILm48EXadL_ZNS1_L14sha384_opensslERKNS1_5HashTILm48EEES6_RS4_EEEESaIvELN9__gnu_cxx12_Lock_policyE2EEEED2Ev
FNDA:144,_ZNSt15__allocated_ptrISaISt23_Sp_counted_ptr_inplaceIN6merkle5PathTILm64EXadL_ZNS1_L14sha512_opensslERKNS1_5HashTILm64EEES6_RS4_EEEESaIvELN9__gnu_cxx12_Lock_policyE2EEEED2Ev
FNDA:4,_ZNSt15__allocated_ptrISaISt10_List_nodeIN6merkle5PathTILm32EXadL_ZNS1_L14sha256_opensslERKNS1_5HashTILm32EEES6_RS4_EEEUt0_EEEEaSEDn
FNDA:614222,_ZNSt15__allocated_ptrISaISt10_List_nodeIN6merkle5PathTILm32EXadL_ZNS1_L15sha256_compressERKNS1_5HashTILm32EEES6_RS4_EEEUt0_EEEEaSEDn
FNDA:390,_ZNSt15__allocated_ptrISaISt10_List_nodeIN6merkle5PathTILm48EXadL_ZNS1_L14sha384_opensslERKNS1_5HashTILm48EEES6_RS4_EEEUt0_EEEEaSEDn
FNDA:390,_ZNSt15__allocated_ptrISaISt10_List_nodeIN6merkle5PathTILm64EXadL_ZNS1_L14sha512_opensslERKNS1_5HashTILm64EEES6_RS4_EEEUt0_EEEEaSEDn
FNDA:51359,_ZNSt15__allocated_ptrISaISt23_Sp_counted_ptr_inplaceIN6merkle5HashTILm32EEESaIvELN9__gnu_cxx12_Lock_policyE2EEEEaSEDn
FNDA:72,_ZNSt15__allocated_ptrISaISt23_Sp_counted_ptr_inplaceIN6merkle5HashTILm48EEESaIvELN9__gnu_cxx12_Lock_policyE2EEEEaSEDn
FNDA:72,_ZNSt15__allocated_ptrISaISt23_Sp_counted_ptr_inplaceIN6merkle5HashTILm64EEESaIvELN9__gnu_cxx12_Lock_policyE2EEEEaSEDn
FNDA:2,_ZNSt15__allocated_ptrISaISt23_Sp_counted_ptr_inplaceIN6merkle5PathTILm32EXadL_ZNS1_L14sha256_opensslERKNS1_5HashTILm32EEES6_RS4_EEEESaIvELN9__gnu_cxx12_Lock_policyE2EEEEaSEDn
FNDA:47991,_ZNSt15__allocated_ptrISaISt23_Sp_counted_ptr_inplaceIN6merkle5PathTILm32EXadL_ZNS1_L15sha256_compressERKNS1_5HashTILm32EEES6_RS4_EEEESaIvELN9__gnu_cxx12_Lock_policyE2EEEEaSEDn
FNDA:72,_ZNSt15__allocated_ptrISaISt23_Sp_counted_ptr_inplaceIN6merkle5PathTILm48EXadL_ZNS1_L14sha384_opensslERKNS1_5HashTILm48EEES6_RS4_EEEESaIvELN9__gnu_cxx12_Lock_policyE2EEEEaSEDn
FNDA:72,_ZNSt15__allocated_ptrISaISt23_Sp_counted_ptr_inplaceIN6merkle5PathTILm64EXadL_ZNS1_L14sha512_opensslERKNS1_5HashTILm64EEES6_RS4_EEEESaIvELN9__gnu_cxx12_Lock_policyE2EEEEaSEDn
FNDA:51359,_ZNSt15__allocated_ptrISaISt23_Sp_counted_ptr_inplaceIN6merkle5HashTILm32EEESaIvELN9__gnu_cxx12_Lock_policyE2EEEE3getEv
FNDA:72,_ZNSt15__allocated_ptrISaISt23_Sp_counted_ptr_inplaceIN6merkle5HashTILm48EEESaIvELN9__gnu_cxx12_Lock_policyE2EEEE3getEv
FNDA:72,_ZNSt15__allocated_ptrISaISt23_Sp_counted_ptr_inplaceIN6merkle5HashTILm64EEESaIvELN9__gnu_cxx12_Lock_policyE2EEEE3getEv
FNDA:2,_ZNSt15__allocated_ptrISaISt23_Sp_counted_ptr_inplaceIN6merkle5PathTILm32EXadL_ZNS1_L14sha256_opensslERKNS1_5HashTILm32EEES6_RS4_EEEESaIvELN9__gnu_cxx12_Lock_policyE2EEEE3getEv
FNDA:47991,_ZNSt15__allocated_ptrISaISt23_Sp_counted_ptr_inplaceIN6merkle5PathTILm32EXadL_ZNS1_L15sha256_compressERKNS1_5HashTILm32EEES6_RS4_EEEESaIvELN9__gnu_cxx12_Lock_policyE2EEEE3getEv
FNDA:72,_ZNSt15__allocated_ptrISaISt23_Sp_counted_ptr_inplaceIN6merkle5PathTILm48EXadL_ZNS1_L14sha384_opensslERKNS1_5HashTILm48EEES6_RS4_EEEESaIvELN9__gnu_cxx12_Lock_policyE2EEEE3getEv
FNDA:72,_ZNSt15__allocated_ptrISaISt23_Sp_counted_ptr_inplaceIN6merkle5PathTILm64EXadL_ZNS1_L14sha512_opensslERKNS1_5HashTILm64EEES6_RS4_EEEESaIvELN9__gnu_cxx12_Lock_policyE2EEEE3getEv
FNDA:51359,_ZSt18__allocate_guardedISaISt23_Sp_counted_ptr_inplaceIN6merkle5HashTILm32EEESaIvELN9__gnu_cxx12_Lock_policyE2EEEESt15__allocated_ptrIT_ERSA_
FNDA:72,_ZSt18__allocate_guardedISaISt23_Sp_counted_ptr_inplaceIN6merkle5HashTILm48EEESaIvELN9__gnu_cxx12_Lock_policyE2EEEESt15__allocated_ptrIT_ERSA_
FNDA:72,_ZSt18__allocate_guardedISaISt23_Sp_counted_ptr_inplaceIN6merkle5HashTILm64EEESaIvELN9__gnu_cxx12_Lock_policyE2EEEESt15__allocated_ptrIT_ERSA_
FNDA:2,_ZSt18__allocate_guardedISaISt23_Sp_counted_ptr_inplaceIN6merkle5PathTILm32EXadL_ZNS1_L14sha256_opensslERKNS1_5HashTILm32EEES6_RS4_EEEESaIvELN9__gnu_cxx12_Lock_policyE2EEEESt15__allocated_ptrIT_ERSF_
FNDA:47991,_ZSt18__allocate_guardedISaISt23_Sp_counted_ptr_inplaceIN6merkle5PathTILm32EXadL_ZNS1_L15sha256_compressERKNS1_5HashTILm32EEES6_RS4_EEEESaIvELN9__gnu_cxx12_Lock_policyE2EEEESt15__allocated_ptrIT_ERSF_
FNDA:72,_ZSt18__allocate_guardedISaISt23_Sp_counted_ptr_inplaceIN6merkle5PathTILm48EXadL_ZNS1_L14sha384_opensslERKNS1_5HashTILm48EEES6_RS4_EEEESaIvELN9__gnu_cxx12_Lock_policyE2EEEESt15__allocated_ptrIT_ERSF_
FNDA:72,_ZSt18__allocate_guardedISaISt23_Sp_counted_ptr_inplaceIN6merkle5PathTILm64EXadL_ZNS1_L14sha512_opensslERKNS1_5HashTILm64EEES6_RS4_EEEESaIvELN9__gnu_cxx12_Lock_policyE2EEEESt15__allocated_ptrIT_ERSF_
FNF:47
FNH:47
DA:53,814286
DA:54,814286
DA:55,814286
DA:71,814286
DA:73,814286
DA:74,99640
DA:75,814286
DA:79,714646
DA:81,714646
DA:82,714646
DA:86,99640
DA:96,99640
DA:98,99640
LF:13
LH:13
end_of_record
TN:
SF:/usr/include/c++/13/bits/allocator.h
FNF:0
FNH:0
DA:163,114569
DA:168,52309
DA:178,199280
DA:184,201524
DA:217,0
LF:5
LH:4
end_of_record
TN:
SF:/usr/include/c++/13/bits/atomic_base.h
FN:107,110,_ZStanSt12memory_orderSt23__memory_order_modifier
FN:371,375,_ZNSt13__atomic_baseIbEaSEb
FN:385,386,_ZNSt13__atomic_baseImEppEi
FNDA:2316,_ZStanSt12memory_orderSt23__memory_order_modifier
FNDA:12,_ZNSt13__atomic_baseIbEaSEb
FNDA:1,_ZNSt13__atomic_baseImEppEi
FNF:3
FNH:3
DA:107,2316
DA:109,2316
DA:371,12
DA:373,12
DA:374,12
DA:385,1
DA:386,1
DA:476,780
DA:477,780
DA:478,780
DA:479,780
DA:481,780
DA:482,780
DA:501,1536
DA:502,1536
DA:503,1536
DA:505,1536
DA:635,419
LF:18
LH:18
end_of_record
TN:
SF:/usr/include/c++/13/bits/basic_string.h
FN:3674,3676,_ZStplIcSt11char_traitsIcESaIcEENSt7__cxx1112basic_stringIT_T0_T1_EEPKS5_OS8_
FN:3688,3690,_ZStplIcSt11char_traitsIcESaIcEENSt7__cxx1112basic_stringIT_T0_T1_EEOS8_PKS5_
FN:4162,4173,_ZNSt7__cxx119to_stringEi
FN:641,650,_ZNSt7__cxx1112basic_stringIcSt11char_traitsIcESaIcEEC2IS3_EEPKcRKS3_
FN:664,666,_ZNSt7__cxx1112basic_stringIcSt11char_traitsIcESaIcEEC2IS3_EEmcRKS3_
FNDA:0,_ZStplIcSt11char_traitsIcESaIcEENSt7__cxx1112basic_stringIT_T0_T1_EEPKS5_OS8_
FNDA:0,_ZStplIcSt11char_traitsIcESaIcEENSt7__cxx1112basic_stringIT_T0_T1_EEOS8_PKS5_
FNDA:0,_ZNSt7__cxx119to_stringEi
FNDA:8,_ZNSt7__cxx1112basic_stringIcSt11char_traitsIcESaIcEEC2IS3_EEPKcRKS3_
FNDA:150,_ZNSt7__cxx1112basic_stringIcSt11char_traitsIcESaIcEEC2IS3_EEmcRKS3_
FNF:5
FNH:2
DA:355,8
DA:641,8
DA:642,8
DA:645,8
DA:646,0
DA:648,8
DA:649,8
DA:650,8
DA:664,150
DA:665,150
DA:666,150
DA:3674,0
DA:3676,0
DA:3688,0
DA:3690,0
DA:4162,0
DA:4167,0
DA:4168,0
DA:4169,0
DA:4170,0
DA:4171,0
DA:4172,0
LF:22
LH:10
end_of_record
TN:
SF:/usr/include/c++/13/bits/basic_string.tcc
FN:221,252,_ZNSt7__cxx1112basic_stringIcSt11char_traitsIcESaIcEE12_M_constructIPKcEEvT_S8_St20forward_iterator_tag
FN:221,252,_ZNSt7__cxx1112basic_stringIcSt11char_traitsIcESaIcEE12_M_constructIPcEEvT_S7_St20forward_iterator_tag
FN:239,239,_ZZNSt7__cxx1112basic_stringIcSt11char_traitsIcESaIcEE12_M_constructIPKcEEvT_S8_St20forward_iterator_tagEN6_GuardC2EPS4_
FN:239,239,_ZZNSt7__cxx1112basic_stringIcSt11char_traitsIcESaIcEE12_M_constructIPcEEvT_S7_St20forward_iterator_tagEN6_GuardC2EPS4_
FN:242,242,_ZZNSt7__cxx1112basic_stringIcSt11char_traitsIcESaIcEE12_M_constructIPKcEEvT_S8_St20forward_iterator_tagEN6_GuardD2Ev
FN:242,242,_ZZNSt7__cxx1112basic_stringIcSt11char_traitsIcESaIcEE12_M_constructIPcEEvT_S7_St20forward_iterator_tagEN6_GuardD2Ev
FNDA:8,_ZNSt7__cxx1112basic_stringIcSt11char_traitsIcESaIcEE12_M_constructIPKcEEvT_S8_St20forward_iterator_tag
FNDA:0,_ZNSt7__cxx1112basic_stringIcSt11char_traitsIcESaIcEE12_M_constructIPcEEvT_S7_St20forward_iterator_tag
FNDA:8,_ZZNSt7__cxx1112basic_stringIcSt11char_traitsIcESaIcEE12_M_constructIPKcEEvT_S8_St20forward_iterator_tagEN6_GuardC2EPS4_
FNDA:0,_ZZNSt7__cxx1112basic_stringIcSt11char_traitsIcESaIcEE12_M_constructIPcEEvT_S7_St20forward_iterator_tagEN6_GuardC2EPS4_
FNDA:8,_ZZNSt7__cxx1112basic_stringIcSt11char_traitsIcESaIcEE12_M_constructIPKcEEvT_S8_St20forward_iterator_tagEN6_GuardD2Ev
FNDA:0,_ZZNSt7__cxx1112basic_stringIcSt11char_traitsIcESaIcEE12_M_constructIPcEEvT_S7_St20forward_iterator_tagEN6_GuardD2Ev
FNF:6
FNH:3
DA:221,8
DA:225,8
DA:227,8
DA:229,0
DA:230,0
DA:239,8
DA:242,8
DA:245,8
DA:247,8
DA:249,8
DA:251,8
DA:252,8
LF:12
LH:10
end_of_record
TN:
SF:/usr/include/c++/13/bits/char_traits.h
FN:136,137,_ZN9__gnu_cxx11char_traitsIcE2eqERKcS3_
FN:199,206,_ZN9__gnu_cxx11char_traitsIcE6lengthEPKc
FN:393,400,_ZNSt11char_traitsIcE6lengthEPKc
FN:427,436,_ZNSt11char_traitsIcE4copyEPcPKcm
FN:466,467,_ZNSt11char_traitsIcE3eofEv
FN:470,471,_ZNSt11char_traitsIcE7not_eofERKi
FNDA:0,_ZN9__gnu_cxx11char_traitsIcE2eqERKcS3_
FNDA:0,_ZN9__gnu_cxx11char_traitsIcE6lengthEPKc
FNDA:8,_ZNSt11char_traitsIcE6lengthEPKc
FNDA:0,_ZNSt11char_traitsIcE4copyEPcPKcm
FNDA:0,_ZNSt11char_traitsIcE3eofEv
FNDA:0,_ZNSt11char_traitsIcE7not_eofERKi
FNF:6
FNH:1
DA:136,0
DA:137,0
DA:199,0
DA:202,0
DA:203,0
DA:204,0
DA:205,0
DA:393,8
DA:396,8
DA:397,0
DA:399,8
DA:427,0
DA:429,0
DA:430,0
DA:435,0
DA:466,0
DA:467,0
DA:470,0
DA:471,0
LF:19
LH:3
end_of_record
TN:
SF:/usr/include/c++/13/bits/charconv.h
FN:55,74,_ZNSt8__detail14__to_chars_lenIjEEjT_i
FN:81,110,_ZNSt8__detail18__to_chars_10_implIjEEvPcjT_
FNDA:0,_ZNSt8__detail14__to_chars_lenIjEEjT_i
FNDA:0,_ZNSt8__detail18__to_chars_10_implIjEEvPcjT_
FNF:2
FNH:0
DA:55,0
DA:61,0
DA:62,0
DA:63,0
DA:64,0
DA:67,0
DA:68,0
DA:69,0
DA:70,0
DA:71,0
DA:72,0
DA:81,0
DA:87,0
DA:93,0
DA:94,0
DA:96,0
DA:97,0
DA:98,0
DA:99,0
DA:100,0
DA:102,0
DA:104,0
DA:105,0
DA:106,0
DA:109,0
DA:110,0
LF:26
LH:0
end_of_record
TN:
SF:/usr/include/c++/13/bits/chrono.h
FN:1141,1143,_ZNSt6chronomiINS_3_V212system_clockENS_8durationIlSt5ratioILl1ELl1000000000EEEES6_EENSt11common_typeIJT0_T1_EE4typeERKNS_10time_pointIT_S8_EERKNSC_ISD_S9_EE
FN:273,291,_ZNSt6chrono13duration_castINS_8durationIlSt5ratioILl1ELl1000000000EEEElS3_EENSt9enable_ifIXsrNS_13__is_durationIT_EE5valueES7_E4typeERKNS1_IT0_T1_EE
FN:573,574,_ZNSt6chrono8durationIlSt5ratioILl1ELl1000000000EEEC1IlvEERKT_
FN:589,590,_ZNKSt6chrono8durationIlSt5ratioILl1ELl1000000000EEE5countEv
FN:710,717,_ZNSt6chronomiIlSt5ratioILl1ELl1000000000EElS2_EENSt11common_typeIJNS_8durationIT_T0_EENS4_IT1_T2_EEEE4typeERKS7_RKSA_
FN:949,950,_ZNKSt6chrono10time_pointINS_3_V212system_clockENS_8durationIlSt5ratioILl1ELl1000000000EEEEE16time_since_epochEv
FNDA:7719,_ZNSt6chronomiINS_3_V212system_clockENS_8durationIlSt5ratioILl1ELl1000000000EEEES6_EENSt11common_typeIJT0_T1_EE4typeERKNS_10time_pointIT_S8_EERKNSC_ISD_S9_EE
FNDA:7719,_ZNSt6chrono13duration_castINS_8durationIlSt5ratioILl1ELl1000000000EEEElS3_EENSt9enable_ifIXsrNS_13__is_durationIT_EE5valueES7_E4typeERKNS1_IT0_T1_EE
FNDA:7719,_ZNSt6chrono8durationIlSt5ratioILl1ELl1000000000EEEC1IlvEERKT_
FNDA:23157,_ZNKSt6chrono8durationIlSt5ratioILl1ELl1000000000EEE5countEv
FNDA:7719,_ZNSt6chronomiIlSt5ratioILl1ELl1000000000EElS2_EENSt11common_typeIJNS_8durationIT_T0_EENS4_IT1_T2_EEEE4typeERKS7_RKSA_
FNDA:15438,_ZNKSt6chrono10time_pointINS_3_V212system_clockENS_8durationIlSt5ratioILl1ELl1000000000EEEEE16time_since_epochEv
FNF:6
FNH:6
DA:273,7719
DA:277,7719
DA:573,7719
DA:574,7719
DA:589,23157
DA:590,23157
DA:710,7719
DA:716,7719
DA:949,15438
DA:950,15438
DA:1141,7719
DA:1143,7719
LF:12
LH:12
end_of_record
TN:
SF:/usr/include/c++/13/bits/cpp_type_traits.h
FN:607,608,_ZSt12__miter_baseIN9__gnu_cxx17__normal_iteratorIPKPN6merkle5TreeTILm32EXadL_ZNS2_L15sha256_compressERKNS2_5HashTILm32EEES7_RS5_EEE4NodeESt6vectorISB_SaISB_EEEEET_SI_
FN:607,608,_ZSt12__miter_baseIN9__gnu_cxx17__normal_iteratorIPKPN6merkle5TreeTILm48EXadL_ZNS2_L14sha384_opensslERKNS2_5HashTILm48EEES7_RS5_EEE4NodeESt6vectorISB_SaISB_EEEEET_SI_
FN:607,608,_ZSt12__miter_baseIN9__gnu_cxx17__normal_iteratorIPKPN6merkle5TreeTILm64EXadL_ZNS2_L14sha512_opensslERKNS2_5HashTILm64EEES7_RS5_EEE4NodeESt6vectorISB_SaISB_EEEEET_SI_
FN:607,608,_ZSt12__miter_baseIN9__gnu_cxx17__normal_iteratorIPN7doctest16SubcaseSignatureESt6vectorIS3_SaIS3_EEEEET_S9_
FN:607,608,_ZSt12__miter_baseIN9__gnu_cxx17__normal_iteratorIPPKN7doctest6detail8TestCaseESt6vectorIS6_SaIS6_EEEEET_SC_
FN:607,608,_ZSt12__miter_baseIN9__gnu_cxx17__normal_iteratorIPPN6merkle5TreeTILm32EXadL_ZNS2_L15sha256_compressERKNS2_5HashTILm32EEES7_RS5_EEE4NodeESt6vectorISB_SaISB_EEEEET_SH_
FN:607,608,_ZSt12__miter_baseIN9__gnu_cxx17__normal_iteratorIPPN6merkle5TreeTILm48EXadL_ZNS2_L14sha384_opensslERKNS2_5HashTILm48EEES7_RS5_EEE4NodeESt6vectorISB_SaISB_EEEEET_SH_
FN:607,608,_ZSt12__miter_baseIN9__gnu_cxx17__normal_iteratorIPPN6merkle5TreeTILm64EXadL_ZNS2_L14sha512_opensslERKNS2_5HashTILm64EEES7_RS5_EEE4NodeESt6vectorISB_SaISB_EEEEET_SH_
FN:607,608,_ZSt12__miter_baseIPKhET_S2_
FN:607,608,_ZSt12__miter_baseIPN7doctest16SubcaseSignatureEET_S3_
FN:607,608,_ZSt12__miter_baseIPPN6merkle5TreeTILm32EXadL_ZNS0_L15sha256_compressERKNS0_5HashTILm32EEES5_RS3_EEE4NodeEET_SB_
FN:607,608,_ZSt12__miter_baseIPPN6merkle5TreeTILm48EXadL_ZNS0_L14sha384_opensslERKNS0_5HashTILm48EEES5_RS3_EEE4NodeEET_SB_
FN:607,608,_ZSt12__miter_baseIPPN6merkle5TreeTILm64EXadL_ZNS0_L14sha512_opensslERKNS0_5HashTILm64EEES5_RS3_EEE4NodeEET_SB_
FN:607,608,_ZSt12__miter_baseIPPN7doctest9IReporterEET_S4_
FNDA:4158,_ZSt12__miter_baseIN9__gnu_cxx17__normal_iteratorIPKPN6merkle5TreeTILm32EXadL_ZNS2_L15sha256_compressERKNS2_5HashTILm32EEES7_RS5_EEE4NodeESt6vectorISB_SaISB_EEEEET_SI_
FNDA:6,_ZSt12__miter_baseIN9__gnu_cxx17__normal_iteratorIPKPN6merkle5TreeTILm48EXadL_ZNS2_L14sha384_opensslERKNS2_5HashTILm48EEES7_RS5_EEE4NodeESt6vectorISB_SaISB_EEEEET_SI_
FNDA:6,_ZSt12__miter_baseIN9__gnu_cxx17__normal_iteratorIPKPN6merkle5TreeTILm64EXadL_ZNS2_L14sha512_opensslERKNS2_5HashTILm64EEES7_RS5_EEE4NodeESt6vectorISB_SaISB_EEEEET_SI_
FNDA:0,_ZSt12__miter_baseIN9__gnu_cxx17__normal_iteratorIPN7doctest16SubcaseSignatureESt6vectorIS3_SaIS3_EEEEET_S9_
FNDA:0,_ZSt12__miter_baseIN9__gnu_cxx17__normal_iteratorIPPKN7doctest6detail8TestCaseESt6vectorIS6_SaIS6_EEEEET_SC_
FNDA:340276,_ZSt12__miter_baseIN9__gnu_cxx17__normal_iteratorIPPN6merkle5TreeTILm32EXadL_ZNS2_L15sha256_compressERKNS2_5HashTILm32EEES7_RS5_EEE4NodeESt6vectorISB_SaISB_EEEEET_SH_
FNDA:2,_ZSt12__miter_baseIN9__gnu_cxx17__normal_iteratorIPPN6merkle5TreeTILm48EXadL_ZNS2_L14sha384_opensslERKNS2_5HashTILm48EEES7_RS5_EEE4NodeESt6vectorISB_SaISB_EEEEET_SH_
FNDA:2,_ZSt12__miter_baseIN9__gnu_cxx17__normal_iteratorIPPN6merkle5TreeTILm64EXadL_ZNS2_L14sha512_opensslERKNS2_5HashTILm64EEES7_RS5_EEE4NodeESt6vectorISB_SaISB_EEEEET_SH_
FNDA:120477882,_ZSt12__miter_baseIPKhET_S2_
FNDA:0,_ZSt12__miter_baseIPN7doctest16SubcaseSignatureEET_S3_
FNDA:20396,_ZSt12__miter_baseIPPN6merkle5TreeTILm32EXadL_ZNS0_L15sha256_compressERKNS0_5HashTILm32EEES5_RS3_EEE4NodeEET_SB_
FNDA:0,_ZSt12__miter_baseIPPN6merkle5TreeTILm48EXadL_ZNS0_L14sha384_opensslERKNS0_5HashTILm48EEES5_RS3_EEE4NodeEET_SB_
FNDA:0,_ZSt12__miter_baseIPPN6merkle5TreeTILm64EXadL_ZNS0_L14sha512_opensslERKNS0_5HashTILm64EEES5_RS3_EEE4NodeEET_SB_
FNDA:0,_ZSt12__miter_baseIPPN7doctest9IReporterEET_S4_
FNF:14
FNH:8
DA:607,120842728
DA:608,120842728
LF:2
LH:2
end_of_record
TN:
SF:/usr/include/c++/13/bits/functional_hash.h
FN:172,172,_ZNKSt4hashIyEclEy
FNDA:0,_ZNKSt4hashIyEclEy
FNF:1
FNH:0
DA:172,0
LF:1
LH:0
end_of_record
TN:
SF:/usr/include/c++/13/bits/hashtable.h
FN:1595,1610,_ZNSt10_HashtableIyySaIyENSt8__detail9_IdentityESt8equal_toIyESt4hashIyENS1_18_Mod_range_hashingENS1_20_Default_ranged_hashENS1_20_Prime_rehash_policyENS1_17_Hashtable_traitsILb0ELb1ELb1EEEED2Ev
FN:1664,1680,_ZNSt10_HashtableIyySaIyENSt8__detail9_IdentityESt8equal_toIyESt4hashIyENS1_18_Mod_range_hashingENS1_20_Default_ranged_hashENS1_20_Prime_rehash_policyENS1_17_Hashtable_traitsILb0ELb1ELb1EEEE4findERKy
FN:1948,1970,_ZNKSt10_HashtableIyySaIyENSt8__detail9_IdentityESt8equal_toIyESt4hashIyENS1_18_Mod_range_hashingENS1_20_Default_ranged_hashENS1_20_Prime_rehash_policyENS1_17_Hashtable_traitsILb0ELb1ELb1EEEE19_M_find_before_nodeEmRKym
FN:1978,2000,_ZNKSt10_HashtableIyySaIyENSt8__detail9_IdentityESt8equal_toIyESt4hashIyENS1_18_Mod_range_hashingENS1_20_Default_ranged_hashENS1_20_Prime_rehash_policyENS1_17_Hashtable_traitsILb0ELb1ELb1EEEE22_M_find_before_node_trIyEEPNS1_15_Hash_node_baseEmRKT_m
FN:2007,2033,_ZNSt10_HashtableIyySaIyENSt8__detail9_IdentityESt8equal_toIyESt4hashIyENS1_18_Mod_range_hashingENS1_20_Default_ranged_hashENS1_20_Prime_rehash_policyENS1_17_Hashtable_traitsILb0ELb1ELb1EEEE22_M_insert_bucket_beginEmPNS1_10_Hash_nodeIyLb0EEE
FN:2166,2189,_ZNSt10_HashtableIyySaIyENSt8__detail9_IdentityESt8equal_toIyESt4hashIyENS1_18_Mod_range_hashingENS1_20_Default_ranged_hashENS1_20_Prime_rehash_policyENS1_17_Hashtable_traitsILb0ELb1ELb1EEEE21_M_insert_unique_nodeEmmPNS1_10_Hash_nodeIyLb0EEEm
FN:2253,2281,_ZNSt10_HashtableIyySaIyENSt8__detail9_IdentityESt8equal_toIyESt4hashIyENS1_18_Mod_range_hashingENS1_20_Default_ranged_hashENS1_20_Prime_rehash_policyENS1_17_Hashtable_traitsILb0ELb1ELb1EEEE16_M_insert_uniqueIyyNS1_10_AllocNodeISaINS1_10_Hash_nodeIyLb0EEEEEEEESt4pairINS1_14_Node_iteratorIyLb1ELb0EEEbEOT_OT0_RKT1_
FN:2520,2529,_ZNSt10_HashtableIyySaIyENSt8__detail9_IdentityESt8equal_toIyESt4hashIyENS1_18_Mod_range_hashingENS1_20_Default_ranged_hashENS1_20_Prime_rehash_policyENS1_17_Hashtable_traitsILb0ELb1ELb1EEEE5clearEv
FN:2559,2574,_ZNSt10_HashtableIyySaIyENSt8__detail9_IdentityESt8equal_toIyESt4hashIyENS1_18_Mod_range_hashingENS1_20_Default_ranged_hashENS1_20_Prime_rehash_policyENS1_17_Hashtable_traitsILb0ELb1ELb1EEEE9_M_rehashEmRKm
FN:2582,2616,_ZNSt10_HashtableIyySaIyENSt8__detail9_IdentityESt8equal_toIyESt4hashIyENS1_18_Mod_range_hashingENS1_20_Default_ranged_hashENS1_20_Prime_rehash_policyENS1_17_Hashtable_traitsILb0ELb1ELb1EEEE13_M_rehash_auxEmSt17integral_constantIbLb1EE
FN:300,301,_ZNSt10_HashtableIyySaIyENSt8__detail9_IdentityESt8equal_toIyESt4hashIyENS1_18_Mod_range_hashingENS1_20_Default_ranged_hashENS1_20_Prime_rehash_policyENS1_17_Hashtable_traitsILb0ELb1ELb1EEEE12_Scoped_nodeC2EPNS1_10_Hash_nodeIyLb0EEEPNS1_16_Hashtable_allocISaISF_EEE
FN:311,311,_ZNSt10_HashtableIyySaIyENSt8__detail9_IdentityESt8equal_toIyESt4hashIyENS1_18_Mod_range_hashingENS1_20_Default_ranged_hashENS1_20_Prime_rehash_policyENS1_17_Hashtable_traitsILb0ELb1ELb1EEEE12_Scoped_nodeD2Ev
FN:416,417,_ZNKSt10_HashtableIyySaIyENSt8__detail9_IdentityESt8equal_toIyESt4hashIyENS1_18_Mod_range_hashingENS1_20_Default_ranged_hashENS1_20_Prime_rehash_policyENS1_17_Hashtable_traitsILb0ELb1ELb1EEEE21_M_uses_single_bucketEPPNS1_15_Hash_node_baseE
FN:424,428,_ZNSt10_HashtableIyySaIyENSt8__detail9_IdentityESt8equal_toIyESt4hashIyENS1_18_Mod_range_hashingENS1_20_Default_ranged_hashENS1_20_Prime_rehash_policyENS1_17_Hashtable_traitsILb0ELb1ELb1EEEE22__small_size_thresholdEv
FN:434,443,_ZNSt10_HashtableIyySaIyENSt8__detail9_IdentityESt8equal_toIyESt4hashIyENS1_18_Mod_range_hashingENS1_20_Default_ranged_hashENS1_20_Prime_rehash_policyENS1_17_Hashtable_traitsILb0ELb1ELb1EEEE19_M_allocate_bucketsEm
FN:446,452,_ZNSt10_HashtableIyySaIyENSt8__detail9_IdentityESt8equal_toIyESt4hashIyENS1_18_Mod_range_hashingENS1_20_Default_ranged_hashENS1_20_Prime_rehash_policyENS1_17_Hashtable_traitsILb0ELb1ELb1EEEE21_M_deallocate_bucketsEPPNS1_15_Hash_node_baseEm
FN:455,456,_ZNSt10_HashtableIyySaIyENSt8__detail9_IdentityESt8equal_toIyESt4hashIyENS1_18_Mod_range_hashingENS1_20_Default_ranged_hashENS1_20_Prime_rehash_policyENS1_17_Hashtable_traitsILb0ELb1ELb1EEEE21_M_deallocate_bucketsEv
FN:464,465,_ZNKSt10_HashtableIyySaIyENSt8__detail9_IdentityESt8equal_toIyESt4hashIyENS1_18_Mod_range_hashingENS1_20_Default_ranged_hashENS1_20_Prime_rehash_policyENS1_17_Hashtable_traitsILb0ELb1ELb1EEEE8_M_beginEv
FN:530,530,_ZNSt10_HashtableIyySaIyENSt8__detail9_IdentityESt8equal_toIyESt4hashIyENS1_18_Mod_range_hashingENS1_20_Default_ranged_hashENS1_20_Prime_rehash_policyENS1_17_Hashtable_traitsILb0ELb1ELb1EEEEC2Ev
FN:623,624,_ZNSt10_HashtableIyySaIyENSt8__detail9_IdentityESt8equal_toIyESt4hashIyENS1_18_Mod_range_hashingENS1_20_Default_ranged_hashENS1_20_Prime_rehash_policyENS1_17_Hashtable_traitsILb0ELb1ELb1EEEE5beginEv
FN:631,632,_ZNSt10_HashtableIyySaIyENSt8__detail9_IdentityESt8equal_toIyESt4hashIyENS1_18_Mod_range_hashingENS1_20_Default_ranged_hashENS1_20_Prime_rehash_policyENS1_17_Hashtable_traitsILb0ELb1ELb1EEEE3endEv
FN:647,648,_ZNKSt10_HashtableIyySaIyENSt8__detail9_IdentityESt8equal_toIyESt4hashIyENS1_18_Mod_range_hashingENS1_20_Default_ranged_hashENS1_20_Prime_rehash_policyENS1_17_Hashtable_traitsILb0ELb1ELb1EEEE4sizeEv
FN:792,793,_ZNKSt10_HashtableIyySaIyENSt8__detail9_IdentityESt8equal_toIyESt4hashIyENS1_18_Mod_range_hashingENS1_20_Default_ranged_hashENS1_20_Prime_rehash_policyENS1_17_Hashtable_traitsILb0ELb1ELb1EEEE15_M_bucket_indexERKNS1_16_Hash_node_valueIyLb0EEE
FN:796,797,_ZNKSt10_HashtableIyySaIyENSt8__detail9_IdentityESt8equal_toIyESt4hashIyENS1_18_Mod_range_hashingENS1_20_Default_ranged_hashENS1_20_Prime_rehash_policyENS1_17_Hashtable_traitsILb0ELb1ELb1EEEE15_M_bucket_indexEm
FN:812,819,_ZNKSt10_HashtableIyySaIyENSt8__detail9_IdentityESt8equal_toIyESt4hashIyENS1_18_Mod_range_hashingENS1_20_Default_ranged_hashENS1_20_Prime_rehash_policyENS1_17_Hashtable_traitsILb0ELb1ELb1EEEE12_M_find_nodeEmRKym
FN:823,830,_ZNKSt10_HashtableIyySaIyENSt8__detail9_IdentityESt8equal_toIyESt4hashIyENS1_18_Mod_range_hashingENS1_20_Default_ranged_hashENS1_20_Prime_rehash_policyENS1_17_Hashtable_traitsILb0ELb1ELb1EEEE15_M_find_node_trIyEEPNS1_10_Hash_nodeIyLb0EEEmRKT_m
FN:897,898,_ZNSt10_HashtableIyySaIyENSt8__detail9_IdentityESt8equal_toIyESt4hashIyENS1_18_Mod_range_hashingENS1_20_Default_ranged_hashENS1_20_Prime_rehash_policyENS1_17_Hashtable_traitsILb0ELb1ELb1EEEE14_S_forward_keyEOy
FN:902,907,_ZNSt10_HashtableIyySaIyENSt8__detail9_IdentityESt8equal_toIyESt4hashIyENS1_18_Mod_range_hashingENS1_20_Default_ranged_hashENS1_20_Prime_rehash_policyENS1_17_Hashtable_traitsILb0ELb1ELb1EEEE20_M_insert_unique_auxIyNS1_10_AllocNodeISaINS1_10_Hash_nodeIyLb0EEEEEEEESt4pairINS1_14_Node_iteratorIyLb1ELb0EEEbEOT_RKT0_
FN:911,918,_ZNSt10_HashtableIyySaIyENSt8__detail9_IdentityESt8equal_toIyESt4hashIyENS1_18_Mod_range_hashingENS1_20_Default_ranged_hashENS1_20_Prime_rehash_policyENS1_17_Hashtable_traitsILb0ELb1ELb1EEEE9_M_insertIyNS1_10_AllocNodeISaINS1_10_Hash_nodeIyLb0EEEEEEEESt4pairINS1_14_Node_iteratorIyLb1ELb0EEEbEOT_RKT0_St17integral_constantIbLb1EE
FNDA:1,_ZNSt10_HashtableIyySaIyENSt8__detail9_IdentityESt8equal_toIyESt4hashIyENS1_18_Mod_range_hashingENS1_20_Default_ranged_hashENS1_20_Prime_rehash_policyENS1_17_Hashtable_traitsILb0ELb1ELb1EEEED2Ev
FNDA:0,_ZNSt10_HashtableIyySaIyENSt8__detail9_IdentityESt8equal_toIyESt4hashIyENS1_18_Mod_range_hashingENS1_20_Default_ranged_hashENS1_20_Prime_rehash_policyENS1_17_Hashtable_traitsILb0ELb1ELb1EEEE4findERKy
FNDA:0,_ZNKSt10_HashtableIyySaIyENSt8__detail9_IdentityESt8equal_toIyESt4hashIyENS1_18_Mod_range_hashingENS1_20_Default_ranged_hashENS1_20_Prime_rehash_policyENS1_17_Hashtable_traitsILb0ELb1ELb1EEEE19_M_find_before_nodeEmRKym
FNDA:0,_ZNKSt10_HashtableIyySaIyENSt8__detail9_IdentityESt8equal_toIyESt4hashIyENS1_18_Mod_range_hashingENS1_20_Default_ranged_hashENS1_20_Prime_rehash_policyENS1_17_Hashtable_traitsILb0ELb1ELb1EEEE22_M_find_before_node_trIyEEPNS1_15_Hash_node_baseEmRKT_m
FNDA:0,_ZNSt10_HashtableIyySaIyENSt8__detail9_IdentityESt8equal_toIyESt4hashIyENS1_18_Mod_range_hashingENS1_20_Default_ranged_hashENS1_20_Prime_rehash_policyENS1_17_Hashtable_traitsILb0ELb1ELb1EEEE22_M_insert_bucket_beginEmPNS1_10_Hash_nodeIyLb0EEE
FNDA:0,_ZNSt10_HashtableIyySaIyENSt8__detail9_IdentityESt8equal_toIyESt4hashIyENS1_18_Mod_range_hashingENS1_20_Default_ranged_hashENS1_20_Prime_rehash_policyENS1_17_Hashtable_traitsILb0ELb1ELb1EEEE21_M_insert_unique_nodeEmmPNS1_10_Hash_nodeIyLb0EEEm
FNDA:0,_ZNSt10_HashtableIyySaIyENSt8__detail9_IdentityESt8equal_toIyESt4hashIyENS1_18_Mod_range_hashingENS1_20_Default_ranged_hashENS1_20_Prime_rehash_policyENS1_17_Hashtable_traitsILb0ELb1ELb1EEEE16_M_insert_uniqueIyyNS1_10_AllocNodeISaINS1_10_Hash_nodeIyLb0EEEEEEEESt4pairINS1_14_Node_iteratorIyLb1ELb0EEEbEOT_OT0_RKT1_
FNDA:13,_ZNSt10_HashtableIyySaIyENSt8__detail9_IdentityESt8equal_toIyESt4hashIyENS1_18_Mod_range_hashingENS1_20_Default_ranged_hashENS1_20_Prime_rehash_policyENS1_17_Hashtable_traitsILb0ELb1ELb1EEEE5clearEv
FNDA:0,_ZNSt10_HashtableIyySaIyENSt8__detail9_IdentityESt8equal_toIyESt4hashIyENS1_18_Mod_range_hashingENS1_20_Default_ranged_hashENS1_20_Prime_rehash_policyENS1_17_Hashtable_traitsILb0ELb1ELb1EEEE9_M_rehashEmRKm
FNDA:0,_ZNSt10_HashtableIyySaIyENSt8__detail9_IdentityESt8equal_toIyESt4hashIyENS1_18_Mod_range_hashingENS1_20_Default_ranged_hashENS1_20_Prime_rehash_policyENS1_17_Hashtable_traitsILb0ELb1ELb1EEEE13_M_rehash_auxEmSt17integral_constantIbLb1EE
FNDA:0,_ZNSt10_HashtableIyySaIyENSt8__detail9_IdentityESt8equal_toIyESt4hashIyENS1_18_Mod_range_hashingENS1_20_Default_ranged_hashENS1_20_Prime_rehash_policyENS1_17_Hashtable_traitsILb0ELb1ELb1EEEE12_Scoped_nodeC2EPNS1_10_Hash_nodeIyLb0EEEPNS1_16_Hashtable_allocISaISF_EEE
FNDA:0,_ZNSt10_HashtableIyySaIyENSt8__detail9_IdentityESt8equal_toIyESt4hashIyENS1_18_Mod_range_hashingENS1_20_Default_ranged_hashENS1_20_Prime_rehash_policyENS1_17_Hashtable_traitsILb0ELb1ELb1EEEE12_Scoped_nodeD2Ev
FNDA:1,_ZNKSt10_HashtableIyySaIyENSt8__detail9_IdentityESt8equal_toIyESt4hashIyENS1_18_Mod_range_hashingENS1_20_Default_ranged_hashENS1_20_Prime_rehash_policyENS1_17_Hashtable_traitsILb0ELb1ELb1EEEE21_M_uses_single_bucketEPPNS1_15_Hash_node_baseE
FNDA:0,_ZNSt10_HashtableIyySaIyENSt8__detail9_IdentityESt8equal_toIyESt4hashIyENS1_18_Mod_range_hashingENS1_20_Default_ranged_hashENS1_20_Prime_rehash_policyENS1_17_Hashtable_traitsILb0ELb1ELb1EEEE22__small_size_thresholdEv
FNDA:0,_ZNSt10_HashtableIyySaIyENSt8__detail9_IdentityESt8equal_toIyESt4hashIyENS1_18_Mod_range_hashingENS1_20_Default_ranged_hashENS1_20_Prime_rehash_policyENS1_17_Hashtable_traitsILb0ELb1ELb1EEEE19_M_allocate_bucketsEm
FNDA:1,_ZNSt10_HashtableIyySaIyENSt8__detail9_IdentityESt8equal_toIyESt4hashIyENS1_18_Mod_range_hashingENS1_20_Default_ranged_hashENS1_20_Prime_rehash_policyENS1_17_Hashtable_traitsILb0ELb1ELb1EEEE21_M_deallocate_bucketsEPPNS1_15_Hash_node_baseEm
FNDA:1,_ZNSt10_HashtableIyySaIyENSt8__detail9_IdentityESt8equal_toIyESt4hashIyENS1_18_Mod_range_hashingENS1_20_Default_ranged_hashENS1_20_Prime_rehash_policyENS1_17_Hashtable_traitsILb0ELb1ELb1EEEE21_M_deallocate_bucketsEv
FNDA:13,_ZNKSt10_HashtableIyySaIyENSt8__detail9_IdentityESt8equal_toIyESt4hashIyENS1_18_Mod_range_hashingENS1_20_Default_ranged_hashENS1_20_Prime_rehash_policyENS1_17_Hashtable_traitsILb0ELb1ELb1EEEE8_M_beginEv
FNDA:1,_ZNSt10_HashtableIyySaIyENSt8__detail9_IdentityESt8equal_toIyESt4hashIyENS1_18_Mod_range_hashingENS1_20_Default_ranged_hashENS1_20_Prime_rehash_policyENS1_17_Hashtable_traitsILb0ELb1ELb1EEEEC2Ev
FNDA:0,_ZNSt10_HashtableIyySaIyENSt8__detail9_IdentityESt8equal_toIyESt4hashIyENS1_18_Mod_range_hashingENS1_20_Default_ranged_hashENS1_20_Prime_rehash_policyENS1_17_Hashtable_traitsILb0ELb1ELb1EEEE5beginEv
FNDA:0,_ZNSt10_HashtableIyySaIyENSt8__detail9_IdentityESt8equal_toIyESt4hashIyENS1_18_Mod_range_hashingENS1_20_Default_ranged_hashENS1_20_Prime_rehash_policyENS1_17_Hashtable_traitsILb0ELb1ELb1EEEE3endEv
FNDA:0,_ZNKSt10_HashtableIyySaIyENSt8__detail9_IdentityESt8equal_toIyESt4hashIyENS1_18_Mod_range_hashingENS1_20_Default_ranged_hashENS1_20_Prime_rehash_policyENS1_17_Hashtable_traitsILb0ELb1ELb1EEEE4sizeEv
FNDA:0,_ZNKSt10_HashtableIyySaIyENSt8__detail9_IdentityESt8equal_toIyESt4hashIyENS1_18_Mod_range_hashingENS1_20_Default_ranged_hashENS1_20_Prime_rehash_policyENS1_17_Hashtable_traitsILb0ELb1ELb1EEEE15_M_bucket_indexERKNS1_16_Hash_node_valueIyLb0EEE
FNDA:0,_ZNKSt10_HashtableIyySaIyENSt8__detail9_IdentityESt8equal_toIyESt4hashIyENS1_18_Mod_range_hashingENS1_20_Default_ranged_hashENS1_20_Prime_rehash_policyENS1_17_Hashtable_traitsILb0ELb1ELb1EEEE15_M_bucket_indexEm
FNDA:0,_ZNKSt10_HashtableIyySaIyENSt8__detail9_IdentityESt8equal_toIyESt4hashIyENS1_18_Mod_range_hashingENS1_20_Default_ranged_hashENS1_20_Prime_rehash_policyENS1_17_Hashtable_traitsILb0ELb1ELb1EEEE12_M_find_nodeEmRKym
FNDA:0,_ZNKSt10_HashtableIyySaIyENSt8__detail9_IdentityESt8equal_toIyESt4hashIyENS1_18_Mod_range_hashingENS1_20_Default_ranged_hashENS1_20_Prime_rehash_policyENS1_17_Hashtable_traitsILb0ELb1ELb1EEEE15_M_find_node_trIyEEPNS1_10_Hash_nodeIyLb0EEEmRKT_m
FNDA:0,_ZNSt10_HashtableIyySaIyENSt8__detail9_IdentityESt8equal_toIyESt4hashIyENS1_18_Mod_range_hashingENS1_20_Default_ranged_hashENS1_20_Prime_rehash_policyENS1_17_Hashtable_traitsILb0ELb1ELb1EEEE14_S_forward_keyEOy
FNDA:0,_ZNSt10_HashtableIyySaIyENSt8__detail9_IdentityESt8equal_toIyESt4hashIyENS1_18_Mod_range_hashingENS1_20_Default_ranged_hashENS1_20_Prime_rehash_policyENS1_17_Hashtable_traitsILb0ELb1ELb1EEEE20_M_insert_unique_auxIyNS1_10_AllocNodeISaINS1_10_Hash_nodeIyLb0EEEEEEEESt4pairINS1_14_Node_iteratorIyLb1ELb0EEEbEOT_RKT0_
FNDA:0,_ZNSt10_HashtableIyySaIyENSt8__detail9_IdentityESt8equal_toIyESt4hashIyENS1_18_Mod_range_hashingENS1_20_Default_ranged_hashENS1_20_Prime_rehash_policyENS1_17_Hashtable_traitsILb0ELb1ELb1EEEE9_M_insertIyNS1_10_AllocNodeISaINS1_10_Hash_nodeIyLb0EEEEEEEESt4pairINS1_14_Node_iteratorIyLb1ELb0EEEbEOT_RKT0_St17integral_constantIbLb1EE
FNF:29
FNH:7
DA:300,0
DA:301,0
DA:311,0
DA:416,1
DA:417,1
DA:424,0
DA:427,0
DA:434,0
DA:436,0
DA:438,0
DA:439,0
DA:442,0
DA:446,1
DA:448,1
DA:449,1
DA:451,0
DA:455,1
DA:456,1
DA:464,13
DA:465,13
DA:530,1
DA:623,0
DA:624,0
DA:631,0
DA:632,0
DA:647,0
DA:648,0
DA:792,0
DA:793,0
DA:796,0
DA:797,0
DA:812,0
DA:815,0
DA:816,0
DA:817,0
DA:818,0
DA:823,0
DA:826,0
DA:827,0
DA:828,0
DA:829,0
DA:897,0
DA:898,0
DA:902,0
DA:904,0
DA:905,0
DA:906,0
DA:911,0
DA:916,0
DA:917,0
DA:1595,1
DA:1608,1
DA:1609,1
DA:1610,1
DA:1664,0
DA:1669,0
DA:1671,0
DA:1672,0
DA:1673,0
DA:1674,0
DA:1677,0
DA:1678,0
DA:1679,0
DA:1948,0
DA:1954,0
DA:1955,0
DA:1956,0
DA:1958,0
DA:1959,0
DA:1961,0
DA:1962,0
DA:1964,0
DA:1965,0
DA:1966,0
DA:1969,0
DA:1978,0
DA:1984,0
DA:1985,0
DA:1986,0
DA:1988,0
DA:1989,0
DA:1991,0
DA:1992,0
DA:1994,0
DA:1995,0
DA:1996,0
DA:1999,0
DA:2007,0
DA:2011,0
DA:2015,0
DA:2016,0
DA:2023,0
DA:2024,0
DA:2026,0
DA:2029,0
DA:2031,0
DA:2033,0
DA:2166,0
DA:2172,0
DA:2174,0
DA:2177,0
DA:2179,0
DA:2180,0
DA:2183,0
DA:2186,0
DA:2187,0
DA:2188,0
DA:2253,0
DA:2259,0
DA:2260,0
DA:2261,0
DA:2262,0
DA:2264,0
DA:2265,0
DA:2267,0
DA:2268,0
DA:2269,0
DA:2271,0
DA:2278,0
DA:2279,0
DA:2280,0
DA:2281,0
DA:2520,13
DA:2524,13
DA:2525,13
DA:2526,13
DA:2527,13
DA:2528,13
DA:2529,13
DA:2559,0
DA:2565,0
DA:2567,0
DA:2571,0
DA:2572,0
DA:2574,0
DA:2582,0
DA:2586,0
DA:2587,0
DA:2588,0
DA:2589,0
DA:2590,0
DA:2592,0
DA:2594,0
DA:2595,0
DA:2597,0
DA:2598,0
DA:2599,0
DA:2600,0
DA:2601,0
DA:2602,0
DA:2606,0
DA:2607,0
DA:2610,0
DA:2613,0
DA:2614,0
DA:2615,0
DA:2616,0
LF:157
LH:21
end_of_record
TN:
SF:/usr/include/c++/13/bits/hashtable_policy.h
FN:1071,1076,_ZNSt8__detail7_InsertIyySaIyENS_9_IdentityESt8equal_toIyESt4hashIyENS_18_Mod_range_hashingENS_20_Default_ranged_hashENS_20_Prime_rehash_policyENS_17_Hashtable_traitsILb0ELb1ELb1EEELb1EE6insertEOy
FN:1218,1218,_ZNSt8__detail21_Hashtable_ebo_helperILi0ESaINS_10_Hash_nodeIyLb0EEEELb1EEC2Ev
FN:1218,1218,_ZNSt8__detail21_Hashtable_ebo_helperILi0ESt8equal_toIyELb1EEC2Ev
FN:1218,1218,_ZNSt8__detail21_Hashtable_ebo_helperILi1ESt4hashIyELb1EEC2Ev
FN:1225,1225,_ZNKSt8__detail21_Hashtable_ebo_helperILi0ESt8equal_toIyELb1EE7_M_cgetEv
FN:1225,1225,_ZNKSt8__detail21_Hashtable_ebo_helperILi1ESt4hashIyELb1EE7_M_cgetEv
FN:1226,1226,_ZNSt8__detail21_Hashtable_ebo_helperILi0ESaINS_10_Hash_nodeIyLb0EEEELb1EE6_M_getEv
FN:124,125,_ZNKSt8__detail19_ConvertToValueTypeINS_9_IdentityEyEclIyEEOT_S5_
FN:1301,1301,_ZNSt8__detail15_Hash_code_baseIyyNS_9_IdentityESt4hashIyENS_18_Mod_range_hashingENS_20_Default_ranged_hashELb0EEC2Ev
FN:1306,1311,_ZNKSt8__detail15_Hash_code_baseIyyNS_9_IdentityESt4hashIyENS_18_Mod_range_hashingENS_20_Default_ranged_hashELb0EE12_M_hash_codeERKy
FN:1315,1320,_ZNKSt8__detail15_Hash_code_baseIyyNS_9_IdentityESt4hashIyENS_18_Mod_range_hashingENS_20_Default_ranged_hashELb0EE15_M_hash_code_trIyEEmRKT_
FN:1331,1332,_ZNKSt8__detail15_Hash_code_baseIyyNS_9_IdentityESt4hashIyENS_18_Mod_range_hashingENS_20_Default_ranged_hashELb0EE15_M_bucket_indexEmm
FN:1335,1343,_ZNKSt8__detail15_Hash_code_baseIyyNS_9_IdentityESt4hashIyENS_18_Mod_range_hashingENS_20_Default_ranged_hashELb0EE15_M_bucket_indexERKNS_16_Hash_node_valueIyLb0EEEm
FN:1353,1354,_ZNKSt8__detail15_Hash_code_baseIyyNS_9_IdentityESt4hashIyENS_18_Mod_range_hashingENS_20_Default_ranged_hashELb0EE13_M_store_codeERNS_21_Hash_node_code_cacheILb0EEEm
FN:1375,1375,_ZNKSt8__detail15_Hash_code_baseIyyNS_9_IdentityESt4hashIyENS_18_Mod_range_hashingENS_20_Default_ranged_hashELb0EE7_M_hashEv
FN:1683,1684,_ZNSt8__detail15_Hashtable_baseIyyNS_9_IdentityESt8equal_toIyESt4hashIyENS_18_Mod_range_hashingENS_20_Default_ranged_hashENS_17_Hashtable_traitsILb0ELb1ELb1EEEE9_S_equalsEmRKNS_21_Hash_node_code_cacheILb0EEE
FN:1701,1701,_ZNSt8__detail15_Hashtable_baseIyyNS_9_IdentityESt8equal_toIyESt4hashIyENS_18_Mod_range_hashingENS_20_Default_ranged_hashENS_17_Hashtable_traitsILb0ELb1ELb1EEEEC2Ev
FN:1708,1716,_ZNKSt8__detail15_Hashtable_baseIyyNS_9_IdentityESt8equal_toIyESt4hashIyENS_18_Mod_range_hashingENS_20_Default_ranged_hashENS_17_Hashtable_traitsILb0ELb1ELb1EEEE13_M_key_equalsERKyRKNS_16_Hash_node_valueIyLb0EEE
FN:171,173,_ZNSt8__detail12_NodeBuilderINS_9_IdentityEE8_S_buildIyyNS_10_AllocNodeISaINS_10_Hash_nodeIyLb0EEEEEEEEPNT1_11__node_typeEOT_OT0_RKS9_
FN:1720,1729,_ZNKSt8__detail15_Hashtable_baseIyyNS_9_IdentityESt8equal_toIyESt4hashIyENS_18_Mod_range_hashingENS_20_Default_ranged_hashENS_17_Hashtable_traitsILb0ELb1ELb1EEEE16_M_key_equals_trIyEEbRKT_RKNS_16_Hash_node_valueIyLb0EEE
FN:1732,1734,_ZNKSt8__detail15_Hashtable_baseIyyNS_9_IdentityESt8equal_toIyESt4hashIyENS_18_Mod_range_hashingENS_20_Default_ranged_hashENS_17_Hashtable_traitsILb0ELb1ELb1EEEE9_M_equalsERKymRKNS_16_Hash_node_valueIyLb0EEE
FN:1738,1741,_ZNKSt8__detail15_Hashtable_baseIyyNS_9_IdentityESt8equal_toIyESt4hashIyENS_18_Mod_range_hashingENS_20_Default_ranged_hashENS_17_Hashtable_traitsILb0ELb1ELb1EEEE12_M_equals_trIyEEbRKT_mRKNS_16_Hash_node_valueIyLb0EEE
FN:1760,1760,_ZNKSt8__detail15_Hashtable_baseIyyNS_9_IdentityESt8equal_toIyESt4hashIyENS_18_Mod_range_hashingENS_20_Default_ranged_hashENS_17_Hashtable_traitsILb0ELb1ELb1EEEE5_M_eqEv
FN:1940,1940,_ZNSt8__detail16_Hashtable_allocISaINS_10_Hash_nodeIyLb0EEEEEC2Ev
FN:1950,1951,_ZNSt8__detail16_Hashtable_allocISaINS_10_Hash_nodeIyLb0EEEEE17_M_node_allocatorEv
FN:1987,2005,_ZNSt8__detail16_Hashtable_allocISaINS_10_Hash_nodeIyLb0EEEEE16_M_allocate_nodeIJyEEEPS2_DpOT_
FN:2009,2013,_ZNSt8__detail16_Hashtable_allocISaINS_10_Hash_nodeIyLb0EEEEE18_M_deallocate_nodeEPS2_
FN:2017,2023,_ZNSt8__detail16_Hashtable_allocISaINS_10_Hash_nodeIyLb0EEEEE22_M_deallocate_node_ptrEPS2_
FN:2027,2035,_ZNSt8__detail16_Hashtable_allocISaINS_10_Hash_nodeIyLb0EEEEE19_M_deallocate_nodesEPS2_
FN:2039,2048,_ZNSt8__detail16_Hashtable_allocISaINS_10_Hash_nodeIyLb0EEEEE19_M_allocate_bucketsEm
FN:2052,2060,_ZNSt8__detail16_Hashtable_allocISaINS_10_Hash_nodeIyLb0EEEEE21_M_deallocate_bucketsEPPNS_15_Hash_node_baseEm
FN:242,243,_ZNSt8__detail10_AllocNodeISaINS_10_Hash_nodeIyLb0EEEEEC2ERNS_16_Hashtable_allocIS3_EE
FN:247,248,_ZNKSt8__detail10_AllocNodeISaINS_10_Hash_nodeIyLb0EEEEEclIJyEEEPS2_DpOT_
FN:297,298,_ZNSt8__detail22_Hashtable_hash_traitsISt4hashIyEE22__small_size_thresholdEv
FN:313,313,_ZNSt8__detail15_Hash_node_baseC2Ev
FN:380,381,_ZNKSt8__detail10_Hash_nodeIyLb0EE7_M_nextEv
FN:393,394,_ZNSt8__detail19_Node_iterator_baseIyLb0EEC2EPNS_10_Hash_nodeIyLb0EEE
FN:397,398,_ZNSt8__detail19_Node_iterator_baseIyLb0EE7_M_incrEv
FN:401,403,_ZNSt8__detaileqERKNS_19_Node_iterator_baseIyLb0EEES3_
FN:407,409,_ZNSt8__detailneERKNS_19_Node_iterator_baseIyLb0EEES3_
FN:436,437,_ZNSt8__detail14_Node_iteratorIyLb1ELb0EEC2EPNS_10_Hash_nodeIyLb0EEE
FN:448,452,_ZNSt8__detail14_Node_iteratorIyLb1ELb0EEppEv
FN:526,528,_ZNKSt8__detail18_Mod_range_hashingclEmm
FN:544,545,_ZNSt8__detail20_Prime_rehash_policyC2Ef
FN:571,572,_ZNKSt8__detail20_Prime_rehash_policy8_M_stateEv
FN:579,580,_ZNSt8__detail20_Prime_rehash_policy8_M_resetEm
FN:89,90,_ZNKSt8__detail9_IdentityclIRKyEEOT_S5_
FN:89,90,_ZNKSt8__detail9_IdentityclIyEEOT_S3_
FN:903,904,_ZNSt8__detail12_Insert_baseIyySaIyENS_9_IdentityESt8equal_toIyESt4hashIyENS_18_Mod_range_hashingENS_20_Default_ranged_hashENS_20_Prime_rehash_policyENS_17_Hashtable_traitsILb0ELb1ELb1EEEE20_M_conjure_hashtableEv
FNDA:0,_ZNSt8__detail7_InsertIyySaIyENS_9_IdentityESt8equal_toIyESt4hashIyENS_18_Mod_range_hashingENS_20_Default_ranged_hashENS_20_Prime_rehash_policyENS_17_Hashtable_traitsILb0ELb1ELb1EEELb1EE6insertEOy
FNDA:1,_ZNSt8__detail21_Hashtable_ebo_helperILi0ESaINS_10_Hash_nodeIyLb0EEEELb1EEC2Ev
FNDA:1,_ZNSt8__detail21_Hashtable_ebo_helperILi0ESt8equal_toIyELb1EEC2Ev
FNDA:1,_ZNSt8__detail21_Hashtable_ebo_helperILi1ESt4hashIyELb1EEC2Ev
FNDA:0,_ZNKSt8__detail21_Hashtable_ebo_helperILi0ESt8equal_toIyELb1EE7_M_cgetEv
FNDA:0,_ZNKSt8__detail21_Hashtable_ebo_helperILi1ESt4hashIyELb1EE7_M_cgetEv
FNDA:0,_ZNSt8__detail21_Hashtable_ebo_helperILi0ESaINS_10_Hash_nodeIyLb0EEEELb1EE6_M_getEv
FNDA:0,_ZNKSt8__detail19_ConvertToValueTypeINS_9_IdentityEyEclIyEEOT_S5_
FNDA:1,_ZNSt8__detail15_Hash_code_baseIyyNS_9_IdentityESt4hashIyENS_18_Mod_range_hashingENS_20_Default_ranged_hashELb0EEC2Ev
FNDA:0,_ZNKSt8__detail15_Hash_code_baseIyyNS_9_IdentityESt4hashIyENS_18_Mod_range_hashingENS_20_Default_ranged_hashELb0EE12_M_hash_codeERKy
FNDA:0,_ZNKSt8__detail15_Hash_code_baseIyyNS_9_IdentityESt4hashIyENS_18_Mod_range_hashingENS_20_Default_ranged_hashELb0EE15_M_hash_code_trIyEEmRKT_
FNDA:0,_ZNKSt8__detail15_Hash_code_baseIyyNS_9_IdentityESt4hashIyENS_18_Mod_range_hashingENS_20_Default_ranged_hashELb0EE15_M_bucket_indexEmm
FNDA:0,_ZNKSt8__detail15_Hash_code_baseIyyNS_9_IdentityESt4hashIyENS_18_Mod_range_hashingENS_20_Default_ranged_hashELb0EE15_M_bucket_indexERKNS_16_Hash_node_valueIyLb0EEEm
FNDA:0,_ZNKSt8__detail15_Hash_code_baseIyyNS_9_IdentityESt4hashIyENS_18_Mod_range_hashingENS_20_Default_ranged_hashELb0EE13_M_store_codeERNS_21_Hash_node_code_cacheILb0EEEm
FNDA:0,_ZNKSt8__detail15_Hash_code_baseIyyNS_9_IdentityESt4hashIyENS_18_Mod_range_hashingENS_20_Default_ranged_hashELb0EE7_M_hashEv
FNDA:0,_ZNSt8__detail15_Hashtable_baseIyyNS_9_IdentityESt8equal_toIyESt4hashIyENS_18_Mod_range_hashingENS_20_Default_ranged_hashENS_17_Hashtable_traitsILb0ELb1ELb1EEEE9_S_equalsEmRKNS_21_Hash_node_code_cacheILb0EEE
FNDA:1,_ZNSt8__detail15_Hashtable_baseIyyNS_9_IdentityESt8equal_toIyESt4hashIyENS_18_Mod_range_hashingENS_20_Default_ranged_hashENS_17_Hashtable_traitsILb0ELb1ELb1EEEEC2Ev
FNDA:0,_ZNKSt8__detail15_Hashtable_baseIyyNS_9_IdentityESt8equal_toIyESt4hashIyENS_18_Mod_range_hashingENS_20_Default_ranged_hashENS_17_Hashtable_traitsILb0ELb1ELb1EEEE13_M_key_equalsERKyRKNS_16_Hash_node_valueIyLb0EEE
FNDA:0,_ZNSt8__detail12_NodeBuilderINS_9_IdentityEE8_S_buildIyyNS_10_AllocNodeISaINS_10_Hash_nodeIyLb0EEEEEEEEPNT1_11__node_typeEOT_OT0_RKS9_
FNDA:0,_ZNKSt8__detail15_Hashtable_baseIyyNS_9_IdentityESt8equal_toIyESt4hashIyENS_18_Mod_range_hashingENS_20_Default_ranged_hashENS_17_Hashtable_traitsILb0ELb1ELb1EEEE16_M_key_equals_trIyEEbRKT_RKNS_16_Hash_node_valueIyLb0EEE
FNDA:0,_ZNKSt8__detail15_Hashtable_baseIyyNS_9_IdentityESt8equal_toIyESt4hashIyENS_18_Mod_range_hashingENS_20_Default_ranged_hashENS_17_Hashtable_traitsILb0ELb1ELb1EEEE9_M_equalsERKymRKNS_16_Hash_node_valueIyLb0EEE
FNDA:0,_ZNKSt8__detail15_Hashtable_baseIyyNS_9_IdentityESt8equal_toIyESt4hashIyENS_18_Mod_range_hashingENS_20_Default_ranged_hashENS_17_Hashtable_traitsILb0ELb1ELb1EEEE12_M_equals_trIyEEbRKT_mRKNS_16_Hash_node_valueIyLb0EEE
FNDA:0,_ZNKSt8__detail15_Hashtable_baseIyyNS_9_IdentityESt8equal_toIyESt4hashIyENS_18_Mod_range_hashingENS_20_Default_ranged_hashENS_17_Hashtable_traitsILb0ELb1ELb1EEEE5_M_eqEv
FNDA:1,_ZNSt8__detail16_Hashtable_allocISaINS_10_Hash_nodeIyLb0EEEEEC2Ev
FNDA:0,_ZNSt8__detail16_Hashtable_allocISaINS_10_Hash_nodeIyLb0EEEEE17_M_node_allocatorEv
FNDA:0,_ZNSt8__detail16_Hashtable_allocISaINS_10_Hash_nodeIyLb0EEEEE16_M_allocate_nodeIJyEEEPS2_DpOT_
FNDA:0,_ZNSt8__detail16_Hashtable_allocISaINS_10_Hash_nodeIyLb0EEEEE18_M_deallocate_nodeEPS2_
FNDA:0,_ZNSt8__detail16_Hashtable_allocISaINS_10_Hash_nodeIyLb0EEEEE22_M_deallocate_node_ptrEPS2_
FNDA:13,_ZNSt8__detail16_Hashtable_allocISaINS_10_Hash_nodeIyLb0EEEEE19_M_deallocate_nodesEPS2_
FNDA:0,_ZNSt8__detail16_Hashtable_allocISaINS_10_Hash_nodeIyLb0EEEEE19_M_allocate_bucketsEm
FNDA:0,_ZNSt8__detail16_Hashtable_allocISaINS_10_Hash_nodeIyLb0EEEEE21_M_deallocate_bucketsEPPNS_15_Hash_node_baseEm
FNDA:0,_ZNSt8__detail10_AllocNodeISaINS_10_Hash_nodeIyLb0EEEEEC2ERNS_16_Hashtable_allocIS3_EE
FNDA:0,_ZNKSt8__detail10_AllocNodeISaINS_10_Hash_nodeIyLb0EEEEEclIJyEEEPS2_DpOT_
FNDA:0,_ZNSt8__detail22_Hashtable_hash_traitsISt4hashIyEE22__small_size_thresholdEv
FNDA:1,_ZNSt8__detail15_Hash_node_baseC2Ev
FNDA:0,_ZNKSt8__detail10_Hash_nodeIyLb0EE7_M_nextEv
FNDA:0,_ZNSt8__detail19_Node_iterator_baseIyLb0EEC2EPNS_10_Hash_nodeIyLb0EEE
FNDA:0,_ZNSt8__detail19_Node_iterator_baseIyLb0EE7_M_incrEv
FNDA:0,_ZNSt8__detaileqERKNS_19_Node_iterator_baseIyLb0EEES3_
FNDA:0,_ZNSt8__detailneERKNS_19_Node_iterator_baseIyLb0EEES3_
FNDA:0,_ZNSt8__detail14_Node_iteratorIyLb1ELb0EEC2EPNS_10_Hash_nodeIyLb0EEE
FNDA:0,_ZNSt8__detail14_Node_iteratorIyLb1ELb0EEppEv
FNDA:0,_ZNKSt8__detail18_Mod_range_hashingclEmm
FNDA:1,_ZNSt8__detail20_Prime_rehash_policyC2Ef
FNDA:0,_ZNKSt8__detail20_Prime_rehash_policy8_M_stateEv
FNDA:0,_ZNSt8__detail20_Prime_rehash_policy8_M_resetEm
FNDA:0,_ZNKSt8__detail9_IdentityclIRKyEEOT_S5_
FNDA:0,_ZNKSt8__detail9_IdentityclIyEEOT_S3_
FNDA:0,_ZNSt8__detail12_Insert_baseIyySaIyENS_9_IdentityESt8equal_toIyESt4hashIyENS_18_Mod_range_hashingENS_20_Default_ranged_hashENS_20_Prime_rehash_policyENS_17_Hashtable_traitsILb0ELb1ELb1EEEE20_M_conjure_hashtableEv
FNF:49
FNH:9
DA:89,0
DA:90,0
DA:124,0
DA:125,0
DA:171,0
DA:173,0
DA:242,0
DA:243,0
DA:247,0
DA:248,0
DA:297,0
DA:298,0
DA:313,1
DA:333,0
DA:338,0
DA:348,0
DA:380,0
DA:381,0
DA:393,0
DA:394,0
DA:397,0
DA:398,0
DA:401,0
DA:403,0
DA:407,0
DA:409,0
DA:436,0
DA:437,0
DA:448,0
DA:450,0
DA:451,0
DA:526,0
DA:528,0
DA:544,1
DA:545,1
DA:571,0
DA:572,0
DA:579,0
DA:580,0
DA:903,0
DA:904,0
DA:1071,0
DA:1073,0
DA:1074,0
DA:1075,0
DA:1218,3
DA:1225,0
DA:1226,0
DA:1301,1
DA:1306,0
DA:1310,0
DA:1315,0
DA:1319,0
DA:1331,0
DA:1332,0
DA:1335,0
DA:1341,0
DA:1342,0
DA:1353,0
DA:1354,0
DA:1375,0
DA:1683,0
DA:1684,0
DA:1701,1
DA:1708,0
DA:1715,0
DA:1720,0
DA:1728,0
DA:1732,0
DA:1734,0
DA:1738,0
DA:1741,0
DA:1760,0
DA:1940,1
DA:1950,0
DA:1951,0
DA:1987,0
DA:1990,0
DA:1991,0
DA:1994,0
DA:1995,0
DA:1998,0
DA:2000,0
DA:2002,0
DA:2003,0
DA:2009,0
DA:2011,0
DA:2012,0
DA:2013,0
DA:2017,0
DA:2020,0
DA:2021,0
DA:2022,0
DA:2023,0
DA:2027,13
DA:2029,13
DA:2031,0
DA:2032,0
DA:2033,0
DA:2035,13
DA:2039,0
DA:2042,0
DA:2044,0
DA:2045,0
DA:2046,0
DA:2047,0
DA:2052,0
DA:2057,0
DA:2058,0
DA:2060,0
LF:110
LH:10
end_of_record
TN:
SF:/usr/include/c++/13/bits/invoke.h
FN:104,117,_ZSt10__invoke_rIbRZN6merkle5TreeTILm32EXadL_ZNS0_L14sha256_opensslERKNS0_5HashTILm32EEES5_RS3_EEE4pathEmEUlPNS7_4NodeEbE_JRS9_bEENSt9enable_ifIX16is_invocable_r_vIT_T0_DpT1_EESE_E4typeEOSF_DpOSG_
FN:104,117,_ZSt10__invoke_rIbRZN6merkle5TreeTILm32EXadL_ZNS0_L15sha256_compressERKNS0_5HashTILm32EEES5_RS3_EEE10retract_toEmEUlRPNS7_4NodeEbE_JSA_bEENSt9enable_ifIX16is_invocable_r_vIT_T0_DpT1_EESE_E4typeEOSF_DpOSG_
FN:104,117,_ZSt10__invoke_rIbRZN6merkle5TreeTILm32EXadL_ZNS0_L15sha256_compressERKNS0_5HashTILm32EEES5_RS3_EEE15serialised_sizeEmmEUlRPNS7_4NodeEbE_JSA_bEENSt9enable_ifIX16is_invocable_r_vIT_T0_DpT1_EESE_E4typeEOSF_DpOSG_
FN:104,117,_ZSt10__invoke_rIbRZN6merkle5TreeTILm32EXadL_ZNS0_L15sha256_compressERKNS0_5HashTILm32EEES5_RS3_EEE15serialised_sizeEvEUlRPNS7_4NodeEbE_JSA_bEENSt9enable_ifIX16is_invocable_r_vIT_T0_DpT1_EESE_E4typeEOSF_DpOSG_
FN:104,117,_ZSt10__invoke_rIbRZN6merkle5TreeTILm32EXadL_ZNS0_L15sha256_compressERKNS0_5HashTILm32EEES5_RS3_EEE4pathEmEUlPNS7_4NodeEbE_JRS9_bEENSt9enable_ifIX16is_invocable_r_vIT_T0_DpT1_EESE_E4typeEOSF_DpOSG_
FN:104,117,_ZSt10__invoke_rIbRZN6merkle5TreeTILm32EXadL_ZNS0_L15sha256_compressERKNS0_5HashTILm32EEES5_RS3_EEE8flush_toEmEUlRPNS7_4NodeEbE_JSA_bEENSt9enable_ifIX16is_invocable_r_vIT_T0_DpT1_EESE_E4typeEOSF_DpOSG_
FN:104,117,_ZSt10__invoke_rIbRZN6merkle5TreeTILm32EXadL_ZNS0_L15sha256_compressERKNS0_5HashTILm32EEES5_RS3_EEE9serialiseERSt6vectorIhSaIhEEEUlRPNS7_4NodeEbE_JSE_bEENSt9enable_ifIX16is_invocable_r_vIT_T0_DpT1_EESI_E4typeEOSJ_DpOSK_
FN:104,117,_ZSt10__invoke_rIbRZN6merkle5TreeTILm32EXadL_ZNS0_L15sha256_compressERKNS0_5HashTILm32EEES5_RS3_EEE9serialiseEmmRSt6vectorIhSaIhEEEUlRPNS7_4NodeEbE_JSE_bEENSt9enable_ifIX16is_invocable_r_vIT_T0_DpT1_EESI_E4typeEOSJ_DpOSK_
FN:104,117,_ZSt10__invoke_rIbRZN6merkle5TreeTILm48EXadL_ZNS0_L14sha384_opensslERKNS0_5HashTILm48EEES5_RS3_EEE10retract_toEmEUlRPNS7_4NodeEbE_JSA_bEENSt9enable_ifIX16is_invocable_r_vIT_T0_DpT1_EESE_E4typeEOSF_DpOSG_
FN:104,117,_ZSt10__invoke_rIbRZN6merkle5TreeTILm48EXadL_ZNS0_L14sha384_opensslERKNS0_5HashTILm48EEES5_RS3_EEE4pathEmEUlPNS7_4NodeEbE_JRS9_bEENSt9enable_ifIX16is_invocable_r_vIT_T0_DpT1_EESE_E4typeEOSF_DpOSG_
FN:104,117,_ZSt10__invoke_rIbRZN6merkle5TreeTILm48EXadL_ZNS0_L14sha384_opensslERKNS0_5HashTILm48EEES5_RS3_EEE8flush_toEmEUlRPNS7_4NodeEbE_JSA_bEENSt9enable_ifIX16is_invocable_r_vIT_T0_DpT1_EESE_E4typeEOSF_DpOSG_
FN:104,117,_ZSt10__invoke_rIbRZN6merkle5TreeTILm48EXadL_ZNS0_L14sha384_opensslERKNS0_5HashTILm48EEES5_RS3_EEE9serialiseERSt6vectorIhSaIhEEEUlRPNS7_4NodeEbE_JSE_bEENSt9enable_ifIX16is_invocable_r_vIT_T0_DpT1_EESI_E4typeEOSJ_DpOSK_
FN:104,117,_ZSt10__invoke_rIbRZN6merkle5TreeTILm64EXadL_ZNS0_L14sha512_opensslERKNS0_5HashTILm64EEES5_RS3_EEE10retract_toEmEUlRPNS7_4NodeEbE_JSA_bEENSt9enable_ifIX16is_invocable_r_vIT_T0_DpT1_EESE_E4typeEOSF_DpOSG_
FN:104,117,_ZSt10__invoke_rIbRZN6merkle5TreeTILm64EXadL_ZNS0_L14sha512_opensslERKNS0_5HashTILm64EEES5_RS3_EEE4pathEmEUlPNS7_4NodeEbE_JRS9_bEENSt9enable_ifIX16is_invocable_r_vIT_T0_DpT1_EESE_E4typeEOSF_DpOSG_
FN:104,117,_ZSt10__invoke_rIbRZN6merkle5TreeTILm64EXadL_ZNS0_L14sha512_opensslERKNS0_5HashTILm64EEES5_RS3_EEE8flush_toEmEUlRPNS7_4NodeEbE_JSA_bEENSt9enable_ifIX16is_invocable_r_vIT_T0_DpT1_EESE_E4typeEOSF_DpOSG_
FN:104,117,_ZSt10__invoke_rIbRZN6merkle5TreeTILm64EXadL_ZNS0_L14sha512_opensslERKNS0_5HashTILm64EEES5_RS3_EEE9serialiseERSt6vectorIhSaIhEEEUlRPNS7_4NodeEbE_JSE_bEENSt9enable_ifIX16is_invocable_r_vIT_T0_DpT1_EESI_E4typeEOSJ_DpOSK_
FN:60,61,_ZSt13__invoke_implIbRZN6merkle5TreeTILm32EXadL_ZNS0_L14sha256_opensslERKNS0_5HashTILm32EEES5_RS3_EEE4pathEmEUlPNS7_4NodeEbE_JRS9_bEET_St14__invoke_otherOT0_DpOT1_
FN:60,61,_ZSt13__invoke_implIbRZN6merkle5TreeTILm32EXadL_ZNS0_L15sha256_compressERKNS0_5HashTILm32EEES5_RS3_EEE10retract_toEmEUlRPNS7_4NodeEbE_JSA_bEET_St14__invoke_otherOT0_DpOT1_
FN:60,61,_ZSt13__invoke_implIbRZN6merkle5TreeTILm32EXadL_ZNS0_L15sha256_compressERKNS0_5HashTILm32EEES5_RS3_EEE15serialised_sizeEmmEUlRPNS7_4NodeEbE_JSA_bEET_St14__invoke_otherOT0_DpOT1_
FN:60,61,_ZSt13__invoke_implIbRZN6merkle5TreeTILm32EXadL_ZNS0_L15sha256_compressERKNS0_5HashTILm32EEES5_RS3_EEE15serialised_sizeEvEUlRPNS7_4NodeEbE_JSA_bEET_St14__invoke_otherOT0_DpOT1_
FN:60,61,_ZSt13__invoke_implIbRZN6merkle5TreeTILm32EXadL_ZNS0_L15sha256_compressERKNS0_5HashTILm32EEES5_RS3_EEE4pathEmEUlPNS7_4NodeEbE_JRS9_bEET_St14__invoke_otherOT0_DpOT1_
FN:60,61,_ZSt13__invoke_implIbRZN6merkle5TreeTILm32EXadL_ZNS0_L15sha256_compressERKNS0_5HashTILm32EEES5_RS3_EEE8flush_toEmEUlRPNS7_4NodeEbE_JSA_bEET_St14__invoke_otherOT0_DpOT1_
FN:60,61,_ZSt13__invoke_implIbRZN6merkle5TreeTILm32EXadL_ZNS0_L15sha256_compressERKNS0_5HashTILm32EEES5_RS3_EEE9serialiseERSt6vectorIhSaIhEEEUlRPNS7_4NodeEbE_JSE_bEET_St14__invoke_otherOT0_DpOT1_
FN:60,61,_ZSt13__invoke_implIbRZN6merkle5TreeTILm32EXadL_ZNS0_L15sha256_compressERKNS0_5HashTILm32EEES5_RS3_EEE9serialiseEmmRSt6vectorIhSaIhEEEUlRPNS7_4NodeEbE_JSE_bEET_St14__invoke_otherOT0_DpOT1_
FN:60,61,_ZSt13__invoke_implIbRZN6merkle5TreeTILm48EXadL_ZNS0_L14sha384_opensslERKNS0_5HashTILm48EEES5_RS3_EEE10retract_toEmEUlRPNS7_4NodeEbE_JSA_bEET_St14__invoke_otherOT0_DpOT1_
FN:60,61,_ZSt13__invoke_implIbRZN6merkle5TreeTILm48EXadL_ZNS0_L14sha384_opensslERKNS0_5HashTILm48EEES5_RS3_EEE4pathEmEUlPNS7_4NodeEbE_JRS9_bEET_St14__invoke_otherOT0_DpOT1_
FN:60,61,_ZSt13__invoke_implIbRZN6merkle5TreeTILm48EXadL_ZNS0_L14sha384_opensslERKNS0_5HashTILm48EEES5_RS3_EEE8flush_toEmEUlRPNS7_4NodeEbE_JSA_bEET_St14__invoke_otherOT0_DpOT1_
FN:60,61,_ZSt13__invoke_implIbRZN6merkle5TreeTILm48EXadL_ZNS0_L14sha384_opensslERKNS0_5HashTILm48EEES5_RS3_EEE9serialiseERSt6vectorIhSaIhEEEUlRPNS7_4NodeEbE_JSE_bEET_St14__invoke_otherOT0_DpOT1_
FN:60,61,_ZSt13__invoke_implIbRZN6merkle5TreeTILm64EXadL_ZNS0_L14sha512_opensslERKNS0_5HashTILm64EEES5_RS3_EEE10retract_toEmEUlRPNS7_4NodeEbE_JSA_bEET_St14__invoke_otherOT0_DpOT1_
FN:60,61,_ZSt13__invoke_implIbRZN6merkle5TreeTILm64EXadL_ZNS0_L14sha512_opensslERKNS0_5HashTILm64EEES5_RS3_EEE4pathEmEUlPNS7_4NodeEbE_JRS9_bEET_St14__invoke_otherOT0_DpOT1_
FN:60,61,_ZSt13__invoke_implIbRZN6merkle5TreeTILm64EXadL_ZNS0_L14sha512_opensslERKNS0_5HashTILm64EEES5_RS3_EEE8flush_toEmEUlRPNS7_4NodeEbE_JSA_bEET_St14__invoke_otherOT0_DpOT1_
FN:60,61,_ZSt13__invoke_implIbRZN6merkle5TreeTILm64EXadL_ZNS0_L14sha512_opensslERKNS0_5HashTILm64EEES5_RS3_EEE9serialiseERSt6vectorIhSaIhEEEUlRPNS7_4NodeEbE_JSE_bEET_St14__invoke_otherOT0_DpOT1_
FNDA:4,_ZSt10__invoke_rIbRZN6merkle5TreeTILm32EXadL_ZNS0_L14sha256_opensslERKNS0_5HashTILm32EEES5_RS3_EEE4pathEmEUlPNS7_4NodeEbE_JRS9_bEENSt9enable_ifIX16is_invocable_r_vIT_T0_DpT1_EESE_E4typeEOSF_DpOSG_
FNDA:384165,_ZSt10__invoke_rIbRZN6merkle5TreeTILm32EXadL_ZNS0_L15sha256_compressERKNS0_5HashTILm32EEES5_RS3_EEE10retract_toEmEUlRPNS7_4NodeEbE_JSA_bEENSt9enable_ifIX16is_invocable_r_vIT_T0_DpT1_EESE_E4typeEOSF_DpOSG_
FNDA:16864,_ZSt10__invoke_rIbRZN6merkle5TreeTILm32EXadL_ZNS0_L15sha256_compressERKNS0_5HashTILm32EEES5_RS3_EEE15serialised_sizeEmmEUlRPNS7_4NodeEbE_JSA_bEENSt9enable_ifIX16is_invocable_r_vIT_T0_DpT1_EESE_E4typeEOSF_DpOSG_
FNDA:16688,_ZSt10__invoke_rIbRZN6merkle5TreeTILm32EXadL_ZNS0_L15sha256_compressERKNS0_5HashTILm32EEES5_RS3_EEE15serialised_sizeEvEUlRPNS7_4NodeEbE_JSA_bEENSt9enable_ifIX16is_invocable_r_vIT_T0_DpT1_EESE_E4typeEOSF_DpOSG_
FNDA:498103,_ZSt10__invoke_rIbRZN6merkle5TreeTILm32EXadL_ZNS0_L15sha256_compressERKNS0_5HashTILm32EEES5_RS3_EEE4pathEmEUlPNS7_4NodeEbE_JRS9_bEENSt9enable_ifIX16is_invocable_r_vIT_T0_DpT1_EESE_E4typeEOSF_DpOSG_
FNDA:1612664,_ZSt10__invoke_rIbRZN6merkle5TreeTILm32EXadL_ZNS0_L15sha256_compressERKNS0_5HashTILm32EEES5_RS3_EEE8flush_toEmEUlRPNS7_4NodeEbE_JSA_bEENSt9enable_ifIX16is_invocable_r_vIT_T0_DpT1_EESE_E4typeEOSF_DpOSG_
FNDA:637,_ZSt10__invoke_rIbRZN6merkle5TreeTILm32EXadL_ZNS0_L15sha256_compressERKNS0_5HashTILm32EEES5_RS3_EEE9serialiseERSt6vectorIhSaIhEEEUlRPNS7_4NodeEbE_JSE_bEENSt9enable_ifIX16is_invocable_r_vIT_T0_DpT1_EESI_E4typeEOSJ_DpOSK_
FNDA:16864,_ZSt10__invoke_rIbRZN6merkle5TreeTILm32EXadL_ZNS0_L15sha256_compressERKNS0_5HashTILm32EEES5_RS3_EEE9serialiseEmmRSt6vectorIhSaIhEEEUlRPNS7_4NodeEbE_JSE_bEENSt9enable_ifIX16is_invocable_r_vIT_T0_DpT1_EESI_E4typeEOSJ_DpOSK_
FNDA:2,_ZSt10__invoke_rIbRZN6merkle5TreeTILm48EXadL_ZNS0_L14sha384_opensslERKNS0_5HashTILm48EEES5_RS3_EEE10retract_toEmEUlRPNS7_4NodeEbE_JSA_bEENSt9enable_ifIX16is_invocable_r_vIT_T0_DpT1_EESE_E4typeEOSF_DpOSG_
FNDA:387,_ZSt10__invoke_rIbRZN6merkle5TreeTILm48EXadL_ZNS0_L14sha384_opensslERKNS0_5HashTILm48EEES5_RS3_EEE4pathEmEUlPNS7_4NodeEbE_JRS9_bEENSt9enable_ifIX16is_invocable_r_vIT_T0_DpT1_EESE_E4typeEOSF_DpOSG_
FNDA:1,_ZSt10__invoke_rIbRZN6merkle5TreeTILm48EXadL_ZNS0_L14sha384_opensslERKNS0_5HashTILm48EEES5_RS3_EEE8flush_toEmEUlRPNS7_4NodeEbE_JSA_bEENSt9enable_ifIX16is_invocable_r_vIT_T0_DpT1_EESE_E4typeEOSF_DpOSG_
FNDA:1,_ZSt10__invoke_rIbRZN6merkle5TreeTILm48EXadL_ZNS0_L14sha384_opensslERKNS0_5HashTILm48EEES5_RS3_EEE9serialiseERSt6vectorIhSaIhEEEUlRPNS7_4NodeEbE_JSE_bEENSt9enable_ifIX16is_invocable_r_vIT_T0_DpT1_EESI_E4typeEOSJ_DpOSK_
FNDA:2,_ZSt10__invoke_rIbRZN6merkle5TreeTILm64EXadL_ZNS0_L14sha512_opensslERKNS0_5HashTILm64EEES5_RS3_EEE10retract_toEmEUlRPNS7_4NodeEbE_JSA_bEENSt9enable_ifIX16is_invocable_r_vIT_T0_DpT1_EESE_E4typeEOSF_DpOSG_
FNDA:387,_ZSt10__invoke_rIbRZN6merkle5TreeTILm64EXadL_ZNS0_L14sha512_opensslERKNS0_5HashTILm64EEES5_RS3_EEE4pathEmEUlPNS7_4NodeEbE_JRS9_bEENSt9enable_ifIX16is_invocable_r_vIT_T0_DpT1_EESE_E4typeEOSF_DpOSG_
FNDA:1,_ZSt10__invoke_rIbRZN6merkle5TreeTILm64EXadL_ZNS0_L14sha512_opensslERKNS0_5HashTILm64EEES5_RS3_EEE8flush_toEmEUlRPNS7_4NodeEbE_JSA_bEENSt9enable_ifIX16is_invocable_r_vIT_T0_DpT1_EESE_E4typeEOSF_DpOSG_
FNDA:1,_ZSt10__invoke_rIbRZN6merkle5TreeTILm64EXadL_ZNS0_L14sha512_opensslERKNS0_5HashTILm64EEES5_RS3_EEE9serialiseERSt6vectorIhSaIhEEEUlRPNS7_4NodeEbE_JSE_bEENSt9enable_ifIX16is_invocable_r_vIT_T0_DpT1_EESI_E4typeEOSJ_DpOSK_
FNDA:4,_ZSt13__invoke_implIbRZN6merkle5TreeTILm32EXadL_ZNS0_L14sha256_opensslERKNS0_5HashTILm32EEES5_RS3_EEE4pathEmEUlPNS7_4NodeEbE_JRS9_bEET_St14__invoke_otherOT0_DpOT1_
FNDA:384165,_ZSt13__invoke_implIbRZN6merkle5TreeTILm32EXadL_ZNS0_L15sha256_compressERKNS0_5HashTILm32EEES5_RS3_EEE10retract_toEmEUlRPNS7_4NodeEbE_JSA_bEET_St14__invoke_otherOT0_DpOT1_
FNDA:16864,_ZSt13__invoke_implIbRZN6merkle5TreeTILm32EXadL_ZNS0_L15sha256_compressERKNS0_5HashTILm32EEES5_RS3_EEE15serialised_sizeEmmEUlRPNS7_4NodeEbE_JSA_bEET_St14__invoke_otherOT0_DpOT1_
FNDA:16688,_ZSt13__invoke_implIbRZN6merkle5TreeTILm32EXadL_ZNS0_L15sha256_compressERKNS0_5HashTILm32EEES5_RS3_EEE15serialised_sizeEvEUlRPNS7_4NodeEbE_JSA_bEET_St14__invoke_otherOT0_DpOT1_
FNDA:498103,_ZSt13__invoke_implIbRZN6merkle5TreeTILm32EXadL_ZNS0_L15sha256_compressERKNS0_5HashTILm32EEES5_RS3_EEE4pathEmEUlPNS7_4NodeEbE_JRS9_bEET_St14__invoke_otherOT0_DpOT1_
FNDA:1612664,_ZSt13__invoke_implIbRZN6merkle5TreeTILm32EXadL_ZNS0_L15sha256_compressERKNS0_5HashTILm32EEES5_RS3_EEE8flush_toEmEUlRPNS7_4NodeEbE_JSA_bEET_St14__invoke_otherOT0_DpOT1_
FNDA:637,_ZSt13__invoke_implIbRZN6merkle5TreeTILm32EXadL_ZNS0_L15sha256_compressERKNS0_5HashTILm32EEES5_RS3_EEE9serialiseERSt6vectorIhSaIhEEEUlRPNS7_4NodeEbE_JSE_bEET_St14__invoke_otherOT0_DpOT1_
FNDA:16864,_ZSt13__invoke_implIbRZN6merkle5TreeTILm32EXadL_ZNS0_L15sha256_compressERKNS0_5HashTILm32EEES5_RS3_EEE9serialiseEmmRSt6vectorIhSaIhEEEUlRPNS7_4NodeEbE_JSE_bEET_St14__invoke_otherOT0_DpOT1_
FNDA:2,_ZSt13__invoke_implIbRZN6merkle5TreeTILm48EXadL_ZNS0_L14sha384_opensslERKNS0_5HashTILm48EEES5_RS3_EEE10retract_toEmEUlRPNS7_4NodeEbE_JSA_bEET_St14__invoke_otherOT0_DpOT1_
FNDA:387,_ZSt13__invoke_implIbRZN6merkle5TreeTILm48EXadL_ZNS0_L14sha384_opensslERKNS0_5HashTILm48EEES5_RS3_EEE4pathEmEUlPNS7_4NodeEbE_JRS9_bEET_St14__invoke_otherOT0_DpOT1_
FNDA:1,_ZSt13__invoke_implIbRZN6merkle5TreeTILm48EXadL_ZNS0_L14sha384_opensslERKNS0_5HashTILm48EEES5_RS3_EEE8flush_toEmEUlRPNS7_4NodeEbE_JSA_bEET_St14__invoke_otherOT0_DpOT1_
FNDA:1,_ZSt13__invoke_implIbRZN6merkle5TreeTILm48EXadL_ZNS0_L14sha384_opensslERKNS0_5HashTILm48EEES5_RS3_EEE9serialiseERSt6vectorIhSaIhEEEUlRPNS7_4NodeEbE_JSE_bEET_St14__invoke_otherOT0_DpOT1_
FNDA:2,_ZSt13__invoke_implIbRZN6merkle5TreeTILm64EXadL_ZNS0_L14sha512_opensslERKNS0_5HashTILm64EEES5_RS3_EEE10retract_toEmEUlRPNS7_4NodeEbE_JSA_bEET_St14__invoke_otherOT0_DpOT1_
FNDA:387,_ZSt13__invoke_implIbRZN6merkle5TreeTILm64EXadL_ZNS0_L14sha512_opensslERKNS0_5HashTILm64EEES5_RS3_EEE4pathEmEUlPNS7_4NodeEbE_JRS9_bEET_St14__invoke_otherOT0_DpOT1_
FNDA:1,_ZSt13__invoke_implIbRZN6merkle5TreeTILm64EXadL_ZNS0_L14sha512_opensslERKNS0_5HashTILm64EEES5_RS3_EEE8flush_toEmEUlRPNS7_4NodeEbE_JSA_bEET_St14__invoke_otherOT0_DpOT1_
FNDA:1,_ZSt13__invoke_implIbRZN6merkle5TreeTILm64EXadL_ZNS0_L14sha512_opensslERKNS0_5HashTILm64EEES5_RS3_EEE9serialiseERSt6vectorIhSaIhEEEUlRPNS7_4NodeEbE_JSE_bEET_St14__invoke_otherOT0_DpOT1_
FNF:32
FNH:32
DA:60,2546771
DA:61,2546771
DA:104,2546771
DA:114,2546771
DA:116,2546771
LF:5
LH:5
end_of_record
TN:
SF:/usr/include/c++/13/bits/ios_base.h
FN:1001,1005,_ZSt9uppercaseRSt8ios_base
FN:103,104,_ZStaNRSt13_Ios_FmtflagsS_
FN:1042,1046,_ZSt4leftRSt8ios_base
FN:1059,1063,_ZSt3decRSt8ios_base
FN:1067,1071,_ZSt3hexRSt8ios_base
FN:1084,1088,_ZSt5fixedRSt8ios_base
FN:130,131,_ZStorSt13_Ios_OpenmodeS_
FN:662,663,_ZNKSt8ios_base5flagsEv
FN:673,678,_ZNSt8ios_base5flagsESt13_Ios_Fmtflags
FN:689,694,_ZNSt8ios_base4setfESt13_Ios_Fmtflags
FN:706,712,_ZNSt8ios_base4setfESt13_Ios_FmtflagsS0_
FN:83,84,_ZStanSt13_Ios_FmtflagsS_
FN:87,88,_ZStorSt13_Ios_FmtflagsS_
FN:95,96,_ZStcoSt13_Ios_Fmtflags
FN:99,100,_ZStoRRSt13_Ios_FmtflagsS_
FNDA:0,_ZSt9uppercaseRSt8ios_base
FNDA:9,_ZStaNRSt13_Ios_FmtflagsS_
FNDA:8,_ZSt4leftRSt8ios_base
FNDA:1,_ZSt3decRSt8ios_base
FNDA:0,_ZSt3hexRSt8ios_base
FNDA:0,_ZSt5fixedRSt8ios_base
FNDA:0,_ZStorSt13_Ios_OpenmodeS_
FNDA:0,_ZNKSt8ios_base5flagsEv
FNDA:0,_ZNSt8ios_base5flagsESt13_Ios_Fmtflags
FNDA:0,_ZNSt8ios_base4setfESt13_Ios_Fmtflags
FNDA:9,_ZNSt8ios_base4setfESt13_Ios_FmtflagsS0_
FNDA:18,_ZStanSt13_Ios_FmtflagsS_
FNDA:9,_ZStorSt13_Ios_FmtflagsS_
FNDA:9,_ZStcoSt13_Ios_Fmtflags
FNDA:9,_ZStoRRSt13_Ios_FmtflagsS_
FNF:15
FNH:8
DA:83,18
DA:84,18
DA:87,9
DA:88,9
DA:95,9
DA:96,9
DA:99,9
DA:100,9
DA:103,9
DA:104,9
DA:130,0
DA:131,0
DA:662,0
DA:663,0
DA:673,0
DA:675,0
DA:676,0
DA:677,0
DA:689,0
DA:691,0
DA:692,0
DA:693,0
DA:706,9
DA:708,9
DA:709,9
DA:710,9
DA:711,9
DA:1001,0
DA:1003,0
DA:1004,0
DA:1042,8
DA:1044,8
DA:1045,8
DA:1059,1
DA:1061,1
DA:1062,1
DA:1067,0
DA:1069,0
DA:1070,0
DA:1084,0
DA:1086,0
DA:1087,0
LF:42
LH:21
end_of_record
TN:
SF:/usr/include/c++/13/bits/list.tcc
FN:66,83,_ZNSt7__cxx1110_List_baseIN6merkle5PathTILm32EXadL_ZNS1_L14sha256_opensslERKNS1_5HashTILm32EEES6_RS4_EEEUt0_ESaIS9_EE8_M_clearEv
FN:66,83,_ZNSt7__cxx1110_List_baseIN6merkle5PathTILm32EXadL_ZNS1_L15sha256_compressERKNS1_5HashTILm32EEES6_RS4_EEEUt0_ESaIS9_EE8_M_clearEv
FN:66,83,_ZNSt7__cxx1110_List_baseIN6merkle5PathTILm48EXadL_ZNS1_L14sha384_opensslERKNS1_5HashTILm48EEES6_RS4_EEEUt0_ESaIS9_EE8_M_clearEv
FN:66,83,_ZNSt7__cxx1110_List_baseIN6merkle5PathTILm64EXadL_ZNS1_L14sha512_opensslERKNS1_5HashTILm64EEES6_RS4_EEEUt0_ESaIS9_EE8_M_clearEv
FNDA:4,_ZNSt7__cxx1110_List_baseIN6merkle5PathTILm32EXadL_ZNS1_L14sha256_opensslERKNS1_5HashTILm32EEES6_RS4_EEEUt0_ESaIS9_EE8_M_clearEv
FNDA:110079,_ZNSt7__cxx1110_List_baseIN6merkle5PathTILm32EXadL_ZNS1_L15sha256_compressERKNS1_5HashTILm32EEES6_RS4_EEEUt0_ESaIS9_EE8_M_clearEv
FNDA:156,_ZNSt7__cxx1110_List_baseIN6merkle5PathTILm48EXadL_ZNS1_L14sha384_opensslERKNS1_5HashTILm48EEES6_RS4_EEEUt0_ESaIS9_EE8_M_clearEv
FNDA:156,_ZNSt7__cxx1110_List_baseIN6merkle5PathTILm64EXadL_ZNS1_L14sha512_opensslERKNS1_5HashTILm64EEES6_RS4_EEEUt0_ESaIS9_EE8_M_clearEv
FNF:4
FNH:4
DA:66,110395
DA:70,110395
DA:71,716423
DA:73,606028
DA:74,606028
DA:75,606028
DA:77,606028
DA:81,606028
DA:83,110395
LF:9
LH:9
end_of_record
TN:
SF:/usr/include/c++/13/bits/move.h
FN:138,139,_ZSt9addressofINSt8__detail10_Hash_nodeIyLb0EEEEPT_RS3_
FN:138,139,_ZSt9addressofIPNSt8__detail15_Hash_node_baseEEPT_RS3_
FN:189,200,_ZSt4swapIPKN7doctest6detail8TestCaseEENSt9enable_ifIXsrSt6__and_IJSt6__not_ISt15__is_tuple_likeIT_EESt21is_move_constructibleIS9_ESt18is_move_assignableIS9_EEE5valueEvE4typeERS9_SJ_
FN:189,200,_ZSt4swapImENSt9enable_ifIXsrSt6__and_IJSt6__not_ISt15__is_tuple_likeIT_EESt21is_move_constructibleIS4_ESt18is_move_assignableIS4_EEE5valueEvE4typeERS4_SE_
FN:51,52,_ZSt11__addressofIKZN6merkle5TreeTILm32EXadL_ZNS0_L14sha256_opensslERKNS0_5HashTILm32EEES5_RS3_EEE4pathEmEUlPNS7_4NodeEbE_EPT_RSC_
FN:51,52,_ZSt11__addressofIKZN6merkle5TreeTILm32EXadL_ZNS0_L15sha256_compressERKNS0_5HashTILm32EEES5_RS3_EEE10retract_toEmEUlRPNS7_4NodeEbE_EPT_RSD_
FN:51,52,_ZSt11__addressofIKZN6merkle5TreeTILm32EXadL_ZNS0_L15sha256_compressERKNS0_5HashTILm32EEES5_RS3_EEE15serialised_sizeEmmEUlRPNS7_4NodeEbE_EPT_RSD_
FN:51,52,_ZSt11__addressofIKZN6merkle5TreeTILm32EXadL_ZNS0_L15sha256_compressERKNS0_5HashTILm32EEES5_RS3_EEE15serialised_sizeEvEUlRPNS7_4NodeEbE_EPT_RSD_
FN:51,52,_ZSt11__addressofIKZN6merkle5TreeTILm32EXadL_ZNS0_L15sha256_compressERKNS0_5HashTILm32EEES5_RS3_EEE4pathEmEUlPNS7_4NodeEbE_EPT_RSC_
FN:51,52,_ZSt11__addressofIKZN6merkle5TreeTILm32EXadL_ZNS0_L15sha256_compressERKNS0_5HashTILm32EEES5_RS3_EEE8flush_toEmEUlRPNS7_4NodeEbE_EPT_RSD_
FN:51,52,_ZSt11__addressofIKZN6merkle5TreeTILm32EXadL_ZNS0_L15sha256_compressERKNS0_5HashTILm32EEES5_RS3_EEE9serialiseERSt6vectorIhSaIhEEEUlRPNS7_4NodeEbE_EPT_RSH_
FN:51,52,_ZSt11__addressofIKZN6merkle5TreeTILm32EXadL_ZNS0_L15sha256_compressERKNS0_5HashTILm32EEES5_RS3_EEE9serialiseEmmRSt6vectorIhSaIhEEEUlRPNS7_4NodeEbE_EPT_RSH_
FN:51,52,_ZSt11__addressofIKZN6merkle5TreeTILm48EXadL_ZNS0_L14sha384_opensslERKNS0_5HashTILm48EEES5_RS3_EEE10retract_toEmEUlRPNS7_4NodeEbE_EPT_RSD_
FN:51,52,_ZSt11__addressofIKZN6merkle5TreeTILm48EXadL_ZNS0_L14sha384_opensslERKNS0_5HashTILm48EEES5_RS3_EEE4pathEmEUlPNS7_4NodeEbE_EPT_RSC_
FN:51,52,_ZSt11__addressofIKZN6merkle5TreeTILm48EXadL_ZNS0_L14sha384_opensslERKNS0_5HashTILm48EEES5_RS3_EEE8flush_toEmEUlRPNS7_4NodeEbE_EPT_RSD_
FN:51,52,_ZSt11__addressofIKZN6merkle5TreeTILm48EXadL_ZNS0_L14sha384_opensslERKNS0_5HashTILm48EEES5_RS3_EEE9serialiseERSt6vectorIhSaIhEEEUlRPNS7_4NodeEbE_EPT_RSH_
FN:51,52,_ZSt11__addressofIKZN6merkle5TreeTILm64EXadL_ZNS0_L14sha512_opensslERKNS0_5HashTILm64EEES5_RS3_EEE10retract_toEmEUlRPNS7_4NodeEbE_EPT_RSD_
FN:51,52,_ZSt11__addressofIKZN6merkle5TreeTILm64EXadL_ZNS0_L14sha512_opensslERKNS0_5HashTILm64EEES5_RS3_EEE4pathEmEUlPNS7_4NodeEbE_EPT_RSC_
FN:51,52,_ZSt11__addressofIKZN6merkle5TreeTILm64EXadL_ZNS0_L14sha512_opensslERKNS0_5HashTILm64EEES5_RS3_EEE8flush_toEmEUlRPNS7_4NodeEbE_EPT_RSD_
FN:51,52,_ZSt11__addressofIKZN6merkle5TreeTILm64EXadL_ZNS0_L14sha512_opensslERKNS0_5HashTILm64EEES5_RS3_EEE9serialiseERSt6vectorIhSaIhEEEUlRPNS7_4NodeEbE_EPT_RSH_
FN:51,52,_ZSt11__addressofIN6merkle5HashTILm32EEEEPT_RS3_
FN:51,52,_ZSt11__addressofIN6merkle5HashTILm48EEEEPT_RS3_
FN:51,52,_ZSt11__addressofIN6merkle5HashTILm64EEEEPT_RS3_
FN:51,52,_ZSt11__addressofIN7doctest12_GLOBAL__N_113JUnitReporter17JUnitTestCaseData13JUnitTestCaseEEPT_RS5_
FN:51,52,_ZSt11__addressofIN7doctest12_GLOBAL__N_113JUnitReporter17JUnitTestCaseData16JUnitTestMessageEEPT_RS5_
FN:51,52,_ZSt11__addressofIN7doctest16SubcaseSignatureEEPT_RS2_
FN:51,52,_ZSt11__addressofIN7doctest6StringEEPT_RS2_
FN:51,52,_ZSt11__addressofINSt7__cxx1112basic_stringIcSt11char_traitsIcESaIcEEEEPT_RS6_
FN:51,52,_ZSt11__addressofINSt8__detail10_Hash_nodeIyLb0EEEEPT_RS3_
FN:51,52,_ZSt11__addressofIPN6merkle5TreeTILm32EXadL_ZNS0_L15sha256_compressERKNS0_5HashTILm32EEES5_RS3_EEE4NodeEEPT_RSA_
FN:51,52,_ZSt11__addressofIPN6merkle5TreeTILm48EXadL_ZNS0_L14sha384_opensslERKNS0_5HashTILm48EEES5_RS3_EEE4NodeEEPT_RSA_
FN:51,52,_ZSt11__addressofIPN6merkle5TreeTILm64EXadL_ZNS0_L14sha512_opensslERKNS0_5HashTILm64EEES5_RS3_EEE4NodeEEPT_RSA_
FN:51,52,_ZSt11__addressofIPNSt8__detail15_Hash_node_baseEEPT_RS3_
FN:51,52,_ZSt11__addressofISaISt10_List_nodeIN6merkle5PathTILm32EXadL_ZNS1_L14sha256_opensslERKNS1_5HashTILm32EEES6_RS4_EEEUt0_EEEEPT_RSC_
FN:51,52,_ZSt11__addressofISaISt10_List_nodeIN6merkle5PathTILm32EXadL_ZNS1_L15sha256_compressERKNS1_5HashTILm32EEES6_RS4_EEEUt0_EEEEPT_RSC_
FN:51,52,_ZSt11__addressofISaISt10_List_nodeIN6merkle5PathTILm48EXadL_ZNS1_L14sha384_opensslERKNS1_5HashTILm48EEES6_RS4_EEEUt0_EEEEPT_RSC_
FN:51,52,_ZSt11__addressofISaISt10_List_nodeIN6merkle5PathTILm64EXadL_ZNS1_L14sha512_opensslERKNS1_5HashTILm64EEES6_RS4_EEEUt0_EEEEPT_RSC_
FN:51,52,_ZSt11__addressofISaISt23_Sp_counted_ptr_inplaceIN6merkle5HashTILm32EEESaIvELN9__gnu_cxx12_Lock_policyE2EEEEPT_RS9_
FN:51,52,_ZSt11__addressofISaISt23_Sp_counted_ptr_inplaceIN6merkle5HashTILm48EEESaIvELN9__gnu_cxx12_Lock_policyE2EEEEPT_RS9_
FN:51,52,_ZSt11__addressofISaISt23_Sp_counted_ptr_inplaceIN6merkle5HashTILm64EEESaIvELN9__gnu_cxx12_Lock_policyE2EEEEPT_RS9_
FN:51,52,_ZSt11__addressofISaISt23_Sp_counted_ptr_inplaceIN6merkle5PathTILm32EXadL_ZNS1_L14sha256_opensslERKNS1_5HashTILm32EEES6_RS4_EEEESaIvELN9__gnu_cxx12_Lock_policyE2EEEEPT_RSE_
FN:51,52,_ZSt11__addressofISaISt23_Sp_counted_ptr_inplaceIN6merkle5PathTILm32EXadL_ZNS1_L15sha256_compressERKNS1_5HashTILm32EEES6_RS4_EEEESaIvELN9__gnu_cxx12_Lock_policyE2EEEEPT_RSE_
FN:51,52,_ZSt11__addressofISaISt23_Sp_counted_ptr_inplaceIN6merkle5PathTILm48EXadL_ZNS1_L14sha384_opensslERKNS1_5HashTILm48EEES6_RS4_EEEESaIvELN9__gnu_cxx12_Lock_policyE2EEEEPT_RSE_
FN:51,52,_ZSt11__addressofISaISt23_Sp_counted_ptr_inplaceIN6merkle5PathTILm64EXadL_ZNS1_L14sha512_opensslERKNS1_5HashTILm64EEES6_RS4_EEEESaIvELN9__gnu_cxx12_Lock_policyE2EEEEPT_RSE_
FN:51,52,_ZSt11__addressofISt4fposI11__mbstate_tEEPT_RS3_
FN:51,52,_ZSt11__addressofISt6vectorIN7doctest6StringESaIS2_EEEPT_RS5_
FN:70,71,_ZSt7forwardIN6merkle5HashTILm32EEEEOT_RNSt16remove_referenceIS3_E4typeE
FN:70,71,_ZSt7forwardIN6merkle5HashTILm48EEEEOT_RNSt16remove_referenceIS3_E4typeE
FN:70,71,_ZSt7forwardIN6merkle5HashTILm64EEEEOT_RNSt16remove_referenceIS3_E4typeE
FN:70,71,_ZSt7forwardIN6merkle5PathTILm32EXadL_ZNS0_L14sha256_opensslERKNS0_5HashTILm32EEES5_RS3_EEEUt0_EEOT_RNSt16remove_referenceIS9_E4typeE
FN:70,71,_ZSt7forwardIN6merkle5PathTILm32EXadL_ZNS0_L15sha256_compressERKNS0_5HashTILm32EEES5_RS3_EEEUt0_EEOT_RNSt16remove_referenceIS9_E4typeE
FN:70,71,_ZSt7forwardIN6merkle5PathTILm48EXadL_ZNS0_L14sha384_opensslERKNS0_5HashTILm48EEES5_RS3_EEEUt0_EEOT_RNSt16remove_referenceIS9_E4typeE
FN:70,71,_ZSt7forwardIN6merkle5PathTILm64EXadL_ZNS0_L14sha512_opensslERKNS0_5HashTILm64EEES5_RS3_EEEUt0_EEOT_RNSt16remove_referenceIS9_E4typeE
FN:70,71,_ZSt7forwardIN6merkle5TreeTILm32EXadL_ZNS0_L14sha256_opensslERKNS0_5HashTILm32EEES5_RS3_EEEUt_EEOT_RNSt16remove_referenceIS9_E4typeE
FN:70,71,_ZSt7forwardIN6merkle5TreeTILm32EXadL_ZNS0_L15sha256_compressERKNS0_5HashTILm32EEES5_RS3_EEEUt_EEOT_RNSt16remove_referenceIS9_E4typeE
FN:70,71,_ZSt7forwardIN6merkle5TreeTILm48EXadL_ZNS0_L14sha384_opensslERKNS0_5HashTILm48EEES5_RS3_EEEUt_EEOT_RNSt16remove_referenceIS9_E4typeE
FN:70,71,_ZSt7forwardIN6merkle5TreeTILm64EXadL_ZNS0_L14sha512_opensslERKNS0_5HashTILm64EEES5_RS3_EEEUt_EEOT_RNSt16remove_referenceIS9_E4typeE
FN:70,71,_ZSt7forwardIN7doctest12_GLOBAL__N_113JUnitReporter17JUnitTestCaseData13JUnitTestCaseEEOT_RNSt16remove_referenceIS5_E4typeE
FN:70,71,_ZSt7forwardIN7doctest12_GLOBAL__N_113JUnitReporter17JUnitTestCaseData16JUnitTestMessageEEOT_RNSt16remove_referenceIS5_E4typeE
FN:70,71,_ZSt7forwardIN7doctest16SubcaseSignatureEEOT_RNSt16remove_referenceIS2_E4typeE
FN:70,71,_ZSt7forwardIN7doctest6StringEEOT_RNSt16remove_referenceIS2_E4typeE
FN:70,71,_ZSt7forwardINSt7__cxx1112basic_stringIcSt11char_traitsIcESaIcEEEEOT_RNSt16remove_referenceIS6_E4typeE
FN:70,71,_ZSt7forwardINSt7__cxx114listIN6merkle5PathTILm32EXadL_ZNS2_L14sha256_opensslERKNS2_5HashTILm32EEES7_RS5_EEEUt0_ESaISA_EEEEOT_RNSt16remove_referenceISD_E4typeE
FN:70,71,_ZSt7forwardINSt7__cxx114listIN6merkle5PathTILm32EXadL_ZNS2_L15sha256_compressERKNS2_5HashTILm32EEES7_RS5_EEEUt0_ESaISA_EEEEOT_RNSt16remove_referenceISD_E4typeE
FN:70,71,_ZSt7forwardINSt7__cxx114listIN6merkle5PathTILm48EXadL_ZNS2_L14sha384_opensslERKNS2_5HashTILm48EEES7_RS5_EEEUt0_ESaISA_EEEEOT_RNSt16remove_referenceISD_E4typeE
FN:70,71,_ZSt7forwardINSt7__cxx114listIN6merkle5PathTILm64EXadL_ZNS2_L14sha512_opensslERKNS2_5HashTILm64EEES7_RS5_EEEUt0_ESaISA_EEEEOT_RNSt16remove_referenceISD_E4typeE
FN:70,71,_ZSt7forwardINSt8__detail14_Node_iteratorIyLb1ELb0EEEEOT_RNSt16remove_referenceIS3_E4typeE
FN:70,71,_ZSt7forwardIPKN7doctest12TestCaseDataEEOT_RNSt16remove_referenceIS4_E4typeE
FN:70,71,_ZSt7forwardIPKN7doctest6detail8TestCaseEEOT_RNSt16remove_referenceIS5_E4typeE
FN:70,71,_ZSt7forwardIPN6merkle5TreeTILm32EXadL_ZNS0_L14sha256_opensslERKNS0_5HashTILm32EEES5_RS3_EEE4NodeEEOT_RNSt16remove_referenceISA_E4typeE
FN:70,71,_ZSt7forwardIPN6merkle5TreeTILm32EXadL_ZNS0_L15sha256_compressERKNS0_5HashTILm32EEES5_RS3_EEE4NodeEEOT_RNSt16remove_referenceISA_E4typeE
FN:70,71,_ZSt7forwardIPN6merkle5TreeTILm48EXadL_ZNS0_L14sha384_opensslERKNS0_5HashTILm48EEES5_RS3_EEE4NodeEEOT_RNSt16remove_referenceISA_E4typeE
FN:70,71,_ZSt7forwardIPN6merkle5TreeTILm64EXadL_ZNS0_L14sha512_opensslERKNS0_5HashTILm64EEES5_RS3_EEE4NodeEEOT_RNSt16remove_referenceISA_E4typeE
FN:70,71,_ZSt7forwardIPN7doctest13IContextScopeEEOT_RNSt16remove_referenceIS3_E4typeE
FN:70,71,_ZSt7forwardIPN7doctest9IReporterEEOT_RNSt16remove_referenceIS3_E4typeE
FN:70,71,_ZSt7forwardIRKN6merkle5HashTILm32EEEEOT_RNSt16remove_referenceIS5_E4typeE
FN:70,71,_ZSt7forwardIRKN6merkle5HashTILm48EEEEOT_RNSt16remove_referenceIS5_E4typeE
FN:70,71,_ZSt7forwardIRKN6merkle5HashTILm64EEEEOT_RNSt16remove_referenceIS5_E4typeE
FN:70,71,_ZSt7forwardIRKN7doctest16SubcaseSignatureEEOT_RNSt16remove_referenceIS4_E4typeE
FN:70,71,_ZSt7forwardIRKN7doctest6StringEEOT_RNSt16remove_referenceIS4_E4typeE
FN:70,71,_ZSt7forwardIRKN7doctest6detail8TestCaseEEOT_RNSt16remove_referenceIS5_E4typeE
FN:70,71,_ZSt7forwardIRKNSt7__cxx1112basic_stringIcSt11char_traitsIcESaIcEEEEOT_RNSt16remove_referenceIS8_E4typeE
FN:70,71,_ZSt7forwardIRKPKN7doctest6detail20IExceptionTranslatorEEOT_RNSt16remove_referenceIS7_E4typeE
FN:70,71,_ZSt7forwardIRKPN6merkle5TreeTILm32EXadL_ZNS0_L14sha256_opensslERKNS0_5HashTILm32EEES5_RS3_EEE4NodeEEOT_RNSt16remove_referenceISC_E4typeE
FN:70,71,_ZSt7forwardIRKPN6merkle5TreeTILm32EXadL_ZNS0_L15sha256_compressERKNS0_5HashTILm32EEES5_RS3_EEE4NodeEEOT_RNSt16remove_referenceISC_E4typeE
FN:70,71,_ZSt7forwardIRKPN6merkle5TreeTILm48EXadL_ZNS0_L14sha384_opensslERKNS0_5HashTILm48EEES5_RS3_EEE4NodeEEOT_RNSt16remove_referenceISC_E4typeE
FN:70,71,_ZSt7forwardIRKPN6merkle5TreeTILm64EXadL_ZNS0_L14sha512_opensslERKNS0_5HashTILm64EEES5_RS3_EEE4NodeEEOT_RNSt16remove_referenceISC_E4typeE
FN:70,71,_ZSt7forwardIRKSt21piecewise_construct_tEOT_RNSt16remove_referenceIS3_E4typeE
FN:70,71,_ZSt7forwardIRKZN6merkle5TreeTILm32EXadL_ZNS0_L14sha256_opensslERKNS0_5HashTILm32EEES5_RS3_EEE4pathEmEUlPNS7_4NodeEbE_EOT_RNSt16remove_referenceISD_E4typeE
FN:70,71,_ZSt7forwardIRKZN6merkle5TreeTILm32EXadL_ZNS0_L15sha256_compressERKNS0_5HashTILm32EEES5_RS3_EEE10retract_toEmEUlRPNS7_4NodeEbE_EOT_RNSt16remove_referenceISE_E4typeE
FN:70,71,_ZSt7forwardIRKZN6merkle5TreeTILm32EXadL_ZNS0_L15sha256_compressERKNS0_5HashTILm32EEES5_RS3_EEE15serialised_sizeEmmEUlRPNS7_4NodeEbE_EOT_RNSt16remove_referenceISE_E4typeE
FN:70,71,_ZSt7forwardIRKZN6merkle5TreeTILm32EXadL_ZNS0_L15sha256_compressERKNS0_5HashTILm32EEES5_RS3_EEE15serialised_sizeEvEUlRPNS7_4NodeEbE_EOT_RNSt16remove_referenceISE_E4typeE
FN:70,71,_ZSt7forwardIRKZN6merkle5TreeTILm32EXadL_ZNS0_L15sha256_compressERKNS0_5HashTILm32EEES5_RS3_EEE4pathEmEUlPNS7_4NodeEbE_EOT_RNSt16remove_referenceISD_E4typeE
FN:70,71,_ZSt7forwardIRKZN6merkle5TreeTILm32EXadL_ZNS0_L15sha256_compressERKNS0_5HashTILm32EEES5_RS3_EEE8flush_toEmEUlRPNS7_4NodeEbE_EOT_RNSt16remove_referenceISE_E4typeE
FN:70,71,_ZSt7forwardIRKZN6merkle5TreeTILm32EXadL_ZNS0_L15sha256_compressERKNS0_5HashTILm32EEES5_RS3_EEE9serialiseERSt6vectorIhSaIhEEEUlRPNS7_4NodeEbE_EOT_RNSt16remove_referenceISI_E4typeE
FN:70,71,_ZSt7forwardIRKZN6merkle5TreeTILm32EXadL_ZNS0_L15sha256_compressERKNS0_5HashTILm32EEES5_RS3_EEE9serialiseEmmRSt6vectorIhSaIhEEEUlRPNS7_4NodeEbE_EOT_RNSt16remove_referenceISI_E4typeE
FN:70,71,_ZSt7forwardIRKZN6merkle5TreeTILm48EXadL_ZNS0_L14sha384_opensslERKNS0_5HashTILm48EEES5_RS3_EEE10retract_toEmEUlRPNS7_4NodeEbE_EOT_RNSt16remove_referenceISE_E4typeE
FN:70,71,_ZSt7forwardIRKZN6merkle5TreeTILm48EXadL_ZNS0_L14sha384_opensslERKNS0_5HashTILm48EEES5_RS3_EEE4pathEmEUlPNS7_4NodeEbE_EOT_RNSt16remove_referenceISD_E4typeE
FN:70,71,_ZSt7forwardIRKZN6merkle5TreeTILm48EXadL_ZNS0_L14sha384_opensslERKNS0_5HashTILm48EEES5_RS3_EEE8flush_toEmEUlRPNS7_4NodeEbE_EOT_RNSt16remove_referenceISE_E4typeE
FN:70,71,_ZSt7forwardIRKZN6merkle5TreeTILm48EXadL_ZNS0_L14sha384_opensslERKNS0_5HashTILm48EEES5_RS3_EEE9serialiseERSt6vectorIhSaIhEEEUlRPNS7_4NodeEbE_EOT_RNSt16remove_referenceISI_E4typeE
FN:70,71,_ZSt7forwardIRKZN6merkle5TreeTILm64EXadL_ZNS0_L14sha512_opensslERKNS0_5HashTILm64EEES5_RS3_EEE10retract_toEmEUlRPNS7_4NodeEbE_EOT_RNSt16remove_referenceISE_E4typeE
FN:70,71,_ZSt7forwardIRKZN6merkle5TreeTILm64EXadL_ZNS0_L14sha512_opensslERKNS0_5HashTILm64EEES5_RS3_EEE4pathEmEUlPNS7_4NodeEbE_EOT_RNSt16remove_referenceISD_E4typeE
FN:70,71,_ZSt7forwardIRKZN6merkle5TreeTILm64EXadL_ZNS0_L14sha512_opensslERKNS0_5HashTILm64EEES5_RS3_EEE8flush_toEmEUlRPNS7_4NodeEbE_EOT_RNSt16remove_referenceISE_E4typeE
FN:70,71,_ZSt7forwardIRKZN6merkle5TreeTILm64EXadL_ZNS0_L14sha512_opensslERKNS0_5HashTILm64EEES5_RS3_EEE9serialiseERSt6vectorIhSaIhEEEUlRPNS7_4NodeEbE_EOT_RNSt16remove_referenceISI_E4typeE
FN:70,71,_ZSt7forwardIRKhEOT_RNSt16remove_referenceIS2_E4typeE
FN:70,71,_ZSt7forwardIRKmEOT_RNSt16remove_referenceIS2_E4typeE
FN:70,71,_ZSt7forwardIRKyEOT_RNSt16remove_referenceIS2_E4typeE
FN:70,71,_ZSt7forwardIRN7doctest16SubcaseSignatureEEOT_RNSt16remove_referenceIS3_E4typeE
FN:70,71,_ZSt7forwardIRNSt8__detail14_Node_iteratorIyLb1ELb0EEEEOT_RNSt16remove_referenceIS4_E4typeE
FN:70,71,_ZSt7forwardIRPFPN7doctest9IReporterERKNS0_14ContextOptionsEEEOT_RNSt16remove_referenceIS9_E4typeE
FN:70,71,_ZSt7forwardIRPKcEOT_RNSt16remove_referenceIS3_E4typeE
FN:70,71,_ZSt7forwardIRPN6merkle5TreeTILm32EXadL_ZNS0_L14sha256_opensslERKNS0_5HashTILm32EEES5_RS3_EEE4NodeEEOT_RNSt16remove_referenceISB_E4typeE
FN:70,71,_ZSt7forwardIRPN6merkle5TreeTILm32EXadL_ZNS0_L15sha256_compressERKNS0_5HashTILm32EEES5_RS3_EEE4NodeEEOT_RNSt16remove_referenceISB_E4typeE
FN:70,71,_ZSt7forwardIRPN6merkle5TreeTILm48EXadL_ZNS0_L14sha384_opensslERKNS0_5HashTILm48EEES5_RS3_EEE4NodeEEOT_RNSt16remove_referenceISB_E4typeE
FN:70,71,_ZSt7forwardIRPN6merkle5TreeTILm64EXadL_ZNS0_L14sha512_opensslERKNS0_5HashTILm64EEES5_RS3_EEE4NodeEEOT_RNSt16remove_referenceISB_E4typeE
FN:70,71,_ZSt7forwardIRPSt13_Rb_tree_nodeIN7doctest6StringEEEOT_RNSt16remove_referenceIS6_E4typeE
FN:70,71,_ZSt7forwardIRPSt13_Rb_tree_nodeIN7doctest6detail8TestCaseEEEOT_RNSt16remove_referenceIS7_E4typeE
FN:70,71,_ZSt7forwardIRPSt13_Rb_tree_nodeISt4pairIKS1_IiN7doctest6StringEEPFPNS2_9IReporterERKNS2_14ContextOptionsEEEEEOT_RNSt16remove_referenceISH_E4typeE
FN:70,71,_ZSt7forwardIRPSt13_Rb_tree_nodeISt4pairIKmN6merkle5HashTILm32EEEEEEOT_RNSt16remove_referenceISA_E4typeE
FN:70,71,_ZSt7forwardIRPSt18_Rb_tree_node_baseEOT_RNSt16remove_referenceIS3_E4typeE
FN:70,71,_ZSt7forwardIRSt17_Rb_tree_iteratorIN7doctest6StringEEEOT_RNSt16remove_referenceIS5_E4typeE
FN:70,71,_ZSt7forwardIRSt17_Rb_tree_iteratorIN7doctest6detail8TestCaseEEEOT_RNSt16remove_referenceIS6_E4typeE
FN:70,71,_ZSt7forwardIRZN6merkle5TreeTILm32EXadL_ZNS0_L14sha256_opensslERKNS0_5HashTILm32EEES5_RS3_EEE4pathEmEUlPNS7_4NodeEbE_EOT_RNSt16remove_referenceISC_E4typeE
FN:70,71,_ZSt7forwardIRZN6merkle5TreeTILm32EXadL_ZNS0_L15sha256_compressERKNS0_5HashTILm32EEES5_RS3_EEE10retract_toEmEUlRPNS7_4NodeEbE_EOT_RNSt16remove_referenceISD_E4typeE
FN:70,71,_ZSt7forwardIRZN6merkle5TreeTILm32EXadL_ZNS0_L15sha256_compressERKNS0_5HashTILm32EEES5_RS3_EEE15serialised_sizeEmmEUlRPNS7_4NodeEbE_EOT_RNSt16remove_referenceISD_E4typeE
FN:70,71,_ZSt7forwardIRZN6merkle5TreeTILm32EXadL_ZNS0_L15sha256_compressERKNS0_5HashTILm32EEES5_RS3_EEE15serialised_sizeEvEUlRPNS7_4NodeEbE_EOT_RNSt16remove_referenceISD_E4typeE
FN:70,71,_ZSt7forwardIRZN6merkle5TreeTILm32EXadL_ZNS0_L15sha256_compressERKNS0_5HashTILm32EEES5_RS3_EEE4pathEmEUlPNS7_4NodeEbE_EOT_RNSt16remove_referenceISC_E4typeE
FN:70,71,_ZSt7forwardIRZN6merkle5TreeTILm32EXadL_ZNS0_L15sha256_compressERKNS0_5HashTILm32EEES5_RS3_EEE8flush_toEmEUlRPNS7_4NodeEbE_EOT_RNSt16remove_referenceISD_E4typeE
FN:70,71,_ZSt7forwardIRZN6merkle5TreeTILm32EXadL_ZNS0_L15sha256_compressERKNS0_5HashTILm32EEES5_RS3_EEE9serialiseERSt6vectorIhSaIhEEEUlRPNS7_4NodeEbE_EOT_RNSt16remove_referenceISH_E4typeE
FN:70,71,_ZSt7forwardIRZN6merkle5TreeTILm32EXadL_ZNS0_L15sha256_compressERKNS0_5HashTILm32EEES5_RS3_EEE9serialiseEmmRSt6vectorIhSaIhEEEUlRPNS7_4NodeEbE_EOT_RNSt16remove_referenceISH_E4typeE
FN:70,71,_ZSt7forwardIRZN6merkle5TreeTILm48EXadL_ZNS0_L14sha384_opensslERKNS0_5HashTILm48EEES5_RS3_EEE10retract_toEmEUlRPNS7_4NodeEbE_EOT_RNSt16remove_referenceISD_E4typeE
FN:70,71,_ZSt7forwardIRZN6merkle5TreeTILm48EXadL_ZNS0_L14sha384_opensslERKNS0_5HashTILm48EEES5_RS3_EEE4pathEmEUlPNS7_4NodeEbE_EOT_RNSt16remove_referenceISC_E4typeE
FN:70,71,_ZSt7forwardIRZN6merkle5TreeTILm48EXadL_ZNS0_L14sha384_opensslERKNS0_5HashTILm48EEES5_RS3_EEE8flush_toEmEUlRPNS7_4NodeEbE_EOT_RNSt16remove_referenceISD_E4typeE
FN:70,71,_ZSt7forwardIRZN6merkle5TreeTILm48EXadL_ZNS0_L14sha384_opensslERKNS0_5HashTILm48EEES5_RS3_EEE9serialiseERSt6vectorIhSaIhEEEUlRPNS7_4NodeEbE_EOT_RNSt16remove_referenceISH_E4typeE
FN:70,71,_ZSt7forwardIRZN6merkle5TreeTILm64EXadL_ZNS0_L14sha512_opensslERKNS0_5HashTILm64EEES5_RS3_EEE10retract_toEmEUlRPNS7_4NodeEbE_EOT_RNSt16remove_referenceISD_E4typeE
FN:70,71,_ZSt7forwardIRZN6merkle5TreeTILm64EXadL_ZNS0_L14sha512_opensslERKNS0_5HashTILm64EEES5_RS3_EEE4pathEmEUlPNS7_4NodeEbE_EOT_RNSt16remove_referenceISC_E4typeE
FN:70,71,_ZSt7forwardIRZN6merkle5TreeTILm64EXadL_ZNS0_L14sha512_opensslERKNS0_5HashTILm64EEES5_RS3_EEE8flush_toEmEUlRPNS7_4NodeEbE_EOT_RNSt16remove_referenceISD_E4typeE
FN:70,71,_ZSt7forwardIRZN6merkle5TreeTILm64EXadL_ZNS0_L14sha512_opensslERKNS0_5HashTILm64EEES5_RS3_EEE9serialiseERSt6vectorIhSaIhEEEUlRPNS7_4NodeEbE_EOT_RNSt16remove_referenceISH_E4typeE
FN:70,71,_ZSt7forwardIRbEOT_RNSt16remove_referenceIS1_E4typeE
FN:70,71,_ZSt7forwardIRiEOT_RNSt16remove_referenceIS1_E4typeE
FN:70,71,_ZSt7forwardIRmEOT_RNSt16remove_referenceIS1_E4typeE
FN:70,71,_ZSt7forwardISt17_Rb_tree_iteratorIN7doctest6StringEEEOT_RNSt16remove_referenceIS4_E4typeE
FN:70,71,_ZSt7forwardISt17_Rb_tree_iteratorIN7doctest6detail8TestCaseEEEOT_RNSt16remove_referenceIS5_E4typeE
FN:70,71,_ZSt7forwardISt17_Rb_tree_iteratorISt4pairIKS1_IiN7doctest6StringEEPFPNS2_9IReporterERKNS2_14ContextOptionsEEEEEOT_RNSt16remove_referenceISF_E4typeE
FN:70,71,_ZSt7forwardISt4fposI11__mbstate_tEEOT_RNSt16remove_referenceIS3_E4typeE
FN:70,71,_ZSt7forwardISt4pairIKS0_IiN7doctest6StringEEPFPNS1_9IReporterERKNS1_14ContextOptionsEEEEOT_RNSt16remove_referenceISD_E4typeE
FN:70,71,_ZSt7forwardISt4pairIiN7doctest6StringEEEOT_RNSt16remove_referenceIS4_E4typeE
FN:70,71,_ZSt7forwardISt5tupleIJEEEOT_RNSt16remove_referenceIS2_E4typeE
FN:70,71,_ZSt7forwardISt5tupleIJRKmEEEOT_RNSt16remove_referenceIS4_E4typeE
FN:70,71,_ZSt7forwardIZN6merkle5TreeTILm32EXadL_ZNS0_L14sha256_opensslERKNS0_5HashTILm32EEES5_RS3_EEE4pathEmEUlPNS7_4NodeEbE_EOT_RNSt16remove_referenceISB_E4typeE
FN:70,71,_ZSt7forwardIZN6merkle5TreeTILm32EXadL_ZNS0_L15sha256_compressERKNS0_5HashTILm32EEES5_RS3_EEE10retract_toEmEUlRPNS7_4NodeEbE_EOT_RNSt16remove_referenceISC_E4typeE
FN:70,71,_ZSt7forwardIZN6merkle5TreeTILm32EXadL_ZNS0_L15sha256_compressERKNS0_5HashTILm32EEES5_RS3_EEE15serialised_sizeEmmEUlRPNS7_4NodeEbE_EOT_RNSt16remove_referenceISC_E4typeE
FN:70,71,_ZSt7forwardIZN6merkle5TreeTILm32EXadL_ZNS0_L15sha256_compressERKNS0_5HashTILm32EEES5_RS3_EEE15serialised_sizeEvEUlRPNS7_4NodeEbE_EOT_RNSt16remove_referenceISC_E4typeE
FN:70,71,_ZSt7forwardIZN6merkle5TreeTILm32EXadL_ZNS0_L15sha256_compressERKNS0_5HashTILm32EEES5_RS3_EEE4pathEmEUlPNS7_4NodeEbE_EOT_RNSt16remove_referenceISB_E4typeE
FN:70,71,_ZSt7forwardIZN6merkle5TreeTILm32EXadL_ZNS0_L15sha256_compressERKNS0_5HashTILm32EEES5_RS3_EEE8flush_toEmEUlRPNS7_4NodeEbE_EOT_RNSt16remove_referenceISC_E4typeE
FN:70,71,_ZSt7forwardIZN6merkle5TreeTILm32EXadL_ZNS0_L15sha256_compressERKNS0_5HashTILm32EEES5_RS3_EEE9serialiseERSt6vectorIhSaIhEEEUlRPNS7_4NodeEbE_EOT_RNSt16remove_referenceISG_E4typeE
FN:70,71,_ZSt7forwardIZN6merkle5TreeTILm32EXadL_ZNS0_L15sha256_compressERKNS0_5HashTILm32EEES5_RS3_EEE9serialiseEmmRSt6vectorIhSaIhEEEUlRPNS7_4NodeEbE_EOT_RNSt16remove_referenceISG_E4typeE
FN:70,71,_ZSt7forwardIZN6merkle5TreeTILm48EXadL_ZNS0_L14sha384_opensslERKNS0_5HashTILm48EEES5_RS3_EEE10retract_toEmEUlRPNS7_4NodeEbE_EOT_RNSt16remove_referenceISC_E4typeE
FN:70,71,_ZSt7forwardIZN6merkle5TreeTILm48EXadL_ZNS0_L14sha384_opensslERKNS0_5HashTILm48EEES5_RS3_EEE4pathEmEUlPNS7_4NodeEbE_EOT_RNSt16remove_referenceISB_E4typeE
FN:70,71,_ZSt7forwardIZN6merkle5TreeTILm48EXadL_ZNS0_L14sha384_opensslERKNS0_5HashTILm48EEES5_RS3_EEE8flush_toEmEUlRPNS7_4NodeEbE_EOT_RNSt16remove_referenceISC_E4typeE
FN:70,71,_ZSt7forwardIZN6merkle5TreeTILm48EXadL_ZNS0_L14sha384_opensslERKNS0_5HashTILm48EEES5_RS3_EEE9serialiseERSt6vectorIhSaIhEEEUlRPNS7_4NodeEbE_EOT_RNSt16remove_referenceISG_E4typeE
FN:70,71,_ZSt7forwardIZN6merkle5TreeTILm64EXadL_ZNS0_L14sha512_opensslERKNS0_5HashTILm64EEES5_RS3_EEE10retract_toEmEUlRPNS7_4NodeEbE_EOT_RNSt16remove_referenceISC_E4typeE
FN:70,71,_ZSt7forwardIZN6merkle5TreeTILm64EXadL_ZNS0_L14sha512_opensslERKNS0_5HashTILm64EEES5_RS3_EEE4pathEmEUlPNS7_4NodeEbE_EOT_RNSt16remove_referenceISB_E4typeE
FN:70,71,_ZSt7forwardIZN6merkle5TreeTILm64EXadL_ZNS0_L14sha512_opensslERKNS0_5HashTILm64EEES5_RS3_EEE8flush_toEmEUlRPNS7_4NodeEbE_EOT_RNSt16remove_referenceISC_E4typeE
FN:70,71,_ZSt7forwardIZN6merkle5TreeTILm64EXadL_ZNS0_L14sha512_opensslERKNS0_5HashTILm64EEES5_RS3_EEE9serialiseERSt6vectorIhSaIhEEEUlRPNS7_4NodeEbE_EOT_RNSt16remove_referenceISG_E4typeE
FN:70,71,_ZSt7forwardIbEOT_RNSt16remove_referenceIS0_E4typeE
FN:70,71,_ZSt7forwardIhEOT_RNSt16remove_referenceIS0_E4typeE
FN:70,71,_ZSt7forwardImEOT_RNSt16remove_referenceIS0_E4typeE
FN:70,71,_ZSt7forwardIyEOT_RNSt16remove_referenceIS0_E4typeE
FN:97,98,_ZSt4moveIRN6merkle5HashTILm32EEEEONSt16remove_referenceIT_E4typeEOS5_
FN:97,98,_ZSt4moveIRN6merkle5HashTILm48EEEEONSt16remove_referenceIT_E4typeEOS5_
FN:97,98,_ZSt4moveIRN6merkle5HashTILm64EEEEONSt16remove_referenceIT_E4typeEOS5_
FN:97,98,_ZSt4moveIRN6merkle5PathTILm32EXadL_ZNS0_L14sha256_opensslERKNS0_5HashTILm32EEES5_RS3_EEEUt0_EEONSt16remove_referenceIT_E4typeEOSB_
FN:97,98,_ZSt4moveIRN6merkle5PathTILm32EXadL_ZNS0_L15sha256_compressERKNS0_5HashTILm32EEES5_RS3_EEEUt0_EEONSt16remove_referenceIT_E4typeEOSB_
FN:97,98,_ZSt4moveIRN6merkle5PathTILm48EXadL_ZNS0_L14sha384_opensslERKNS0_5HashTILm48EEES5_RS3_EEEUt0_EEONSt16remove_referenceIT_E4typeEOSB_
FN:97,98,_ZSt4moveIRN6merkle5PathTILm64EXadL_ZNS0_L14sha512_opensslERKNS0_5HashTILm64EEES5_RS3_EEEUt0_EEONSt16remove_referenceIT_E4typeEOSB_
FN:97,98,_ZSt4moveIRN6merkle5TreeTILm32EXadL_ZNS0_L14sha256_opensslERKNS0_5HashTILm32EEES5_RS3_EEEUt_EEONSt16remove_referenceIT_E4typeEOSB_
FN:97,98,_ZSt4moveIRN6merkle5TreeTILm32EXadL_ZNS0_L15sha256_compressERKNS0_5HashTILm32EEES5_RS3_EEEUt_EEONSt16remove_referenceIT_E4typeEOSB_
FN:97,98,_ZSt4moveIRN6merkle5TreeTILm48EXadL_ZNS0_L14sha384_opensslERKNS0_5HashTILm48EEES5_RS3_EEEUt_EEONSt16remove_referenceIT_E4typeEOSB_
FN:97,98,_ZSt4moveIRN6merkle5TreeTILm64EXadL_ZNS0_L14sha512_opensslERKNS0_5HashTILm64EEES5_RS3_EEEUt_EEONSt16remove_referenceIT_E4typeEOSB_
FN:97,98,_ZSt4moveIRN7doctest12_GLOBAL__N_113JUnitReporter17JUnitTestCaseData13JUnitTestCaseEEONSt16remove_referenceIT_E4typeEOS7_
FN:97,98,_ZSt4moveIRN7doctest12_GLOBAL__N_113JUnitReporter17JUnitTestCaseData16JUnitTestMessageEEONSt16remove_referenceIT_E4typeEOS7_
FN:97,98,_ZSt4moveIRN7doctest16SubcaseSignatureEEONSt16remove_referenceIT_E4typeEOS4_
FN:97,98,_ZSt4moveIRN7doctest6StringEEONSt16remove_referenceIT_E4typeEOS4_
FN:97,98,_ZSt4moveIRN9__gnu_cxx5__ops15_Iter_comp_iterIPFbPKN7doctest6detail8TestCaseES7_EEEEONSt16remove_referenceIT_E4typeEOSD_
FN:97,98,_ZSt4moveIRNSt12_Vector_baseIN7doctest12_GLOBAL__N_113JUnitReporter17JUnitTestCaseData16JUnitTestMessageESaIS5_EE12_Vector_implEEONSt16remove_referenceIT_E4typeEOSB_
FN:97,98,_ZSt4moveIRNSt7__cxx1112basic_stringIcSt11char_traitsIcESaIcEEEEONSt16remove_referenceIT_E4typeEOS8_
FN:97,98,_ZSt4moveIRNSt7__cxx114listIN6merkle5PathTILm32EXadL_ZNS2_L14sha256_opensslERKNS2_5HashTILm32EEES7_RS5_EEEUt0_ESaISA_EEEEONSt16remove_referenceIT_E4typeEOSF_
FN:97,98,_ZSt4moveIRNSt7__cxx114listIN6merkle5PathTILm32EXadL_ZNS2_L15sha256_compressERKNS2_5HashTILm32EEES7_RS5_EEEUt0_ESaISA_EEEEONSt16remove_referenceIT_E4typeEOSF_
FN:97,98,_ZSt4moveIRNSt7__cxx114listIN6merkle5PathTILm48EXadL_ZNS2_L14sha384_opensslERKNS2_5HashTILm48EEES7_RS5_EEEUt0_ESaISA_EEEEONSt16remove_referenceIT_E4typeEOSF_
FN:97,98,_ZSt4moveIRNSt7__cxx114listIN6merkle5PathTILm64EXadL_ZNS2_L14sha512_opensslERKNS2_5HashTILm64EEES7_RS5_EEEUt0_ESaISA_EEEEONSt16remove_referenceIT_E4typeEOSF_
FN:97,98,_ZSt4moveIRPFbPKN7doctest6detail8TestCaseES4_EEONSt16remove_referenceIT_E4typeEOS9_
FN:97,98,_ZSt4moveIRPKN7doctest12TestCaseDataEEONSt16remove_referenceIT_E4typeEOS6_
FN:97,98,_ZSt4moveIRPKN7doctest6detail8TestCaseEEONSt16remove_referenceIT_E4typeEOS7_
FN:97,98,_ZSt4moveIRPN6merkle5TreeTILm32EXadL_ZNS0_L14sha256_opensslERKNS0_5HashTILm32EEES5_RS3_EEE4NodeEEONSt16remove_referenceIT_E4typeEOSC_
FN:97,98,_ZSt4moveIRPN6merkle5TreeTILm32EXadL_ZNS0_L15sha256_compressERKNS0_5HashTILm32EEES5_RS3_EEE4NodeEEONSt16remove_referenceIT_E4typeEOSC_
FN:97,98,_ZSt4moveIRPN6merkle5TreeTILm48EXadL_ZNS0_L14sha384_opensslERKNS0_5HashTILm48EEES5_RS3_EEE4NodeEEONSt16remove_referenceIT_E4typeEOSC_
FN:97,98,_ZSt4moveIRPN6merkle5TreeTILm64EXadL_ZNS0_L14sha512_opensslERKNS0_5HashTILm64EEES5_RS3_EEE4NodeEEONSt16remove_referenceIT_E4typeEOSC_
FN:97,98,_ZSt4moveIRPN7doctest13IContextScopeEEONSt16remove_referenceIT_E4typeEOS5_
FN:97,98,_ZSt4moveIRPN7doctest16SubcaseSignatureEEONSt16remove_referenceIT_E4typeEOS5_
FN:97,98,_ZSt4moveIRPN7doctest9IReporterEEONSt16remove_referenceIT_E4typeEOS5_
FN:97,98,_ZSt4moveIRSaIcEEONSt16remove_referenceIT_E4typeEOS3_
FN:97,98,_ZSt4moveIRSt4fposI11__mbstate_tEEONSt16remove_referenceIT_E4typeEOS5_
FN:97,98,_ZSt4moveIRSt4pairIKS0_IiN7doctest6StringEEPFPNS1_9IReporterERKNS1_14ContextOptionsEEEEONSt16remove_referenceIT_E4typeEOSF_
FN:97,98,_ZSt4moveIRhEONSt16remove_referenceIT_E4typeEOS2_
FN:97,98,_ZSt4moveIRmEONSt16remove_referenceIT_E4typeEOS2_
FN:97,98,_ZSt4moveIRyEONSt16remove_referenceIT_E4typeEOS2_
FNDA:0,_ZSt9addressofINSt8__detail10_Hash_nodeIyLb0EEEEPT_RS3_
FNDA:0,_ZSt9addressofIPNSt8__detail15_Hash_node_baseEEPT_RS3_
FNDA:0,_ZSt4swapIPKN7doctest6detail8TestCaseEENSt9enable_ifIXsrSt6__and_IJSt6__not_ISt15__is_tuple_likeIT_EESt21is_move_constructibleIS9_ESt18is_move_assignableIS9_EEE5valueEvE4typeERS9_SJ_
FNDA:2216,_ZSt4swapImENSt9enable_ifIXsrSt6__and_IJSt6__not_ISt15__is_tuple_likeIT_EESt21is_move_constructibleIS4_ESt18is_move_assignableIS4_EEE5valueEvE4typeERS4_SE_
FNDA:4,_ZSt11__addressofIKZN6merkle5TreeTILm32EXadL_ZNS0_L14sha256_opensslERKNS0_5HashTILm32EEES5_RS3_EEE4pathEmEUlPNS7_4NodeEbE_EPT_RSC_
FNDA:384165,_ZSt11__addressofIKZN6merkle5TreeTILm32EXadL_ZNS0_L15sha256_compressERKNS0_5HashTILm32EEES5_RS3_EEE10retract_toEmEUlRPNS7_4NodeEbE_EPT_RSD_
FNDA:16864,_ZSt11__addressofIKZN6merkle5TreeTILm32EXadL_ZNS0_L15sha256_compressERKNS0_5HashTILm32EEES5_RS3_EEE15serialised_sizeEmmEUlRPNS7_4NodeEbE_EPT_RSD_
FNDA:16688,_ZSt11__addressofIKZN6merkle5TreeTILm32EXadL_ZNS0_L15sha256_compressERKNS0_5HashTILm32EEES5_RS3_EEE15serialised_sizeEvEUlRPNS7_4NodeEbE_EPT_RSD_
FNDA:498103,_ZSt11__addressofIKZN6merkle5TreeTILm32EXadL_ZNS0_L15sha256_compressERKNS0_5HashTILm32EEES5_RS3_EEE4pathEmEUlPNS7_4NodeEbE_EPT_RSC_
FNDA:1612664,_ZSt11__addressofIKZN6merkle5TreeTILm32EXadL_ZNS0_L15sha256_compressERKNS0_5HashTILm32EEES5_RS3_EEE8flush_toEmEUlRPNS7_4NodeEbE_EPT_RSD_
FNDA:637,_ZSt11__addressofIKZN6merkle5TreeTILm32EXadL_ZNS0_L15sha256_compressERKNS0_5HashTILm32EEES5_RS3_EEE9serialiseERSt6vectorIhSaIhEEEUlRPNS7_4NodeEbE_EPT_RSH_
FNDA:16864,_ZSt11__addressofIKZN6merkle5TreeTILm32EXadL_ZNS0_L15sha256_compressERKNS0_5HashTILm32EEES5_RS3_EEE9serialiseEmmRSt6vectorIhSaIhEEEUlRPNS7_4NodeEbE_EPT_RSH_
FNDA:2,_ZSt11__addressofIKZN6merkle5TreeTILm48EXadL_ZNS0_L14sha384_opensslERKNS0_5HashTILm48EEES5_RS3_EEE10retract_toEmEUlRPNS7_4NodeEbE_EPT_RSD_
FNDA:387,_ZSt11__addressofIKZN6merkle5TreeTILm48EXadL_ZNS0_L14sha384_opensslERKNS0_5HashTILm48EEES5_RS3_EEE4pathEmEUlPNS7_4NodeEbE_EPT_RSC_
FNDA:1,_ZSt11__addressofIKZN6merkle5TreeTILm48EXadL_ZNS0_L14sha384_opensslERKNS0_5HashTILm48EEES5_RS3_EEE8flush_toEmEUlRPNS7_4NodeEbE_EPT_RSD_
FNDA:1,_ZSt11__addressofIKZN6merkle5TreeTILm48EXadL_ZNS0_L14sha384_opensslERKNS0_5HashTILm48EEES5_RS3_EEE9serialiseERSt6vectorIhSaIhEEEUlRPNS7_4NodeEbE_EPT_RSH_
FNDA:2,_ZSt11__addressofIKZN6merkle5TreeTILm64EXadL_ZNS0_L14sha512_opensslERKNS0_5HashTILm64EEES5_RS3_EEE10retract_toEmEUlRPNS7_4NodeEbE_EPT_RSD_
FNDA:387,_ZSt11__addressofIKZN6merkle5TreeTILm64EXadL_ZNS0_L14sha512_opensslERKNS0_5HashTILm64EEES5_RS3_EEE4pathEmEUlPNS7_4NodeEbE_EPT_RSC_
FNDA:1,_ZSt11__addressofIKZN6merkle5TreeTILm64EXadL_ZNS0_L14sha512_opensslERKNS0_5HashTILm64EEES5_RS3_EEE8flush_toEmEUlRPNS7_4NodeEbE_EPT_RSD_
FNDA:1,_ZSt11__addressofIKZN6merkle5TreeTILm64EXadL_ZNS0_L14sha512_opensslERKNS0_5HashTILm64EEES5_RS3_EEE9serialiseERSt6vectorIhSaIhEEEUlRPNS7_4NodeEbE_EPT_RSH_
FNDA:74032128,_ZSt11__addressofIN6merkle5HashTILm32EEEEPT_RS3_
FNDA:1573041,_ZSt11__addressofIN6merkle5HashTILm48EEEEPT_RS3_
FNDA:1573041,_ZSt11__addressofIN6merkle5HashTILm64EEEEPT_RS3_
FNDA:0,_ZSt11__addressofIN7doctest12_GLOBAL__N_113JUnitReporter17JUnitTestCaseData13JUnitTestCaseEEPT_RS5_
FNDA:0,_ZSt11__addressofIN7doctest12_GLOBAL__N_113JUnitReporter17JUnitTestCaseData16JUnitTestMessageEEPT_RS5_
FNDA:0,_ZSt11__addressofIN7doctest16SubcaseSignatureEEPT_RS2_
FNDA:1,_ZSt11__addressofIN7doctest6StringEEPT_RS2_
FNDA:0,_ZSt11__addressofINSt7__cxx1112basic_stringIcSt11char_traitsIcESaIcEEEEPT_RS6_
FNDA:0,_ZSt11__addressofINSt8__detail10_Hash_nodeIyLb0EEEEPT_RS3_
FNDA:20396,_ZSt11__addressofIPN6merkle5TreeTILm32EXadL_ZNS0_L15sha256_compressERKNS0_5HashTILm32EEES5_RS3_EEE4NodeEEPT_RSA_
FNDA:0,_ZSt11__addressofIPN6merkle5TreeTILm48EXadL_ZNS0_L14sha384_opensslERKNS0_5HashTILm48EEES5_RS3_EEE4NodeEEPT_RSA_
FNDA:0,_ZSt11__addressofIPN6merkle5TreeTILm64EXadL_ZNS0_L14sha512_opensslERKNS0_5HashTILm64EEES5_RS3_EEE4NodeEEPT_RSA_
FNDA:0,_ZSt11__addressofIPNSt8__detail15_Hash_node_baseEEPT_RS3_
FNDA:4,_ZSt11__addressofISaISt10_List_nodeIN6merkle5PathTILm32EXadL_ZNS1_L14sha256_opensslERKNS1_5HashTILm32EEES6_RS4_EEEUt0_EEEEPT_RSC_
FNDA:614222,_ZSt11__addressofISaISt10_List_nodeIN6merkle5PathTILm32EXadL_ZNS1_L15sha256_compressERKNS1_5HashTILm32EEES6_RS4_EEEUt0_EEEEPT_RSC_
FNDA:390,_ZSt11__addressofISaISt10_List_nodeIN6merkle5PathTILm48EXadL_ZNS1_L14sha384_opensslERKNS1_5HashTILm48EEES6_RS4_EEEUt0_EEEEPT_RSC_
FNDA:390,_ZSt11__addressofISaISt10_List_nodeIN6merkle5PathTILm64EXadL_ZNS1_L14sha512_opensslERKNS1_5HashTILm64EEES6_RS4_EEEUt0_EEEEPT_RSC_
FNDA:102718,_ZSt11__addressofISaISt23_Sp_counted_ptr_inplaceIN6merkle5HashTILm32EEESaIvELN9__gnu_cxx12_Lock_policyE2EEEEPT_RS9_
FNDA:144,_ZSt11__addressofISaISt23_Sp_counted_ptr_inplaceIN6merkle5HashTILm48EEESaIvELN9__gnu_cxx12_Lock_policyE2EEEEPT_RS9_
FNDA:144,_ZSt11__addressofISaISt23_Sp_counted_ptr_inplaceIN6merkle5HashTILm64EEESaIvELN9__gnu_cxx12_Lock_policyE2EEEEPT_RS9_
FNDA:4,_ZSt11__addressofISaISt23_Sp_counted_ptr_inplaceIN6merkle5PathTILm32EXadL_ZNS1_L14sha256_opensslERKNS1_5HashTILm32EEES6_RS4_EEEESaIvELN9__gnu_cxx12_Lock_policyE2EEEEPT_RSE_
FNDA:95982,_ZSt11__addressofISaISt23_Sp_counted_ptr_inplaceIN6merkle5PathTILm32EXadL_ZNS1_L15sha256_compressERKNS1_5HashTILm32EEES6_RS4_EEEESaIvELN9__gnu_cxx12_Lock_policyE2EEEEPT_RSE_
FNDA:144,_ZSt11__addressofISaISt23_Sp_counted_ptr_inplaceIN6merkle5PathTILm48EXadL_ZNS1_L14sha384_opensslERKNS1_5HashTILm48EEES6_RS4_EEEESaIvELN9__gnu_cxx12_Lock_policyE2EEEEPT_RSE_
FNDA:144,_ZSt11__addressofISaISt23_Sp_counted_ptr_inplaceIN6merkle5PathTILm64EXadL_ZNS1_L14sha512_opensslERKNS1_5HashTILm64EEES6_RS4_EEEESaIvELN9__gnu_cxx12_Lock_policyE2EEEEPT_RSE_
FNDA:0,_ZSt11__addressofISt4fposI11__mbstate_tEEPT_RS3_
FNDA:18,_ZSt11__addressofISt6vectorIN7doctest6StringESaIS2_EEEPT_RS5_
FNDA:49354752,_ZSt7forwardIN6merkle5HashTILm32EEEEOT_RNSt16remove_referenceIS3_E4typeE
FNDA:1048694,_ZSt7forwardIN6merkle5HashTILm48EEEEOT_RNSt16remove_referenceIS3_E4typeE
FNDA:1048694,_ZSt7forwardIN6merkle5HashTILm64EEEEOT_RNSt16remove_referenceIS3_E4typeE
FNDA:16,_ZSt7forwardIN6merkle5PathTILm32EXadL_ZNS0_L14sha256_opensslERKNS0_5HashTILm32EEES5_RS3_EEEUt0_EEOT_RNSt16remove_referenceIS9_E4typeE
FNDA:2456888,_ZSt7forwardIN6merkle5PathTILm32EXadL_ZNS0_L15sha256_compressERKNS0_5HashTILm32EEES5_RS3_EEEUt0_EEOT_RNSt16remove_referenceIS9_E4typeE
FNDA:1560,_ZSt7forwardIN6merkle5PathTILm48EXadL_ZNS0_L14sha384_opensslERKNS0_5HashTILm48EEES5_RS3_EEEUt0_EEOT_RNSt16remove_referenceIS9_E4typeE
FNDA:1560,_ZSt7forwardIN6merkle5PathTILm64EXadL_ZNS0_L14sha512_opensslERKNS0_5HashTILm64EEES5_RS3_EEEUt0_EEOT_RNSt16remove_referenceIS9_E4typeE
FNDA:1984488,_ZSt7forwardIN6merkle5TreeTILm32EXadL_ZNS0_L14sha256_opensslERKNS0_5HashTILm32EEES5_RS3_EEEUt_EEOT_RNSt16remove_referenceIS9_E4typeE
FNDA:76009942,_ZSt7forwardIN6merkle5TreeTILm32EXadL_ZNS0_L15sha256_compressERKNS0_5HashTILm32EEES5_RS3_EEEUt_EEOT_RNSt16remove_referenceIS9_E4typeE
FNDA:3969210,_ZSt7forwardIN6merkle5TreeTILm48EXadL_ZNS0_L14sha384_opensslERKNS0_5HashTILm48EEES5_RS3_EEEUt_EEOT_RNSt16remove_referenceIS9_E4typeE
FNDA:3969210,_ZSt7forwardIN6merkle5TreeTILm64EXadL_ZNS0_L14sha512_opensslERKNS0_5HashTILm64EEES5_RS3_EEEUt_EEOT_RNSt16remove_referenceIS9_E4typeE
FNDA:0,_ZSt7forwardIN7doctest12_GLOBAL__N_113JUnitReporter17JUnitTestCaseData13JUnitTestCaseEEOT_RNSt16remove_referenceIS5_E4typeE
FNDA:0,_ZSt7forwardIN7doctest12_GLOBAL__N_113JUnitReporter17JUnitTestCaseData16JUnitTestMessageEEOT_RNSt16remove_referenceIS5_E4typeE
FNDA:0,_ZSt7forwardIN7doctest16SubcaseSignatureEEOT_RNSt16remove_referenceIS2_E4typeE
FNDA:4,_ZSt7forwardIN7doctest6StringEEOT_RNSt16remove_referenceIS2_E4typeE
FNDA:0,_ZSt7forwardINSt7__cxx1112basic_stringIcSt11char_traitsIcESaIcEEEEOT_RNSt16remove_referenceIS6_E4typeE
FNDA:14,_ZSt7forwardINSt7__cxx114listIN6merkle5PathTILm32EXadL_ZNS2_L14sha256_opensslERKNS2_5HashTILm32EEES7_RS5_EEEUt0_ESaISA_EEEEOT_RNSt16remove_referenceISD_E4typeE
FNDA:335937,_ZSt7forwardINSt7__cxx114listIN6merkle5PathTILm32EXadL_ZNS2_L15sha256_compressERKNS2_5HashTILm32EEES7_RS5_EEEUt0_ESaISA_EEEEOT_RNSt16remove_referenceISD_E4typeE
FNDA:504,_ZSt7forwardINSt7__cxx114listIN6merkle5PathTILm48EXadL_ZNS2_L14sha384_opensslERKNS2_5HashTILm48EEES7_RS5_EEEUt0_ESaISA_EEEEOT_RNSt16remove_referenceISD_E4typeE
FNDA:504,_ZSt7forwardINSt7__cxx114listIN6merkle5PathTILm64EXadL_ZNS2_L14sha512_opensslERKNS2_5HashTILm64EEES7_RS5_EEEUt0_ESaISA_EEEEOT_RNSt16remove_referenceISD_E4typeE
FNDA:0,_ZSt7forwardINSt8__detail14_Node_iteratorIyLb1ELb0EEEEOT_RNSt16remove_referenceIS3_E4typeE
FNDA:0,_ZSt7forwardIPKN7doctest12TestCaseDataEEOT_RNSt16remove_referenceIS4_E4typeE
FNDA:41,_ZSt7forwardIPKN7doctest6detail8TestCaseEEOT_RNSt16remove_referenceIS5_E4typeE
FNDA:786524,_ZSt7forwardIPN6merkle5TreeTILm32EXadL_ZNS0_L14sha256_opensslERKNS0_5HashTILm32EEES5_RS3_EEE4NodeEEOT_RNSt16remove_referenceISA_E4typeE
FNDA:72946406,_ZSt7forwardIPN6merkle5TreeTILm32EXadL_ZNS0_L15sha256_compressERKNS0_5HashTILm32EEES5_RS3_EEE4NodeEEOT_RNSt16remove_referenceISA_E4typeE
FNDA:1573119,_ZSt7forwardIPN6merkle5TreeTILm48EXadL_ZNS0_L14sha384_opensslERKNS0_5HashTILm48EEES5_RS3_EEE4NodeEEOT_RNSt16remove_referenceISA_E4typeE
FNDA:1573119,_ZSt7forwardIPN6merkle5TreeTILm64EXadL_ZNS0_L14sha512_opensslERKNS0_5HashTILm64EEES5_RS3_EEE4NodeEEOT_RNSt16remove_referenceISA_E4typeE
FNDA:0,_ZSt7forwardIPN7doctest13IContextScopeEEOT_RNSt16remove_referenceIS3_E4typeE
FNDA:4,_ZSt7forwardIPN7doctest9IReporterEEOT_RNSt16remove_referenceIS3_E4typeE
FNDA:38048672,_ZSt7forwardIRKN6merkle5HashTILm32EEEEOT_RNSt16remove_referenceIS5_E4typeE
FNDA:1049791,_ZSt7forwardIRKN6merkle5HashTILm48EEEEOT_RNSt16remove_referenceIS5_E4typeE
FNDA:1049791,_ZSt7forwardIRKN6merkle5HashTILm64EEEEOT_RNSt16remove_referenceIS5_E4typeE
FNDA:0,_ZSt7forwardIRKN7doctest16SubcaseSignatureEEOT_RNSt16remove_referenceIS4_E4typeE
FNDA:0,_ZSt7forwardIRKN7doctest6StringEEOT_RNSt16remove_referenceIS4_E4typeE
FNDA:84,_ZSt7forwardIRKN7doctest6detail8TestCaseEEOT_RNSt16remove_referenceIS5_E4typeE
FNDA:0,_ZSt7forwardIRKNSt7__cxx1112basic_stringIcSt11char_traitsIcESaIcEEEEOT_RNSt16remove_referenceIS8_E4typeE
FNDA:0,_ZSt7forwardIRKPKN7doctest6detail20IExceptionTranslatorEEOT_RNSt16remove_referenceIS7_E4typeE
FNDA:1069182,_ZSt7forwardIRKPN6merkle5TreeTILm32EXadL_ZNS0_L14sha256_opensslERKNS0_5HashTILm32EEES5_RS3_EEE4NodeEEOT_RNSt16remove_referenceISC_E4typeE
FNDA:77178721,_ZSt7forwardIRKPN6merkle5TreeTILm32EXadL_ZNS0_L15sha256_compressERKNS0_5HashTILm32EEES5_RS3_EEE4NodeEEOT_RNSt16remove_referenceISC_E4typeE
FNDA:2138480,_ZSt7forwardIRKPN6merkle5TreeTILm48EXadL_ZNS0_L14sha384_opensslERKNS0_5HashTILm48EEES5_RS3_EEE4NodeEEOT_RNSt16remove_referenceISC_E4typeE
FNDA:2138480,_ZSt7forwardIRKPN6merkle5TreeTILm64EXadL_ZNS0_L14sha512_opensslERKNS0_5HashTILm64EEES5_RS3_EEE4NodeEEOT_RNSt16remove_referenceISC_E4typeE
FNDA:189792,_ZSt7forwardIRKSt21piecewise_construct_tEOT_RNSt16remove_referenceIS3_E4typeE
FNDA:0,_ZSt7forwardIRKZN6merkle5TreeTILm32EXadL_ZNS0_L14sha256_opensslERKNS0_5HashTILm32EEES5_RS3_EEE4pathEmEUlPNS7_4NodeEbE_EOT_RNSt16remove_referenceISD_E4typeE
FNDA:0,_ZSt7forwardIRKZN6merkle5TreeTILm32EXadL_ZNS0_L15sha256_compressERKNS0_5HashTILm32EEES5_RS3_EEE10retract_toEmEUlRPNS7_4NodeEbE_EOT_RNSt16remove_referenceISE_E4typeE
FNDA:0,_ZSt7forwardIRKZN6merkle5TreeTILm32EXadL_ZNS0_L15sha256_compressERKNS0_5HashTILm32EEES5_RS3_EEE15serialised_sizeEmmEUlRPNS7_4NodeEbE_EOT_RNSt16remove_referenceISE_E4typeE
FNDA:0,_ZSt7forwardIRKZN6merkle5TreeTILm32EXadL_ZNS0_L15sha256_compressERKNS0_5HashTILm32EEES5_RS3_EEE15serialised_sizeEvEUlRPNS7_4NodeEbE_EOT_RNSt16remove_referenceISE_E4typeE
FNDA:0,_ZSt7forwardIRKZN6merkle5TreeTILm32EXadL_ZNS0_L15sha256_compressERKNS0_5HashTILm32EEES5_RS3_EEE4pathEmEUlPNS7_4NodeEbE_EOT_RNSt16remove_referenceISD_E4typeE
FNDA:0,_ZSt7forwardIRKZN6merkle5TreeTILm32EXadL_ZNS0_L15sha256_compressERKNS0_5HashTILm32EEES5_RS3_EEE8flush_toEmEUlRPNS7_4NodeEbE_EOT_RNSt16remove_referenceISE_E4typeE
FNDA:0,_ZSt7forwardIRKZN6merkle5TreeTILm32EXadL_ZNS0_L15sha256_compressERKNS0_5HashTILm32EEES5_RS3_EEE9serialiseERSt6vectorIhSaIhEEEUlRPNS7_4NodeEbE_EOT_RNSt16remove_referenceISI_E4typeE
FNDA:0,_ZSt7forwardIRKZN6merkle5TreeTILm32EXadL_ZNS0_L15sha256_compressERKNS0_5HashTILm32EEES5_RS3_EEE9serialiseEmmRSt6vectorIhSaIhEEEUlRPNS7_4NodeEbE_EOT_RNSt16remove_referenceISI_E4typeE
FNDA:0,_ZSt7forwardIRKZN6merkle5TreeTILm48EXadL_ZNS0_L14sha384_opensslERKNS0_5HashTILm48EEES5_RS3_EEE10retract_toEmEUlRPNS7_4NodeEbE_EOT_RNSt16remove_referenceISE_E4typeE
FNDA:0,_ZSt7forwardIRKZN6merkle5TreeTILm48EXadL_ZNS0_L14sha384_opensslERKNS0_5HashTILm48EEES5_RS3_EEE4pathEmEUlPNS7_4NodeEbE_EOT_RNSt16remove_referenceISD_E4typeE
FNDA:0,_ZSt7forwardIRKZN6merkle5TreeTILm48EXadL_ZNS0_L14sha384_opensslERKNS0_5HashTILm48EEES5_RS3_EEE8flush_toEmEUlRPNS7_4NodeEbE_EOT_RNSt16remove_referenceISE_E4typeE
FNDA:0,_ZSt7forwardIRKZN6merkle5TreeTILm48EXadL_ZNS0_L14sha384_opensslERKNS0_5HashTILm48EEES5_RS3_EEE9serialiseERSt6vectorIhSaIhEEEUlRPNS7_4NodeEbE_EOT_RNSt16remove_referenceISI_E4typeE
FNDA:0,_ZSt7forwardIRKZN6merkle5TreeTILm64EXadL_ZNS0_L14sha512_opensslERKNS0_5HashTILm64EEES5_RS3_EEE10retract_toEmEUlRPNS7_4NodeEbE_EOT_RNSt16remove_referenceISE_E4typeE
FNDA:0,_ZSt7forwardIRKZN6merkle5TreeTILm64EXadL_ZNS0_L14sha512_opensslERKNS0_5HashTILm64EEES5_RS3_EEE4pathEmEUlPNS7_4NodeEbE_EOT_RNSt16remove_referenceISD_E4typeE
FNDA:0,_ZSt7forwardIRKZN6merkle5TreeTILm64EXadL_ZNS0_L14sha512_opensslERKNS0_5HashTILm64EEES5_RS3_EEE8flush_toEmEUlRPNS7_4NodeEbE_EOT_RNSt16remove_referenceISE_E4typeE
FNDA:0,_ZSt7forwardIRKZN6merkle5TreeTILm64EXadL_ZNS0_L14sha512_opensslERKNS0_5HashTILm64EEES5_RS3_EEE9serialiseERSt6vectorIhSaIhEEEUlRPNS7_4NodeEbE_EOT_RNSt16remove_referenceISI_E4typeE
FNDA:4241052,_ZSt7forwardIRKhEOT_RNSt16remove_referenceIS2_E4typeE
FNDA:31632,_ZSt7forwardIRKmEOT_RNSt16remove_referenceIS2_E4typeE
FNDA:0,_ZSt7forwardIRKyEOT_RNSt16remove_referenceIS2_E4typeE
FNDA:0,_ZSt7forwardIRN7doctest16SubcaseSignatureEEOT_RNSt16remove_referenceIS3_E4typeE
FNDA:0,_ZSt7forwardIRNSt8__detail14_Node_iteratorIyLb1ELb0EEEEOT_RNSt16remove_referenceIS4_E4typeE
FNDA:3,_ZSt7forwardIRPFPN7doctest9IReporterERKNS0_14ContextOptionsEEEOT_RNSt16remove_referenceIS9_E4typeE
FNDA:3,_ZSt7forwardIRPKcEOT_RNSt16remove_referenceIS3_E4typeE
FNDA:16,_ZSt7forwardIRPN6merkle5TreeTILm32EXadL_ZNS0_L14sha256_opensslERKNS0_5HashTILm32EEES5_RS3_EEE4NodeEEOT_RNSt16remove_referenceISB_E4typeE
FNDA:10183940,_ZSt7forwardIRPN6merkle5TreeTILm32EXadL_ZNS0_L15sha256_compressERKNS0_5HashTILm32EEES5_RS3_EEE4NodeEEOT_RNSt16remove_referenceISB_E4typeE
FNDA:1564,_ZSt7forwardIRPN6merkle5TreeTILm48EXadL_ZNS0_L14sha384_opensslERKNS0_5HashTILm48EEES5_RS3_EEE4NodeEEOT_RNSt16remove_referenceISB_E4typeE
FNDA:1564,_ZSt7forwardIRPN6merkle5TreeTILm64EXadL_ZNS0_L14sha512_opensslERKNS0_5HashTILm64EEES5_RS3_EEE4NodeEEOT_RNSt16remove_referenceISB_E4typeE
FNDA:0,_ZSt7forwardIRPSt13_Rb_tree_nodeIN7doctest6StringEEEOT_RNSt16remove_referenceIS6_E4typeE
FNDA:12,_ZSt7forwardIRPSt13_Rb_tree_nodeIN7doctest6detail8TestCaseEEEOT_RNSt16remove_referenceIS7_E4typeE
FNDA:3,_ZSt7forwardIRPSt13_Rb_tree_nodeISt4pairIKS1_IiN7doctest6StringEEPFPNS2_9IReporterERKNS2_14ContextOptionsEEEEEOT_RNSt16remove_referenceISH_E4typeE
FNDA:254,_ZSt7forwardIRPSt13_Rb_tree_nodeISt4pairIKmN6merkle5HashTILm32EEEEEEOT_RNSt16remove_referenceISA_E4typeE
FNDA:269,_ZSt7forwardIRPSt18_Rb_tree_node_baseEOT_RNSt16remove_referenceIS3_E4typeE
FNDA:0,_ZSt7forwardIRSt17_Rb_tree_iteratorIN7doctest6StringEEEOT_RNSt16remove_referenceIS5_E4typeE
FNDA:12,_ZSt7forwardIRSt17_Rb_tree_iteratorIN7doctest6detail8TestCaseEEEOT_RNSt16remove_referenceIS6_E4typeE
FNDA:8,_ZSt7forwardIRZN6merkle5TreeTILm32EXadL_ZNS0_L14sha256_opensslERKNS0_5HashTILm32EEES5_RS3_EEE4pathEmEUlPNS7_4NodeEbE_EOT_RNSt16remove_referenceISC_E4typeE
FNDA:768330,_ZSt7forwardIRZN6merkle5TreeTILm32EXadL_ZNS0_L15sha256_compressERKNS0_5HashTILm32EEES5_RS3_EEE10retract_toEmEUlRPNS7_4NodeEbE_EOT_RNSt16remove_referenceISD_E4typeE
FNDA:33728,_ZSt7forwardIRZN6merkle5TreeTILm32EXadL_ZNS0_L15sha256_compressERKNS0_5HashTILm32EEES5_RS3_EEE15serialised_sizeEmmEUlRPNS7_4NodeEbE_EOT_RNSt16remove_referenceISD_E4typeE
FNDA:33376,_ZSt7forwardIRZN6merkle5TreeTILm32EXadL_ZNS0_L15sha256_compressERKNS0_5HashTILm32EEES5_RS3_EEE15serialised_sizeEvEUlRPNS7_4NodeEbE_EOT_RNSt16remove_referenceISD_E4typeE
FNDA:996206,_ZSt7forwardIRZN6merkle5TreeTILm32EXadL_ZNS0_L15sha256_compressERKNS0_5HashTILm32EEES5_RS3_EEE4pathEmEUlPNS7_4NodeEbE_EOT_RNSt16remove_referenceISC_E4typeE
FNDA:3225328,_ZSt7forwardIRZN6merkle5TreeTILm32EXadL_ZNS0_L15sha256_compressERKNS0_5HashTILm32EEES5_RS3_EEE8flush_toEmEUlRPNS7_4NodeEbE_EOT_RNSt16remove_referenceISD_E4typeE
FNDA:1274,_ZSt7forwardIRZN6merkle5TreeTILm32EXadL_ZNS0_L15sha256_compressERKNS0_5HashTILm32EEES5_RS3_EEE9serialiseERSt6vectorIhSaIhEEEUlRPNS7_4NodeEbE_EOT_RNSt16remove_referenceISH_E4typeE
FNDA:33728,_ZSt7forwardIRZN6merkle5TreeTILm32EXadL_ZNS0_L15sha256_compressERKNS0_5HashTILm32EEES5_RS3_EEE9serialiseEmmRSt6vectorIhSaIhEEEUlRPNS7_4NodeEbE_EOT_RNSt16remove_referenceISH_E4typeE
FNDA:4,_ZSt7forwardIRZN6merkle5TreeTILm48EXadL_ZNS0_L14sha384_opensslERKNS0_5HashTILm48EEES5_RS3_EEE10retract_toEmEUlRPNS7_4NodeEbE_EOT_RNSt16remove_referenceISD_E4typeE
FNDA:774,_ZSt7forwardIRZN6merkle5TreeTILm48EXadL_ZNS0_L14sha384_opensslERKNS0_5HashTILm48EEES5_RS3_EEE4pathEmEUlPNS7_4NodeEbE_EOT_RNSt16remove_referenceISC_E4typeE
FNDA:2,_ZSt7forwardIRZN6merkle5TreeTILm48EXadL_ZNS0_L14sha384_opensslERKNS0_5HashTILm48EEES5_RS3_EEE8flush_toEmEUlRPNS7_4NodeEbE_EOT_RNSt16remove_referenceISD_E4typeE
FNDA:2,_ZSt7forwardIRZN6merkle5TreeTILm48EXadL_ZNS0_L14sha384_opensslERKNS0_5HashTILm48EEES5_RS3_EEE9serialiseERSt6vectorIhSaIhEEEUlRPNS7_4NodeEbE_EOT_RNSt16remove_referenceISH_E4typeE
FNDA:4,_ZSt7forwardIRZN6merkle5TreeTILm64EXadL_ZNS0_L14sha512_opensslERKNS0_5HashTILm64EEES5_RS3_EEE10retract_toEmEUlRPNS7_4NodeEbE_EOT_RNSt16remove_referenceISD_E4typeE
FNDA:774,_ZSt7forwardIRZN6merkle5TreeTILm64EXadL_ZNS0_L14sha512_opensslERKNS0_5HashTILm64EEES5_RS3_EEE4pathEmEUlPNS7_4NodeEbE_EOT_RNSt16remove_referenceISC_E4typeE
FNDA:2,_ZSt7forwardIRZN6merkle5TreeTILm64EXadL_ZNS0_L14sha512_opensslERKNS0_5HashTILm64EEES5_RS3_EEE8flush_toEmEUlRPNS7_4NodeEbE_EOT_RNSt16remove_referenceISD_E4typeE
FNDA:2,_ZSt7forwardIRZN6merkle5TreeTILm64EXadL_ZNS0_L14sha512_opensslERKNS0_5HashTILm64EEES5_RS3_EEE9serialiseERSt6vectorIhSaIhEEEUlRPNS7_4NodeEbE_EOT_RNSt16remove_referenceISH_E4typeE
FNDA:12,_ZSt7forwardIRbEOT_RNSt16remove_referenceIS1_E4typeE
FNDA:3,_ZSt7forwardIRiEOT_RNSt16remove_referenceIS1_E4typeE
FNDA:369887,_ZSt7forwardIRmEOT_RNSt16remove_referenceIS1_E4typeE
FNDA:0,_ZSt7forwardISt17_Rb_tree_iteratorIN7doctest6StringEEEOT_RNSt16remove_referenceIS4_E4typeE
FNDA:12,_ZSt7forwardISt17_Rb_tree_iteratorIN7doctest6detail8TestCaseEEEOT_RNSt16remove_referenceIS5_E4typeE
FNDA:3,_ZSt7forwardISt17_Rb_tree_iteratorISt4pairIKS1_IiN7doctest6StringEEPFPNS2_9IReporterERKNS2_14ContextOptionsEEEEEOT_RNSt16remove_referenceISF_E4typeE
FNDA:0,_ZSt7forwardISt4fposI11__mbstate_tEEOT_RNSt16remove_referenceIS3_E4typeE
FNDA:21,_ZSt7forwardISt4pairIKS0_IiN7doctest6StringEEPFPNS1_9IReporterERKNS1_14ContextOptionsEEEEOT_RNSt16remove_referenceISD_E4typeE
FNDA:3,_ZSt7forwardISt4pairIiN7doctest6StringEEEOT_RNSt16remove_referenceIS4_E4typeE
FNDA:189792,_ZSt7forwardISt5tupleIJEEEOT_RNSt16remove_referenceIS2_E4typeE
FNDA:189792,_ZSt7forwardISt5tupleIJRKmEEEOT_RNSt16remove_referenceIS4_E4typeE
FNDA:6,_ZSt7forwardIZN6merkle5TreeTILm32EXadL_ZNS0_L14sha256_opensslERKNS0_5HashTILm32EEES5_RS3_EEE4pathEmEUlPNS7_4NodeEbE_EOT_RNSt16remove_referenceISB_E4typeE
FNDA:129150,_ZSt7forwardIZN6merkle5TreeTILm32EXadL_ZNS0_L15sha256_compressERKNS0_5HashTILm32EEES5_RS3_EEE10retract_toEmEUlRPNS7_4NodeEbE_EOT_RNSt16remove_referenceISC_E4typeE
FNDA:6024,_ZSt7forwardIZN6merkle5TreeTILm32EXadL_ZNS0_L15sha256_compressERKNS0_5HashTILm32EEES5_RS3_EEE15serialised_sizeEmmEUlRPNS7_4NodeEbE_EOT_RNSt16remove_referenceISC_E4typeE
FNDA:6408,_ZSt7forwardIZN6merkle5TreeTILm32EXadL_ZNS0_L15sha256_compressERKNS0_5HashTILm32EEES5_RS3_EEE15serialised_sizeEvEUlRPNS7_4NodeEbE_EOT_RNSt16remove_referenceISC_E4typeE
FNDA:129888,_ZSt7forwardIZN6merkle5TreeTILm32EXadL_ZNS0_L15sha256_compressERKNS0_5HashTILm32EEES5_RS3_EEE4pathEmEUlPNS7_4NodeEbE_EOT_RNSt16remove_referenceISB_E4typeE
FNDA:510417,_ZSt7forwardIZN6merkle5TreeTILm32EXadL_ZNS0_L15sha256_compressERKNS0_5HashTILm32EEES5_RS3_EEE8flush_toEmEUlRPNS7_4NodeEbE_EOT_RNSt16remove_referenceISC_E4typeE
FNDA:207,_ZSt7forwardIZN6merkle5TreeTILm32EXadL_ZNS0_L15sha256_compressERKNS0_5HashTILm32EEES5_RS3_EEE9serialiseERSt6vectorIhSaIhEEEUlRPNS7_4NodeEbE_EOT_RNSt16remove_referenceISG_E4typeE
FNDA:6024,_ZSt7forwardIZN6merkle5TreeTILm32EXadL_ZNS0_L15sha256_compressERKNS0_5HashTILm32EEES5_RS3_EEE9serialiseEmmRSt6vectorIhSaIhEEEUlRPNS7_4NodeEbE_EOT_RNSt16remove_referenceISG_E4typeE
FNDA:9,_ZSt7forwardIZN6merkle5TreeTILm48EXadL_ZNS0_L14sha384_opensslERKNS0_5HashTILm48EEES5_RS3_EEE10retract_toEmEUlRPNS7_4NodeEbE_EOT_RNSt16remove_referenceISC_E4typeE
FNDA:216,_ZSt7forwardIZN6merkle5TreeTILm48EXadL_ZNS0_L14sha384_opensslERKNS0_5HashTILm48EEES5_RS3_EEE4pathEmEUlPNS7_4NodeEbE_EOT_RNSt16remove_referenceISB_E4typeE
FNDA:6,_ZSt7forwardIZN6merkle5TreeTILm48EXadL_ZNS0_L14sha384_opensslERKNS0_5HashTILm48EEES5_RS3_EEE8flush_toEmEUlRPNS7_4NodeEbE_EOT_RNSt16remove_referenceISC_E4typeE
FNDA:6,_ZSt7forwardIZN6merkle5TreeTILm48EXadL_ZNS0_L14sha384_opensslERKNS0_5HashTILm48EEES5_RS3_EEE9serialiseERSt6vectorIhSaIhEEEUlRPNS7_4NodeEbE_EOT_RNSt16remove_referenceISG_E4typeE
FNDA:9,_ZSt7forwardIZN6merkle5TreeTILm64EXadL_ZNS0_L14sha512_opensslERKNS0_5HashTILm64EEES5_RS3_EEE10retract_toEmEUlRPNS7_4NodeEbE_EOT_RNSt16remove_referenceISC_E4typeE
FNDA:216,_ZSt7forwardIZN6merkle5TreeTILm64EXadL_ZNS0_L14sha512_opensslERKNS0_5HashTILm64EEES5_RS3_EEE4pathEmEUlPNS7_4NodeEbE_EOT_RNSt16remove_referenceISB_E4typeE
FNDA:6,_ZSt7forwardIZN6merkle5TreeTILm64EXadL_ZNS0_L14sha512_opensslERKNS0_5HashTILm64EEES5_RS3_EEE8flush_toEmEUlRPNS7_4NodeEbE_EOT_RNSt16remove_referenceISC_E4typeE
FNDA:6,_ZSt7forwardIZN6merkle5TreeTILm64EXadL_ZNS0_L14sha512_opensslERKNS0_5HashTILm64EEES5_RS3_EEE9serialiseERSt6vectorIhSaIhEEEUlRPNS7_4NodeEbE_EOT_RNSt16remove_referenceISG_E4typeE
FNDA:10187099,_ZSt7forwardIbEOT_RNSt16remove_referenceIS0_E4typeE
FNDA:375962,_ZSt7forwardIhEOT_RNSt16remove_referenceIS0_E4typeE
FNDA:304031,_ZSt7forwardImEOT_RNSt16remove_referenceIS0_E4typeE
FNDA:0,_ZSt7forwardIyEOT_RNSt16remove_referenceIS0_E4typeE
FNDA:24677376,_ZSt4moveIRN6merkle5HashTILm32EEEEONSt16remove_referenceIT_E4typeEOS5_
FNDA:524347,_ZSt4moveIRN6merkle5HashTILm48EEEEONSt16remove_referenceIT_E4typeEOS5_
FNDA:524347,_ZSt4moveIRN6merkle5HashTILm64EEEEONSt16remove_referenceIT_E4typeEOS5_
FNDA:8,_ZSt4moveIRN6merkle5PathTILm32EXadL_ZNS0_L14sha256_opensslERKNS0_5HashTILm32EEES5_RS3_EEEUt0_EEONSt16remove_referenceIT_E4typeEOSB_
FNDA:1228444,_ZSt4moveIRN6merkle5PathTILm32EXadL_ZNS0_L15sha256_compressERKNS0_5HashTILm32EEES5_RS3_EEEUt0_EEONSt16remove_referenceIT_E4typeEOSB_
FNDA:780,_ZSt4moveIRN6merkle5PathTILm48EXadL_ZNS0_L14sha384_opensslERKNS0_5HashTILm48EEES5_RS3_EEEUt0_EEONSt16remove_referenceIT_E4typeEOSB_
FNDA:780,_ZSt4moveIRN6merkle5PathTILm64EXadL_ZNS0_L14sha512_opensslERKNS0_5HashTILm64EEES5_RS3_EEEUt0_EEONSt16remove_referenceIT_E4typeEOSB_
FNDA:661490,_ZSt4moveIRN6merkle5TreeTILm32EXadL_ZNS0_L14sha256_opensslERKNS0_5HashTILm32EEES5_RS3_EEEUt_EEONSt16remove_referenceIT_E4typeEOSB_
FNDA:25335136,_ZSt4moveIRN6merkle5TreeTILm32EXadL_ZNS0_L15sha256_compressERKNS0_5HashTILm32EEES5_RS3_EEEUt_EEONSt16remove_referenceIT_E4typeEOSB_
FNDA:1323060,_ZSt4moveIRN6merkle5TreeTILm48EXadL_ZNS0_L14sha384_opensslERKNS0_5HashTILm48EEES5_RS3_EEEUt_EEONSt16remove_referenceIT_E4typeEOSB_
FNDA:1323060,_ZSt4moveIRN6merkle5TreeTILm64EXadL_ZNS0_L14sha512_opensslERKNS0_5HashTILm64EEES5_RS3_EEEUt_EEONSt16remove_referenceIT_E4typeEOSB_
FNDA:0,_ZSt4moveIRN7doctest12_GLOBAL__N_113JUnitReporter17JUnitTestCaseData13JUnitTestCaseEEONSt16remove_referenceIT_E4typeEOS7_
FNDA:0,_ZSt4moveIRN7doctest12_GLOBAL__N_113JUnitReporter17JUnitTestCaseData16JUnitTestMessageEEONSt16remove_referenceIT_E4typeEOS7_
FNDA:0,_ZSt4moveIRN7doctest16SubcaseSignatureEEONSt16remove_referenceIT_E4typeEOS4_
FNDA:1,_ZSt4moveIRN7doctest6StringEEONSt16remove_referenceIT_E4typeEOS4_
FNDA:11,_ZSt4moveIRN9__gnu_cxx5__ops15_Iter_comp_iterIPFbPKN7doctest6detail8TestCaseES7_EEEEONSt16remove_referenceIT_E4typeEOSD_
FNDA:0,_ZSt4moveIRNSt12_Vector_baseIN7doctest12_GLOBAL__N_113JUnitReporter17JUnitTestCaseData16JUnitTestMessageESaIS5_EE12_Vector_implEEONSt16remove_referenceIT_E4typeEOSB_
FNDA:0,_ZSt4moveIRNSt7__cxx1112basic_stringIcSt11char_traitsIcESaIcEEEEONSt16remove_referenceIT_E4typeEOS8_
FNDA:4,_ZSt4moveIRNSt7__cxx114listIN6merkle5PathTILm32EXadL_ZNS2_L14sha256_opensslERKNS2_5HashTILm32EEES7_RS5_EEEUt0_ESaISA_EEEEONSt16remove_referenceIT_E4typeEOSF_
FNDA:95982,_ZSt4moveIRNSt7__cxx114listIN6merkle5PathTILm32EXadL_ZNS2_L15sha256_compressERKNS2_5HashTILm32EEES7_RS5_EEEUt0_ESaISA_EEEEONSt16remove_referenceIT_E4typeEOSF_
FNDA:144,_ZSt4moveIRNSt7__cxx114listIN6merkle5PathTILm48EXadL_ZNS2_L14sha384_opensslERKNS2_5HashTILm48EEES7_RS5_EEEUt0_ESaISA_EEEEONSt16remove_referenceIT_E4typeEOSF_
FNDA:144,_ZSt4moveIRNSt7__cxx114listIN6merkle5PathTILm64EXadL_ZNS2_L14sha512_opensslERKNS2_5HashTILm64EEES7_RS5_EEEUt0_ESaISA_EEEEONSt16remove_referenceIT_E4typeEOSF_
FNDA:13,_ZSt4moveIRPFbPKN7doctest6detail8TestCaseES4_EEONSt16remove_referenceIT_E4typeEOS9_
FNDA:0,_ZSt4moveIRPKN7doctest12TestCaseDataEEONSt16remove_referenceIT_E4typeEOS6_
FNDA:34,_ZSt4moveIRPKN7doctest6detail8TestCaseEEONSt16remove_referenceIT_E4typeEOS7_
FNDA:262166,_ZSt4moveIRPN6merkle5TreeTILm32EXadL_ZNS0_L14sha256_opensslERKNS0_5HashTILm32EEES5_RS3_EEE4NodeEEONSt16remove_referenceIT_E4typeEOSC_
FNDA:24314825,_ZSt4moveIRPN6merkle5TreeTILm32EXadL_ZNS0_L15sha256_compressERKNS0_5HashTILm32EEES5_RS3_EEE4NodeEEONSt16remove_referenceIT_E4typeEOSC_
FNDA:524359,_ZSt4moveIRPN6merkle5TreeTILm48EXadL_ZNS0_L14sha384_opensslERKNS0_5HashTILm48EEES5_RS3_EEE4NodeEEONSt16remove_referenceIT_E4typeEOSC_
FNDA:524359,_ZSt4moveIRPN6merkle5TreeTILm64EXadL_ZNS0_L14sha512_opensslERKNS0_5HashTILm64EEES5_RS3_EEE4NodeEEONSt16remove_referenceIT_E4typeEOSC_
FNDA:0,_ZSt4moveIRPN7doctest13IContextScopeEEONSt16remove_referenceIT_E4typeEOS5_
FNDA:0,_ZSt4moveIRPN7doctest16SubcaseSignatureEEONSt16remove_referenceIT_E4typeEOS5_
FNDA:1,_ZSt4moveIRPN7doctest9IReporterEEONSt16remove_referenceIT_E4typeEOS5_
FNDA:0,_ZSt4moveIRSaIcEEONSt16remove_referenceIT_E4typeEOS3_
FNDA:0,_ZSt4moveIRSt4fposI11__mbstate_tEEONSt16remove_referenceIT_E4typeEOS5_
FNDA:3,_ZSt4moveIRSt4pairIKS0_IiN7doctest6StringEEPFPNS1_9IReporterERKNS1_14ContextOptionsEEEEONSt16remove_referenceIT_E4typeEOSF_
FNDA:125314,_ZSt4moveIRhEONSt16remove_referenceIT_E4typeEOS2_
FNDA:6648,_ZSt4moveIRmEONSt16remove_referenceIT_E4typeEOS2_
FNDA:0,_ZSt4moveIRyEONSt16remove_referenceIT_E4typeEOS2_
FNF:207
FNH:149
DA:51,80559682
DA:52,80559682
DA:70,371883264
DA:71,371883264
DA:97,81452836
DA:98,81452836
DA:138,0
DA:139,0
DA:189,2216
DA:197,2216
DA:198,2216
DA:199,2216
DA:200,2216
LF:13
LH:11
end_of_record
TN:
SF:/usr/include/c++/13/bits/new_allocator.h
FN:104,104,_ZNSt15__new_allocatorIN6merkle5HashTILm32EEEED2Ev
FN:104,104,_ZNSt15__new_allocatorIN6merkle5HashTILm48EEEED2Ev
FN:104,104,_ZNSt15__new_allocatorIN6merkle5HashTILm64EEEED2Ev
FN:104,104,_ZNSt15__new_allocatorIN6merkle5TreeTILm32EXadL_ZNS0_L14sha256_opensslERKNS0_5HashTILm32EEES5_RS3_EEEUt_EED2Ev
FN:104,104,_ZNSt15__new_allocatorIN6merkle5TreeTILm32EXadL_ZNS0_L15sha256_compressERKNS0_5HashTILm32EEES5_RS3_EEEUt_EED2Ev
FN:104,104,_ZNSt15__new_allocatorIN6merkle5TreeTILm48EXadL_ZNS0_L14sha384_opensslERKNS0_5HashTILm48EEES5_RS3_EEEUt_EED2Ev
FN:104,104,_ZNSt15__new_allocatorIN6merkle5TreeTILm64EXadL_ZNS0_L14sha512_opensslERKNS0_5HashTILm64EEES5_RS3_EEEUt_EED2Ev
FN:104,104,_ZNSt15__new_allocatorIN7doctest12_GLOBAL__N_113JUnitReporter17JUnitTestCaseData13JUnitTestCaseEED2Ev
FN:104,104,_ZNSt15__new_allocatorIN7doctest12_GLOBAL__N_113JUnitReporter17JUnitTestCaseData16JUnitTestMessageEED2Ev
FN:104,104,_ZNSt15__new_allocatorIN7doctest16SubcaseSignatureEED2Ev
FN:104,104,_ZNSt15__new_allocatorIN7doctest6StringEED2Ev
FN:104,104,_ZNSt15__new_allocatorINSt7__cxx1112basic_stringIcSt11char_traitsIcESaIcEEEED2Ev
FN:104,104,_ZNSt15__new_allocatorINSt8__detail10_Hash_nodeIyLb0EEEED2Ev
FN:104,104,_ZNSt15__new_allocatorIPKN7doctest12TestCaseDataEED2Ev
FN:104,104,_ZNSt15__new_allocatorIPKN7doctest6detail20IExceptionTranslatorEED2Ev
FN:104,104,_ZNSt15__new_allocatorIPKN7doctest6detail8TestCaseEED2Ev
FN:104,104,_ZNSt15__new_allocatorIPN6merkle5TreeTILm32EXadL_ZNS0_L14sha256_opensslERKNS0_5HashTILm32EEES5_RS3_EEE4NodeEED2Ev
FN:104,104,_ZNSt15__new_allocatorIPN6merkle5TreeTILm32EXadL_ZNS0_L15sha256_compressERKNS0_5HashTILm32EEES5_RS3_EEE4NodeEED2Ev
FN:104,104,_ZNSt15__new_allocatorIPN6merkle5TreeTILm48EXadL_ZNS0_L14sha384_opensslERKNS0_5HashTILm48EEES5_RS3_EEE4NodeEED2Ev
FN:104,104,_ZNSt15__new_allocatorIPN6merkle5TreeTILm64EXadL_ZNS0_L14sha512_opensslERKNS0_5HashTILm64EEES5_RS3_EEE4NodeEED2Ev
FN:104,104,_ZNSt15__new_allocatorIPN7doctest13IContextScopeEED2Ev
FN:104,104,_ZNSt15__new_allocatorIPN7doctest9IReporterEED2Ev
FN:104,104,_ZNSt15__new_allocatorIPNSt8__detail15_Hash_node_baseEED2Ev
FN:104,104,_ZNSt15__new_allocatorISt10_List_nodeIN6merkle5PathTILm32EXadL_ZNS1_L14sha256_opensslERKNS1_5HashTILm32EEES6_RS4_EEEUt0_EEED2Ev
FN:104,104,_ZNSt15__new_allocatorISt10_List_nodeIN6merkle5PathTILm32EXadL_ZNS1_L15sha256_compressERKNS1_5HashTILm32EEES6_RS4_EEEUt0_EEED2Ev
FN:104,104,_ZNSt15__new_allocatorISt10_List_nodeIN6merkle5PathTILm48EXadL_ZNS1_L14sha384_opensslERKNS1_5HashTILm48EEES6_RS4_EEEUt0_EEED2Ev
FN:104,104,_ZNSt15__new_allocatorISt10_List_nodeIN6merkle5PathTILm64EXadL_ZNS1_L14sha512_opensslERKNS1_5HashTILm64EEES6_RS4_EEEUt0_EEED2Ev
FN:104,104,_ZNSt15__new_allocatorISt13_Rb_tree_nodeIN7doctest6StringEEED2Ev
FN:104,104,_ZNSt15__new_allocatorISt13_Rb_tree_nodeIN7doctest6detail8TestCaseEEED2Ev
FN:104,104,_ZNSt15__new_allocatorISt13_Rb_tree_nodeISt4pairIKS1_IiN7doctest6StringEEPFPNS2_9IReporterERKNS2_14ContextOptionsEEEEED2Ev
FN:104,104,_ZNSt15__new_allocatorISt13_Rb_tree_nodeISt4pairIKmN6merkle5HashTILm32EEEEEED2Ev
FN:104,104,_ZNSt15__new_allocatorISt23_Sp_counted_ptr_inplaceIN6merkle5HashTILm32EEESaIvELN9__gnu_cxx12_Lock_policyE2EEED2Ev
FN:104,104,_ZNSt15__new_allocatorISt23_Sp_counted_ptr_inplaceIN6merkle5HashTILm48EEESaIvELN9__gnu_cxx12_Lock_policyE2EEED2Ev
FN:104,104,_ZNSt15__new_allocatorISt23_Sp_counted_ptr_inplaceIN6merkle5HashTILm64EEESaIvELN9__gnu_cxx12_Lock_policyE2EEED2Ev
FN:104,104,_ZNSt15__new_allocatorISt23_Sp_counted_ptr_inplaceIN6merkle5PathTILm32EXadL_ZNS1_L14sha256_opensslERKNS1_5HashTILm32EEES6_RS4_EEEESaIvELN9__gnu_cxx12_Lock_policyE2EEED2Ev
FN:104,104,_ZNSt15__new_allocatorISt23_Sp_counted_ptr_inplaceIN6merkle5PathTILm32EXadL_ZNS1_L15sha256_compressERKNS1_5HashTILm32EEES6_RS4_EEEESaIvELN9__gnu_cxx12_Lock_policyE2EEED2Ev
FN:104,104,_ZNSt15__new_allocatorISt23_Sp_counted_ptr_inplaceIN6merkle5PathTILm48EXadL_ZNS1_L14sha384_opensslERKNS1_5HashTILm48EEES6_RS4_EEEESaIvELN9__gnu_cxx12_Lock_policyE2EEED2Ev
FN:104,104,_ZNSt15__new_allocatorISt23_Sp_counted_ptr_inplaceIN6merkle5PathTILm64EXadL_ZNS1_L14sha512_opensslERKNS1_5HashTILm64EEES6_RS4_EEEESaIvELN9__gnu_cxx12_Lock_policyE2EEED2Ev
FN:104,104,_ZNSt15__new_allocatorISt4fposI11__mbstate_tEED2Ev
FN:104,104,_ZNSt15__new_allocatorISt6vectorIN7doctest6StringESaIS2_EEED2Ev
FN:104,104,_ZNSt15__new_allocatorIcED2Ev
FN:104,104,_ZNSt15__new_allocatorIhED2Ev
FN:126,152,_ZNSt15__new_allocatorIN6merkle5HashTILm32EEEE8allocateEmPKv
FN:126,152,_ZNSt15__new_allocatorIN6merkle5HashTILm48EEEE8allocateEmPKv
FN:126,152,_ZNSt15__new_allocatorIN6merkle5HashTILm64EEEE8allocateEmPKv
FN:126,152,_ZNSt15__new_allocatorIN6merkle5TreeTILm32EXadL_ZNS0_L14sha256_opensslERKNS0_5HashTILm32EEES5_RS3_EEEUt_EE8allocateEmPKv
FN:126,152,_ZNSt15__new_allocatorIN6merkle5TreeTILm32EXadL_ZNS0_L15sha256_compressERKNS0_5HashTILm32EEES5_RS3_EEEUt_EE8allocateEmPKv
FN:126,152,_ZNSt15__new_allocatorIN6merkle5TreeTILm48EXadL_ZNS0_L14sha384_opensslERKNS0_5HashTILm48EEES5_RS3_EEEUt_EE8allocateEmPKv
FN:126,152,_ZNSt15__new_allocatorIN6merkle5TreeTILm64EXadL_ZNS0_L14sha512_opensslERKNS0_5HashTILm64EEES5_RS3_EEEUt_EE8allocateEmPKv
FN:126,152,_ZNSt15__new_allocatorIN7doctest12_GLOBAL__N_113JUnitReporter17JUnitTestCaseData13JUnitTestCaseEE8allocateEmPKv
FN:126,152,_ZNSt15__new_allocatorIN7doctest12_GLOBAL__N_113JUnitReporter17JUnitTestCaseData16JUnitTestMessageEE8allocateEmPKv
FN:126,152,_ZNSt15__new_allocatorIN7doctest16SubcaseSignatureEE8allocateEmPKv
FN:126,152,_ZNSt15__new_allocatorIN7doctest6StringEE8allocateEmPKv
FN:126,152,_ZNSt15__new_allocatorINSt7__cxx1112basic_stringIcSt11char_traitsIcESaIcEEEE8allocateEmPKv
FN:126,152,_ZNSt15__new_allocatorINSt8__detail10_Hash_nodeIyLb0EEEE8allocateEmPKv
FN:126,152,_ZNSt15__new_allocatorIPKN7doctest12TestCaseDataEE8allocateEmPKv
FN:126,152,_ZNSt15__new_allocatorIPKN7doctest6detail20IExceptionTranslatorEE8allocateEmPKv
FN:126,152,_ZNSt15__new_allocatorIPKN7doctest6detail8TestCaseEE8allocateEmPKv
FN:126,152,_ZNSt15__new_allocatorIPN6merkle5TreeTILm32EXadL_ZNS0_L14sha256_opensslERKNS0_5HashTILm32EEES5_RS3_EEE4NodeEE8allocateEmPKv
FN:126,152,_ZNSt15__new_allocatorIPN6merkle5TreeTILm32EXadL_ZNS0_L15sha256_compressERKNS0_5HashTILm32EEES5_RS3_EEE4NodeEE8allocateEmPKv
FN:126,152,_ZNSt15__new_allocatorIPN6merkle5TreeTILm48EXadL_ZNS0_L14sha384_opensslERKNS0_5HashTILm48EEES5_RS3_EEE4NodeEE8allocateEmPKv
FN:126,152,_ZNSt15__new_allocatorIPN6merkle5TreeTILm64EXadL_ZNS0_L14sha512_opensslERKNS0_5HashTILm64EEES5_RS3_EEE4NodeEE8allocateEmPKv
FN:126,152,_ZNSt15__new_allocatorIPN7doctest13IContextScopeEE8allocateEmPKv
FN:126,152,_ZNSt15__new_allocatorIPN7doctest9IReporterEE8allocateEmPKv
FN:126,152,_ZNSt15__new_allocatorIPNSt8__detail15_Hash_node_baseEE8allocateEmPKv
FN:126,152,_ZNSt15__new_allocatorISt10_List_nodeIN6merkle5PathTILm32EXadL_ZNS1_L14sha256_opensslERKNS1_5HashTILm32EEES6_RS4_EEEUt0_EEE8allocateEmPKv
FN:126,152,_ZNSt15__new_allocatorISt10_List_nodeIN6merkle5PathTILm32EXadL_ZNS1_L15sha256_compressERKNS1_5HashTILm32EEES6_RS4_EEEUt0_EEE8allocateEmPKv
FN:126,152,_ZNSt15__new_allocatorISt10_List_nodeIN6merkle5PathTILm48EXadL_ZNS1_L14sha384_opensslERKNS1_5HashTILm48EEES6_RS4_EEEUt0_EEE8allocateEmPKv
FN:126,152,_ZNSt15__new_allocatorISt10_List_nodeIN6merkle5PathTILm64EXadL_ZNS1_L14sha512_opensslERKNS1_5HashTILm64EEES6_RS4_EEEUt0_EEE8allocateEmPKv
FN:126,152,_ZNSt15__new_allocatorISt13_Rb_tree_nodeIN7doctest6StringEEE8allocateEmPKv
FN:126,152,_ZNSt15__new_allocatorISt13_Rb_tree_nodeIN7doctest6detail8TestCaseEEE8allocateEmPKv
FN:126,152,_ZNSt15__new_allocatorISt13_Rb_tree_nodeISt4pairIKS1_IiN7doctest6StringEEPFPNS2_9IReporterERKNS2_14ContextOptionsEEEEE8allocateEmPKv
FN:126,152,_ZNSt15__new_allocatorISt13_Rb_tree_nodeISt4pairIKmN6merkle5HashTILm32EEEEEE8allocateEmPKv
FN:126,152,_ZNSt15__new_allocatorISt23_Sp_counted_ptr_inplaceIN6merkle5HashTILm32EEESaIvELN9__gnu_cxx12_Lock_policyE2EEE8allocateEmPKv
FN:126,152,_ZNSt15__new_allocatorISt23_Sp_counted_ptr_inplaceIN6merkle5HashTILm48EEESaIvELN9__gnu_cxx12_Lock_policyE2EEE8allocateEmPKv
FN:126,152,_ZNSt15__new_allocatorISt23_Sp_counted_ptr_inplaceIN6merkle5HashTILm64EEESaIvELN9__gnu_cxx12_Lock_policyE2EEE8allocateEmPKv
FN:126,152,_ZNSt15__new_allocatorISt23_Sp_counted_ptr_inplaceIN6merkle5PathTILm32EXadL_ZNS1_L14sha256_opensslERKNS1_5HashTILm32EEES6_RS4_EEEESaIvELN9__gnu_cxx12_Lock_policyE2EEE8allocateEmPKv
FN:126,152,_ZNSt15__new_allocatorISt23_Sp_counted_ptr_inplaceIN6merkle5PathTILm32EXadL_ZNS1_L15sha256_compressERKNS1_5HashTILm32EEES6_RS4_EEEESaIvELN9__gnu_cxx12_Lock_policyE2EEE8allocateEmPKv
FN:126,152,_ZNSt15__new_allocatorISt23_Sp_counted_ptr_inplaceIN6merkle5PathTILm48EXadL_ZNS1_L14sha384_opensslERKNS1_5HashTILm48EEES6_RS4_EEEESaIvELN9__gnu_cxx12_Lock_policyE2EEE8allocateEmPKv
FN:126,152,_ZNSt15__new_allocatorISt23_Sp_counted_ptr_inplaceIN6merkle5PathTILm64EXadL_ZNS1_L14sha512_opensslERKNS1_5HashTILm64EEES6_RS4_EEEESaIvELN9__gnu_cxx12_Lock_policyE2EEE8allocateEmPKv
FN:126,152,_ZNSt15__new_allocatorISt4fposI11__mbstate_tEE8allocateEmPKv
FN:126,152,_ZNSt15__new_allocatorISt6vectorIN7doctest6StringESaIS2_EEE8allocateEmPKv
FN:126,152,_ZNSt15__new_allocatorIhE8allocateEmPKv
FN:156,173,_ZNSt15__new_allocatorIN6merkle5HashTILm32EEEE10deallocateEPS2_m
FN:156,173,_ZNSt15__new_allocatorIN6merkle5HashTILm48EEEE10deallocateEPS2_m
FN:156,173,_ZNSt15__new_allocatorIN6merkle5HashTILm64EEEE10deallocateEPS2_m
FN:156,173,_ZNSt15__new_allocatorIN6merkle5TreeTILm32EXadL_ZNS0_L14sha256_opensslERKNS0_5HashTILm32EEES5_RS3_EEEUt_EE10deallocateEPS8_m
FN:156,173,_ZNSt15__new_allocatorIN6merkle5TreeTILm32EXadL_ZNS0_L15sha256_compressERKNS0_5HashTILm32EEES5_RS3_EEEUt_EE10deallocateEPS8_m
FN:156,173,_ZNSt15__new_allocatorIN6merkle5TreeTILm48EXadL_ZNS0_L14sha384_opensslERKNS0_5HashTILm48EEES5_RS3_EEEUt_EE10deallocateEPS8_m
FN:156,173,_ZNSt15__new_allocatorIN6merkle5TreeTILm64EXadL_ZNS0_L14sha512_opensslERKNS0_5HashTILm64EEES5_RS3_EEEUt_EE10deallocateEPS8_m
FN:156,173,_ZNSt15__new_allocatorIN7doctest12_GLOBAL__N_113JUnitReporter17JUnitTestCaseData13JUnitTestCaseEE10deallocateEPS4_m
FN:156,173,_ZNSt15__new_allocatorIN7doctest12_GLOBAL__N_113JUnitReporter17JUnitTestCaseData16JUnitTestMessageEE10deallocateEPS4_m
FN:156,173,_ZNSt15__new_allocatorIN7doctest16SubcaseSignatureEE10deallocateEPS1_m
FN:156,173,_ZNSt15__new_allocatorIN7doctest6StringEE10deallocateEPS1_m
FN:156,173,_ZNSt15__new_allocatorINSt7__cxx1112basic_stringIcSt11char_traitsIcESaIcEEEE10deallocateEPS5_m
FN:156,173,_ZNSt15__new_allocatorINSt8__detail10_Hash_nodeIyLb0EEEE10deallocateEPS2_m
FN:156,173,_ZNSt15__new_allocatorIPKN7doctest12TestCaseDataEE10deallocateEPS3_m
FN:156,173,_ZNSt15__new_allocatorIPKN7doctest6detail20IExceptionTranslatorEE10deallocateEPS4_m
FN:156,173,_ZNSt15__new_allocatorIPKN7doctest6detail8TestCaseEE10deallocateEPS4_m
FN:156,173,_ZNSt15__new_allocatorIPN6merkle5TreeTILm32EXadL_ZNS0_L14sha256_opensslERKNS0_5HashTILm32EEES5_RS3_EEE4NodeEE10deallocateEPS9_m
FN:156,173,_ZNSt15__new_allocatorIPN6merkle5TreeTILm32EXadL_ZNS0_L15sha256_compressERKNS0_5HashTILm32EEES5_RS3_EEE4NodeEE10deallocateEPS9_m
FN:156,173,_ZNSt15__new_allocatorIPN6merkle5TreeTILm48EXadL_ZNS0_L14sha384_opensslERKNS0_5HashTILm48EEES5_RS3_EEE4NodeEE10deallocateEPS9_m
FN:156,173,_ZNSt15__new_allocatorIPN6merkle5TreeTILm64EXadL_ZNS0_L14sha512_opensslERKNS0_5HashTILm64EEES5_RS3_EEE4NodeEE10deallocateEPS9_m
FN:156,173,_ZNSt15__new_allocatorIPN7doctest13IContextScopeEE10deallocateEPS2_m
FN:156,173,_ZNSt15__new_allocatorIPN7doctest9IReporterEE10deallocateEPS2_m
FN:156,173,_ZNSt15__new_allocatorIPNSt8__detail15_Hash_node_baseEE10deallocateEPS2_m
FN:156,173,_ZNSt15__new_allocatorISt10_List_nodeIN6merkle5PathTILm32EXadL_ZNS1_L14sha256_opensslERKNS1_5HashTILm32EEES6_RS4_EEEUt0_EEE10deallocateEPSA_m
FN:156,173,_ZNSt15__new_allocatorISt10_List_nodeIN6merkle5PathTILm32EXadL_ZNS1_L15sha256_compressERKNS1_5HashTILm32EEES6_RS4_EEEUt0_EEE10deallocateEPSA_m
FN:156,173,_ZNSt15__new_allocatorISt10_List_nodeIN6merkle5PathTILm48EXadL_ZNS1_L14sha384_opensslERKNS1_5HashTILm48EEES6_RS4_EEEUt0_EEE10deallocateEPSA_m
FN:156,173,_ZNSt15__new_allocatorISt10_List_nodeIN6merkle5PathTILm64EXadL_ZNS1_L14sha512_opensslERKNS1_5HashTILm64EEES6_RS4_EEEUt0_EEE10deallocateEPSA_m
FN:156,173,_ZNSt15__new_allocatorISt13_Rb_tree_nodeIN7doctest6StringEEE10deallocateEPS3_m
FN:156,173,_ZNSt15__new_allocatorISt13_Rb_tree_nodeIN7doctest6detail8TestCaseEEE10deallocateEPS4_m
FN:156,173,_ZNSt15__new_allocatorISt13_Rb_tree_nodeISt4pairIKS1_IiN7doctest6StringEEPFPNS2_9IReporterERKNS2_14ContextOptionsEEEEE10deallocateEPSE_m
FN:156,173,_ZNSt15__new_allocatorISt13_Rb_tree_nodeISt4pairIKmN6merkle5HashTILm32EEEEEE10deallocateEPS7_m
FN:156,173,_ZNSt15__new_allocatorISt23_Sp_counted_ptr_inplaceIN6merkle5HashTILm32EEESaIvELN9__gnu_cxx12_Lock_policyE2EEE10deallocateEPS7_m
FN:156,173,_ZNSt15__new_allocatorISt23_Sp_counted_ptr_inplaceIN6merkle5HashTILm48EEESaIvELN9__gnu_cxx12_Lock_policyE2EEE10deallocateEPS7_m
FN:156,173,_ZNSt15__new_allocatorISt23_Sp_counted_ptr_inplaceIN6merkle5HashTILm64EEESaIvELN9__gnu_cxx12_Lock_policyE2EEE10deallocateEPS7_m
FN:156,173,_ZNSt15__new_allocatorISt23_Sp_counted_ptr_inplaceIN6merkle5PathTILm32EXadL_ZNS1_L14sha256_opensslERKNS1_5HashTILm32EEES6_RS4_EEEESaIvELN9__gnu_cxx12_Lock_policyE2EEE10deallocateEPSC_m
FN:156,173,_ZNSt15__new_allocatorISt23_Sp_counted_ptr_inplaceIN6merkle5PathTILm32EXadL_ZNS1_L15sha256_compressERKNS1_5HashTILm32EEES6_RS4_EEEESaIvELN9__gnu_cxx12_Lock_policyE2EEE10deallocateEPSC_m
FN:156,173,_ZNSt15__new_allocatorISt23_Sp_counted_ptr_inplaceIN6merkle5PathTILm48EXadL_ZNS1_L14sha384_opensslERKNS1_5HashTILm48EEES6_RS4_EEEESaIvELN9__gnu_cxx12_Lock_policyE2EEE10deallocateEPSC_m
FN:156,173,_ZNSt15__new_allocatorISt23_Sp_counted_ptr_inplaceIN6merkle5PathTILm64EXadL_ZNS1_L14sha512_opensslERKNS1_5HashTILm64EEES6_RS4_EEEESaIvELN9__gnu_cxx12_Lock_policyE2EEE10deallocateEPSC_m
FN:156,173,_ZNSt15__new_allocatorISt4fposI11__mbstate_tEE10deallocateEPS2_m
FN:156,173,_ZNSt15__new_allocatorISt6vectorIN7doctest6StringESaIS2_EEE10deallocateEPS4_m
FN:156,173,_ZNSt15__new_allocatorIhE10deallocateEPhm
FNDA:2954,_ZNSt15__new_allocatorIN6merkle5HashTILm32EEEED2Ev
FNDA:5,_ZNSt15__new_allocatorIN6merkle5HashTILm48EEEED2Ev
FNDA:5,_ZNSt15__new_allocatorIN6merkle5HashTILm64EEEED2Ev
FNDA:4,_ZNSt15__new_allocatorIN6merkle5TreeTILm32EXadL_ZNS0_L14sha256_opensslERKNS0_5HashTILm32EEES5_RS3_EEEUt_EED2Ev
FNDA:8023,_ZNSt15__new_allocatorIN6merkle5TreeTILm32EXadL_ZNS0_L15sha256_compressERKNS0_5HashTILm32EEES5_RS3_EEEUt_EED2Ev
FNDA:13,_ZNSt15__new_allocatorIN6merkle5TreeTILm48EXadL_ZNS0_L14sha384_opensslERKNS0_5HashTILm48EEES5_RS3_EEEUt_EED2Ev
FNDA:13,_ZNSt15__new_allocatorIN6merkle5TreeTILm64EXadL_ZNS0_L14sha512_opensslERKNS0_5HashTILm64EEES5_RS3_EEEUt_EED2Ev
FNDA:0,_ZNSt15__new_allocatorIN7doctest12_GLOBAL__N_113JUnitReporter17JUnitTestCaseData13JUnitTestCaseEED2Ev
FNDA:0,_ZNSt15__new_allocatorIN7doctest12_GLOBAL__N_113JUnitReporter17JUnitTestCaseData16JUnitTestMessageEED2Ev
FNDA:3,_ZNSt15__new_allocatorIN7doctest16SubcaseSignatureEED2Ev
FNDA:10,_ZNSt15__new_allocatorIN7doctest6StringEED2Ev
FNDA:0,_ZNSt15__new_allocatorINSt7__cxx1112basic_stringIcSt11char_traitsIcESaIcEEEED2Ev
FNDA:1,_ZNSt15__new_allocatorINSt8__detail10_Hash_nodeIyLb0EEEED2Ev
FNDA:1,_ZNSt15__new_allocatorIPKN7doctest12TestCaseDataEED2Ev
FNDA:1,_ZNSt15__new_allocatorIPKN7doctest6detail20IExceptionTranslatorEED2Ev
FNDA:1,_ZNSt15__new_allocatorIPKN7doctest6detail8TestCaseEED2Ev
FNDA:16,_ZNSt15__new_allocatorIPN6merkle5TreeTILm32EXadL_ZNS0_L14sha256_opensslERKNS0_5HashTILm32EEES5_RS3_EEE4NodeEED2Ev
FNDA:40410,_ZNSt15__new_allocatorIPN6merkle5TreeTILm32EXadL_ZNS0_L15sha256_compressERKNS0_5HashTILm32EEES5_RS3_EEE4NodeEED2Ev
FNDA:63,_ZNSt15__new_allocatorIPN6merkle5TreeTILm48EXadL_ZNS0_L14sha384_opensslERKNS0_5HashTILm48EEES5_RS3_EEE4NodeEED2Ev
FNDA:63,_ZNSt15__new_allocatorIPN6merkle5TreeTILm64EXadL_ZNS0_L14sha512_opensslERKNS0_5HashTILm64EEES5_RS3_EEE4NodeEED2Ev
FNDA:0,_ZNSt15__new_allocatorIPN7doctest13IContextScopeEED2Ev
FNDA:1,_ZNSt15__new_allocatorIPN7doctest9IReporterEED2Ev
FNDA:0,_ZNSt15__new_allocatorIPNSt8__detail15_Hash_node_baseEED2Ev
FNDA:4,_ZNSt15__new_allocatorISt10_List_nodeIN6merkle5PathTILm32EXadL_ZNS1_L14sha256_opensslERKNS1_5HashTILm32EEES6_RS4_EEEUt0_EEED2Ev
FNDA:110079,_ZNSt15__new_allocatorISt10_List_nodeIN6merkle5PathTILm32EXadL_ZNS1_L15sha256_compressERKNS1_5HashTILm32EEES6_RS4_EEEUt0_EEED2Ev
FNDA:156,_ZNSt15__new_allocatorISt10_List_nodeIN6merkle5PathTILm48EXadL_ZNS1_L14sha384_opensslERKNS1_5HashTILm48EEES6_RS4_EEEUt0_EEED2Ev
FNDA:156,_ZNSt15__new_allocatorISt10_List_nodeIN6merkle5PathTILm64EXadL_ZNS1_L14sha512_opensslERKNS1_5HashTILm64EEES6_RS4_EEEUt0_EEED2Ev
FNDA:1,_ZNSt15__new_allocatorISt13_Rb_tree_nodeIN7doctest6StringEEED2Ev
FNDA:1,_ZNSt15__new_allocatorISt13_Rb_tree_nodeIN7doctest6detail8TestCaseEEED2Ev
FNDA:2,_ZNSt15__new_allocatorISt13_Rb_tree_nodeISt4pairIKS1_IiN7doctest6StringEEPFPNS2_9IReporterERKNS2_14ContextOptionsEEEEED2Ev
FNDA:254,_ZNSt15__new_allocatorISt13_Rb_tree_nodeISt4pairIKmN6merkle5HashTILm32EEEEEED2Ev
FNDA:102718,_ZNSt15__new_allocatorISt23_Sp_counted_ptr_inplaceIN6merkle5HashTILm32EEESaIvELN9__gnu_cxx12_Lock_policyE2EEED2Ev
FNDA:144,_ZNSt15__new_allocatorISt23_Sp_counted_ptr_inplaceIN6merkle5HashTILm48EEESaIvELN9__gnu_cxx12_Lock_policyE2EEED2Ev
FNDA:144,_ZNSt15__new_allocatorISt23_Sp_counted_ptr_inplaceIN6merkle5HashTILm64EEESaIvELN9__gnu_cxx12_Lock_policyE2EEED2Ev
FNDA:4,_ZNSt15__new_allocatorISt23_Sp_counted_ptr_inplaceIN6merkle5PathTILm32EXadL_ZNS1_L14sha256_opensslERKNS1_5HashTILm32EEES6_RS4_EEEESaIvELN9__gnu_cxx12_Lock_policyE2EEED2Ev
FNDA:95982,_ZNSt15__new_allocatorISt23_Sp_counted_ptr_inplaceIN6merkle5PathTILm32EXadL_ZNS1_L15sha256_compressERKNS1_5HashTILm32EEES6_RS4_EEEESaIvELN9__gnu_cxx12_Lock_policyE2EEED2Ev
FNDA:144,_ZNSt15__new_allocatorISt23_Sp_counted_ptr_inplaceIN6merkle5PathTILm48EXadL_ZNS1_L14sha384_opensslERKNS1_5HashTILm48EEES6_RS4_EEEESaIvELN9__gnu_cxx12_Lock_policyE2EEED2Ev
FNDA:144,_ZNSt15__new_allocatorISt23_Sp_counted_ptr_inplaceIN6merkle5PathTILm64EXadL_ZNS1_L14sha512_opensslERKNS1_5HashTILm64EEES6_RS4_EEEESaIvELN9__gnu_cxx12_Lock_policyE2EEED2Ev
FNDA:0,_ZNSt15__new_allocatorISt4fposI11__mbstate_tEED2Ev
FNDA:3,_ZNSt15__new_allocatorISt6vectorIN7doctest6StringESaIS2_EEED2Ev
FNDA:158,_ZNSt15__new_allocatorIcED2Ev
FNDA:4478,_ZNSt15__new_allocatorIhED2Ev
FNDA:32884,_ZNSt15__new_allocatorIN6merkle5HashTILm32EEEE8allocateEmPKv
FNDA:79,_ZNSt15__new_allocatorIN6merkle5HashTILm48EEEE8allocateEmPKv
FNDA:79,_ZNSt15__new_allocatorIN6merkle5HashTILm64EEEE8allocateEmPKv
FNDA:18,_ZNSt15__new_allocatorIN6merkle5TreeTILm32EXadL_ZNS0_L14sha256_opensslERKNS0_5HashTILm32EEES5_RS3_EEEUt_EE8allocateEmPKv
FNDA:4534,_ZNSt15__new_allocatorIN6merkle5TreeTILm32EXadL_ZNS0_L15sha256_compressERKNS0_5HashTILm32EEES5_RS3_EEEUt_EE8allocateEmPKv
FNDA:30,_ZNSt15__new_allocatorIN6merkle5TreeTILm48EXadL_ZNS0_L14sha384_opensslERKNS0_5HashTILm48EEES5_RS3_EEEUt_EE8allocateEmPKv
FNDA:30,_ZNSt15__new_allocatorIN6merkle5TreeTILm64EXadL_ZNS0_L14sha512_opensslERKNS0_5HashTILm64EEES5_RS3_EEEUt_EE8allocateEmPKv
FNDA:0,_ZNSt15__new_allocatorIN7doctest12_GLOBAL__N_113JUnitReporter17JUnitTestCaseData13JUnitTestCaseEE8allocateEmPKv
FNDA:0,_ZNSt15__new_allocatorIN7doctest12_GLOBAL__N_113JUnitReporter17JUnitTestCaseData16JUnitTestMessageEE8allocateEmPKv
FNDA:0,_ZNSt15__new_allocatorIN7doctest16SubcaseSignatureEE8allocateEmPKv
FNDA:1,_ZNSt15__new_allocatorIN7doctest6StringEE8allocateEmPKv
FNDA:0,_ZNSt15__new_allocatorINSt7__cxx1112basic_stringIcSt11char_traitsIcESaIcEEEE8allocateEmPKv
FNDA:0,_ZNSt15__new_allocatorINSt8__detail10_Hash_nodeIyLb0EEEE8allocateEmPKv
FNDA:0,_ZNSt15__new_allocatorIPKN7doctest12TestCaseDataEE8allocateEmPKv
FNDA:0,_ZNSt15__new_allocatorIPKN7doctest6detail20IExceptionTranslatorEE8allocateEmPKv
FNDA:5,_ZNSt15__new_allocatorIPKN7doctest6detail8TestCaseEE8allocateEmPKv
FNDA:94,_ZNSt15__new_allocatorIPN6merkle5TreeTILm32EXadL_ZNS0_L14sha256_opensslERKNS0_5HashTILm32EEES5_RS3_EEE4NodeEE8allocateEmPKv
FNDA:124087,_ZNSt15__new_allocatorIPN6merkle5TreeTILm32EXadL_ZNS0_L15sha256_compressERKNS0_5HashTILm32EEES5_RS3_EEE4NodeEE8allocateEmPKv
FNDA:182,_ZNSt15__new_allocatorIPN6merkle5TreeTILm48EXadL_ZNS0_L14sha384_opensslERKNS0_5HashTILm48EEES5_RS3_EEE4NodeEE8allocateEmPKv
FNDA:182,_ZNSt15__new_allocatorIPN6merkle5TreeTILm64EXadL_ZNS0_L14sha512_opensslERKNS0_5HashTILm64EEES5_RS3_EEE4NodeEE8allocateEmPKv
FNDA:0,_ZNSt15__new_allocatorIPN7doctest13IContextScopeEE8allocateEmPKv
FNDA:1,_ZNSt15__new_allocatorIPN7doctest9IReporterEE8allocateEmPKv
FNDA:0,_ZNSt15__new_allocatorIPNSt8__detail15_Hash_node_baseEE8allocateEmPKv
FNDA:4,_ZNSt15__new_allocatorISt10_List_nodeIN6merkle5PathTILm32EXadL_ZNS1_L14sha256_opensslERKNS1_5HashTILm32EEES6_RS4_EEEUt0_EEE8allocateEmPKv
FNDA:614222,_ZNSt15__new_allocatorISt10_List_nodeIN6merkle5PathTILm32EXadL_ZNS1_L15sha256_compressERKNS1_5HashTILm32EEES6_RS4_EEEUt0_EEE8allocateEmPKv
FNDA:390,_ZNSt15__new_allocatorISt10_List_nodeIN6merkle5PathTILm48EXadL_ZNS1_L14sha384_opensslERKNS1_5HashTILm48EEES6_RS4_EEEUt0_EEE8allocateEmPKv
FNDA:390,_ZNSt15__new_allocatorISt10_List_nodeIN6merkle5PathTILm64EXadL_ZNS1_L14sha512_opensslERKNS1_5HashTILm64EEES6_RS4_EEEUt0_EEE8allocateEmPKv
FNDA:0,_ZNSt15__new_allocatorISt13_Rb_tree_nodeIN7doctest6StringEEE8allocateEmPKv
FNDA:12,_ZNSt15__new_allocatorISt13_Rb_tree_nodeIN7doctest6detail8TestCaseEEE8allocateEmPKv
FNDA:3,_ZNSt15__new_allocatorISt13_Rb_tree_nodeISt4pairIKS1_IiN7doctest6StringEEPFPNS2_9IReporterERKNS2_14ContextOptionsEEEEE8allocateEmPKv
FNDA:31632,_ZNSt15__new_allocatorISt13_Rb_tree_nodeISt4pairIKmN6merkle5HashTILm32EEEEEE8allocateEmPKv
FNDA:51359,_ZNSt15__new_allocatorISt23_Sp_counted_ptr_inplaceIN6merkle5HashTILm32EEESaIvELN9__gnu_cxx12_Lock_policyE2EEE8allocateEmPKv
FNDA:72,_ZNSt15__new_allocatorISt23_Sp_counted_ptr_inplaceIN6merkle5HashTILm48EEESaIvELN9__gnu_cxx12_Lock_policyE2EEE8allocateEmPKv
FNDA:72,_ZNSt15__new_allocatorISt23_Sp_counted_ptr_inplaceIN6merkle5HashTILm64EEESaIvELN9__gnu_cxx12_Lock_policyE2EEE8allocateEmPKv
FNDA:2,_ZNSt15__new_allocatorISt23_Sp_counted_ptr_inplaceIN6merkle5PathTILm32EXadL_ZNS1_L14sha256_opensslERKNS1_5HashTILm32EEES6_RS4_EEEESaIvELN9__gnu_cxx12_Lock_policyE2EEE8allocateEmPKv
FNDA:47991,_ZNSt15__new_allocatorISt23_Sp_counted_ptr_inplaceIN6merkle5PathTILm32EXadL_ZNS1_L15sha256_compressERKNS1_5HashTILm32EEES6_RS4_EEEESaIvELN9__gnu_cxx12_Lock_policyE2EEE8allocateEmPKv
FNDA:72,_ZNSt15__new_allocatorISt23_Sp_counted_ptr_inplaceIN6merkle5PathTILm48EXadL_ZNS1_L14sha384_opensslERKNS1_5HashTILm48EEES6_RS4_EEEESaIvELN9__gnu_cxx12_Lock_policyE2EEE8allocateEmPKv
FNDA:72,_ZNSt15__new_allocatorISt23_Sp_counted_ptr_inplaceIN6merkle5PathTILm64EXadL_ZNS1_L14sha512_opensslERKNS1_5HashTILm64EEES6_RS4_EEEESaIvELN9__gnu_cxx12_Lock_policyE2EEE8allocateEmPKv
FNDA:0,_ZNSt15__new_allocatorISt4fposI11__mbstate_tEE8allocateEmPKv
FNDA:1,_ZNSt15__new_allocatorISt6vectorIN7doctest6StringESaIS2_EEE8allocateEmPKv
FNDA:45664,_ZNSt15__new_allocatorIhE8allocateEmPKv
FNDA:32884,_ZNSt15__new_allocatorIN6merkle5HashTILm32EEEE10deallocateEPS2_m
FNDA:79,_ZNSt15__new_allocatorIN6merkle5HashTILm48EEEE10deallocateEPS2_m
FNDA:79,_ZNSt15__new_allocatorIN6merkle5HashTILm64EEEE10deallocateEPS2_m
FNDA:18,_ZNSt15__new_allocatorIN6merkle5TreeTILm32EXadL_ZNS0_L14sha256_opensslERKNS0_5HashTILm32EEES5_RS3_EEEUt_EE10deallocateEPS8_m
FNDA:4534,_ZNSt15__new_allocatorIN6merkle5TreeTILm32EXadL_ZNS0_L15sha256_compressERKNS0_5HashTILm32EEES5_RS3_EEEUt_EE10deallocateEPS8_m
FNDA:30,_ZNSt15__new_allocatorIN6merkle5TreeTILm48EXadL_ZNS0_L14sha384_opensslERKNS0_5HashTILm48EEES5_RS3_EEEUt_EE10deallocateEPS8_m
FNDA:30,_ZNSt15__new_allocatorIN6merkle5TreeTILm64EXadL_ZNS0_L14sha512_opensslERKNS0_5HashTILm64EEES5_RS3_EEEUt_EE10deallocateEPS8_m
FNDA:0,_ZNSt15__new_allocatorIN7doctest12_GLOBAL__N_113JUnitReporter17JUnitTestCaseData13JUnitTestCaseEE10deallocateEPS4_m
FNDA:0,_ZNSt15__new_allocatorIN7doctest12_GLOBAL__N_113JUnitReporter17JUnitTestCaseData16JUnitTestMessageEE10deallocateEPS4_m
FNDA:0,_ZNSt15__new_allocatorIN7doctest16SubcaseSignatureEE10deallocateEPS1_m
FNDA:1,_ZNSt15__new_allocatorIN7doctest6StringEE10deallocateEPS1_m
FNDA:0,_ZNSt15__new_allocatorINSt7__cxx1112basic_stringIcSt11char_traitsIcESaIcEEEE10deallocateEPS5_m
FNDA:0,_ZNSt15__new_allocatorINSt8__detail10_Hash_nodeIyLb0EEEE10deallocateEPS2_m
FNDA:0,_ZNSt15__new_allocatorIPKN7doctest12TestCaseDataEE10deallocateEPS3_m
FNDA:0,_ZNSt15__new_allocatorIPKN7doctest6detail20IExceptionTranslatorEE10deallocateEPS4_m
FNDA:5,_ZNSt15__new_allocatorIPKN7doctest6detail8TestCaseEE10deallocateEPS4_m
FNDA:94,_ZNSt15__new_allocatorIPN6merkle5TreeTILm32EXadL_ZNS0_L14sha256_opensslERKNS0_5HashTILm32EEES5_RS3_EEE4NodeEE10deallocateEPS9_m
FNDA:124087,_ZNSt15__new_allocatorIPN6merkle5TreeTILm32EXadL_ZNS0_L15sha256_compressERKNS0_5HashTILm32EEES5_RS3_EEE4NodeEE10deallocateEPS9_m
FNDA:182,_ZNSt15__new_allocatorIPN6merkle5TreeTILm48EXadL_ZNS0_L14sha384_opensslERKNS0_5HashTILm48EEES5_RS3_EEE4NodeEE10deallocateEPS9_m
FNDA:182,_ZNSt15__new_allocatorIPN6merkle5TreeTILm64EXadL_ZNS0_L14sha512_opensslERKNS0_5HashTILm64EEES5_RS3_EEE4NodeEE10deallocateEPS9_m
FNDA:0,_ZNSt15__new_allocatorIPN7doctest13IContextScopeEE10deallocateEPS2_m
FNDA:1,_ZNSt15__new_allocatorIPN7doctest9IReporterEE10deallocateEPS2_m
FNDA:0,_ZNSt15__new_allocatorIPNSt8__detail15_Hash_node_baseEE10deallocateEPS2_m
FNDA:4,_ZNSt15__new_allocatorISt10_List_nodeIN6merkle5PathTILm32EXadL_ZNS1_L14sha256_opensslERKNS1_5HashTILm32EEES6_RS4_EEEUt0_EEE10deallocateEPSA_m
FNDA:614222,_ZNSt15__new_allocatorISt10_List_nodeIN6merkle5PathTILm32EXadL_ZNS1_L15sha256_compressERKNS1_5HashTILm32EEES6_RS4_EEEUt0_EEE10deallocateEPSA_m
FNDA:390,_ZNSt15__new_allocatorISt10_List_nodeIN6merkle5PathTILm48EXadL_ZNS1_L14sha384_opensslERKNS1_5HashTILm48EEES6_RS4_EEEUt0_EEE10deallocateEPSA_m
FNDA:390,_ZNSt15__new_allocatorISt10_List_nodeIN6merkle5PathTILm64EXadL_ZNS1_L14sha512_opensslERKNS1_5HashTILm64EEES6_RS4_EEEUt0_EEE10deallocateEPSA_m
FNDA:0,_ZNSt15__new_allocatorISt13_Rb_tree_nodeIN7doctest6StringEEE10deallocateEPS3_m
FNDA:12,_ZNSt15__new_allocatorISt13_Rb_tree_nodeIN7doctest6detail8TestCaseEEE10deallocateEPS4_m
FNDA:3,_ZNSt15__new_allocatorISt13_Rb_tree_nodeISt4pairIKS1_IiN7doctest6StringEEPFPNS2_9IReporterERKNS2_14ContextOptionsEEEEE10deallocateEPSE_m
FNDA:31632,_ZNSt15__new_allocatorISt13_Rb_tree_nodeISt4pairIKmN6merkle5HashTILm32EEEEEE10deallocateEPS7_m
FNDA:51359,_ZNSt15__new_allocatorISt23_Sp_counted_ptr_inplaceIN6merkle5HashTILm32EEESaIvELN9__gnu_cxx12_Lock_policyE2EEE10deallocateEPS7_m
FNDA:72,_ZNSt15__new_allocatorISt23_Sp_counted_ptr_inplaceIN6merkle5HashTILm48EEESaIvELN9__gnu_cxx12_Lock_policyE2EEE10deallocateEPS7_m
FNDA:72,_ZNSt15__new_allocatorISt23_Sp_counted_ptr_inplaceIN6merkle5HashTILm64EEESaIvELN9__gnu_cxx12_Lock_policyE2EEE10deallocateEPS7_m
FNDA:2,_ZNSt15__new_allocatorISt23_Sp_counted_ptr_inplaceIN6merkle5PathTILm32EXadL_ZNS1_L14sha256_opensslERKNS1_5HashTILm32EEES6_RS4_EEEESaIvELN9__gnu_cxx12_Lock_policyE2EEE10deallocateEPSC_m
FNDA:47991,_ZNSt15__new_allocatorISt23_Sp_counted_ptr_inplaceIN6merkle5PathTILm32EXadL_ZNS1_L15sha256_compressERKNS1_5HashTILm32EEES6_RS4_EEEESaIvELN9__gnu_cxx12_Lock_policyE2EEE10deallocateEPSC_m
FNDA:72,_ZNSt15__new_allocatorISt23_Sp_counted_ptr_inplaceIN6merkle5PathTILm48EXadL_ZNS1_L14sha384_opensslERKNS1_5HashTILm48EEES6_RS4_EEEESaIvELN9__gnu_cxx12_Lock_policyE2EEE10deallocateEPSC_m
FNDA:72,_ZNSt15__new_allocatorISt23_Sp_counted_ptr_inplaceIN6merkle5PathTILm64EXadL_ZNS1_L14sha512_opensslERKNS1_5HashTILm64EEES6_RS4_EEEESaIvELN9__gnu_cxx12_Lock_policyE2EEE10deallocateEPSC_m
FNDA:0,_ZNSt15__new_allocatorISt4fposI11__mbstate_tEE10deallocateEPS2_m
FNDA:1,_ZNSt15__new_allocatorISt6vectorIN7doctest6StringESaIS2_EEE10deallocateEPS4_m
FNDA:45664,_ZNSt15__new_allocatorIhE10deallocateEPhm
FNF:124
FNH:96
DA:88,313849
DA:92,52309
DA:104,366159
DA:126,954164
DA:134,954164
DA:138,0
DA:139,0
DA:140,0
DA:151,954164
DA:156,954164
DA:172,954164
DA:183,637559
DA:191,143787386
DA:198,81662286
DA:233,1591723
LF:15
LH:12
end_of_record
TN:
SF:/usr/include/c++/13/bits/postypes.h
FN:181,182,_ZNKSt4fposI11__mbstate_tEmiERKS1_
FNDA:0,_ZNKSt4fposI11__mbstate_tEmiERKS1_
FNF:1
FNH:0
DA:181,0
DA:182,0
LF:2
LH:0
end_of_record
TN:
SF:/usr/include/c++/13/bits/predefined_ops.h
FN:150,152,_ZN9__gnu_cxx5__ops15_Iter_comp_iterIPFbPKN7doctest6detail8TestCaseES6_EEC2ES8_
FN:157,158,_ZN9__gnu_cxx5__ops15_Iter_comp_iterIPFbPKN7doctest6detail8TestCaseES6_EEclINS_17__normal_iteratorIPS6_St6vectorIS6_SaIS6_EEEESG_EEbT_T0_
FN:164,165,_ZN9__gnu_cxx5__ops16__iter_comp_iterIPFbPKN7doctest6detail8TestCaseES6_EEENS0_15_Iter_comp_iterIT_EESA_
FN:187,189,_ZN9__gnu_cxx5__ops14_Iter_comp_valIPFbPKN7doctest6detail8TestCaseES6_EEC2EONS0_15_Iter_comp_iterIS8_EE
FN:195,196,_ZN9__gnu_cxx5__ops14_Iter_comp_valIPFbPKN7doctest6detail8TestCaseES6_EEclINS_17__normal_iteratorIPS6_St6vectorIS6_SaIS6_EEEES6_EEbT_RT0_
FN:231,233,_ZN9__gnu_cxx5__ops14_Val_comp_iterIPFbPKN7doctest6detail8TestCaseES6_EEC2EONS0_15_Iter_comp_iterIS8_EE
FN:239,240,_ZN9__gnu_cxx5__ops14_Val_comp_iterIPFbPKN7doctest6detail8TestCaseES6_EEclIS6_NS_17__normal_iteratorIPS6_St6vectorIS6_SaIS6_EEEEEEbRT_T0_
FN:252,253,_ZN9__gnu_cxx5__ops15__val_comp_iterIPFbPKN7doctest6detail8TestCaseES6_EEENS0_14_Val_comp_iterIT_EENS0_15_Iter_comp_iterISA_EE
FN:262,264,_ZN9__gnu_cxx5__ops16_Iter_equals_valIKPKN7doctest6detail20IExceptionTranslatorEEC2ERS7_
FN:269,270,_ZN9__gnu_cxx5__ops16_Iter_equals_valIKPKN7doctest6detail20IExceptionTranslatorEEclINS_17__normal_iteratorIPS6_St6vectorIS6_SaIS6_EEEEEEbT_
FN:276,277,_ZN9__gnu_cxx5__ops17__iter_equals_valIKPKN7doctest6detail20IExceptionTranslatorEEENS0_16_Iter_equals_valIT_EERS9_
FNDA:1,_ZN9__gnu_cxx5__ops15_Iter_comp_iterIPFbPKN7doctest6detail8TestCaseES6_EEC2ES8_
FNDA:11,_ZN9__gnu_cxx5__ops15_Iter_comp_iterIPFbPKN7doctest6detail8TestCaseES6_EEclINS_17__normal_iteratorIPS6_St6vectorIS6_SaIS6_EEEESG_EEbT_T0_
FNDA:1,_ZN9__gnu_cxx5__ops16__iter_comp_iterIPFbPKN7doctest6detail8TestCaseES6_EEENS0_15_Iter_comp_iterIT_EESA_
FNDA:0,_ZN9__gnu_cxx5__ops14_Iter_comp_valIPFbPKN7doctest6detail8TestCaseES6_EEC2EONS0_15_Iter_comp_iterIS8_EE
FNDA:0,_ZN9__gnu_cxx5__ops14_Iter_comp_valIPFbPKN7doctest6detail8TestCaseES6_EEclINS_17__normal_iteratorIPS6_St6vectorIS6_SaIS6_EEEES6_EEbT_RT0_
FNDA:11,_ZN9__gnu_cxx5__ops14_Val_comp_iterIPFbPKN7doctest6detail8TestCaseES6_EEC2EONS0_15_Iter_comp_iterIS8_EE
FNDA:11,_ZN9__gnu_cxx5__ops14_Val_comp_iterIPFbPKN7doctest6detail8TestCaseES6_EEclIS6_NS_17__normal_iteratorIPS6_St6vectorIS6_SaIS6_EEEEEEbRT_T0_
FNDA:11,_ZN9__gnu_cxx5__ops15__val_comp_iterIPFbPKN7doctest6detail8TestCaseES6_EEENS0_14_Val_comp_iterIT_EENS0_15_Iter_comp_iterISA_EE
FNDA:0,_ZN9__gnu_cxx5__ops16_Iter_equals_valIKPKN7doctest6detail20IExceptionTranslatorEEC2ERS7_
FNDA:0,_ZN9__gnu_cxx5__ops16_Iter_equals_valIKPKN7doctest6detail20IExceptionTranslatorEEclINS_17__normal_iteratorIPS6_St6vectorIS6_SaIS6_EEEEEEbT_
FNDA:0,_ZN9__gnu_cxx5__ops17__iter_equals_valIKPKN7doctest6detail20IExceptionTranslatorEEENS0_16_Iter_equals_valIT_EERS9_
FNF:11
FNH:6
DA:150,1
DA:151,1
DA:152,1
DA:157,11
DA:158,11
DA:164,1
DA:165,1
DA:187,0
DA:188,0
DA:189,0
DA:195,0
DA:196,0
DA:231,11
DA:232,11
DA:233,11
DA:239,11
DA:240,11
DA:252,11
DA:253,11
DA:262,0
DA:263,0
DA:264,0
DA:269,0
DA:270,0
DA:276,0
DA:277,0
LF:26
LH:14
end_of_record
TN:
SF:/usr/include/c++/13/bits/ptr_traits.h
FN:141,142,_ZNSt19__ptr_traits_ptr_toIPNSt8__detail10_Hash_nodeIyLb0EEES2_Lb0EE10pointer_toERS2_
FN:141,142,_ZNSt19__ptr_traits_ptr_toIPPNSt8__detail15_Hash_node_baseES2_Lb0EE10pointer_toERS2_
FN:212,216,_ZSt12__to_addressINSt8__detail10_Hash_nodeIyLb0EEEEPT_S4_
FN:212,216,_ZSt12__to_addressIPNSt8__detail15_Hash_node_baseEEPT_S4_
FN:212,216,_ZSt12__to_addressISt23_Sp_counted_ptr_inplaceIN6merkle5HashTILm32EEESaIvELN9__gnu_cxx12_Lock_policyE2EEEPT_S9_
FN:212,216,_ZSt12__to_addressISt23_Sp_counted_ptr_inplaceIN6merkle5HashTILm48EEESaIvELN9__gnu_cxx12_Lock_policyE2EEEPT_S9_
FN:212,216,_ZSt12__to_addressISt23_Sp_counted_ptr_inplaceIN6merkle5HashTILm64EEESaIvELN9__gnu_cxx12_Lock_policyE2EEEPT_S9_
FN:212,216,_ZSt12__to_addressISt23_Sp_counted_ptr_inplaceIN6merkle5PathTILm32EXadL_ZNS1_L14sha256_opensslERKNS1_5HashTILm32EEES6_RS4_EEEESaIvELN9__gnu_cxx12_Lock_policyE2EEEPT_SE_
FN:212,216,_ZSt12__to_addressISt23_Sp_counted_ptr_inplaceIN6merkle5PathTILm32EXadL_ZNS1_L15sha256_compressERKNS1_5HashTILm32EEES6_RS4_EEEESaIvELN9__gnu_cxx12_Lock_policyE2EEEPT_SE_
FN:212,216,_ZSt12__to_addressISt23_Sp_counted_ptr_inplaceIN6merkle5PathTILm48EXadL_ZNS1_L14sha384_opensslERKNS1_5HashTILm48EEES6_RS4_EEEESaIvELN9__gnu_cxx12_Lock_policyE2EEEPT_SE_
FN:212,216,_ZSt12__to_addressISt23_Sp_counted_ptr_inplaceIN6merkle5PathTILm64EXadL_ZNS1_L14sha512_opensslERKNS1_5HashTILm64EEES6_RS4_EEEESaIvELN9__gnu_cxx12_Lock_policyE2EEEPT_SE_
FNDA:0,_ZNSt19__ptr_traits_ptr_toIPNSt8__detail10_Hash_nodeIyLb0EEES2_Lb0EE10pointer_toERS2_
FNDA:0,_ZNSt19__ptr_traits_ptr_toIPPNSt8__detail15_Hash_node_baseES2_Lb0EE10pointer_toERS2_
FNDA:0,_ZSt12__to_addressINSt8__detail10_Hash_nodeIyLb0EEEEPT_S4_
FNDA:0,_ZSt12__to_addressIPNSt8__detail15_Hash_node_baseEEPT_S4_
FNDA:51359,_ZSt12__to_addressISt23_Sp_counted_ptr_inplaceIN6merkle5HashTILm32EEESaIvELN9__gnu_cxx12_Lock_policyE2EEEPT_S9_
FNDA:72,_ZSt12__to_addressISt23_Sp_counted_ptr_inplaceIN6merkle5HashTILm48EEESaIvELN9__gnu_cxx12_Lock_policyE2EEEPT_S9_
FNDA:72,_ZSt12__to_addressISt23_Sp_counted_ptr_inplaceIN6merkle5HashTILm64EEESaIvELN9__gnu_cxx12_Lock_policyE2EEEPT_S9_
FNDA:2,_ZSt12__to_addressISt23_Sp_counted_ptr_inplaceIN6merkle5PathTILm32EXadL_ZNS1_L14sha256_opensslERKNS1_5HashTILm32EEES6_RS4_EEEESaIvELN9__gnu_cxx12_Lock_policyE2EEEPT_SE_
FNDA:47991,_ZSt12__to_addressISt23_Sp_counted_ptr_inplaceIN6merkle5PathTILm32EXadL_ZNS1_L15sha256_compressERKNS1_5HashTILm32EEES6_RS4_EEEESaIvELN9__gnu_cxx12_Lock_policyE2EEEPT_SE_
FNDA:72,_ZSt12__to_addressISt23_Sp_counted_ptr_inplaceIN6merkle5PathTILm48EXadL_ZNS1_L14sha384_opensslERKNS1_5HashTILm48EEES6_RS4_EEEESaIvELN9__gnu_cxx12_Lock_policyE2EEEPT_SE_
FNDA:72,_ZSt12__to_addressISt23_Sp_counted_ptr_inplaceIN6merkle5PathTILm64EXadL_ZNS1_L14sha512_opensslERKNS1_5HashTILm64EEES6_RS4_EEEESaIvELN9__gnu_cxx12_Lock_policyE2EEEPT_SE_
FNF:11
FNH:7
DA:141,0
DA:142,0
DA:212,99640
DA:215,99640
LF:4
LH:2
end_of_record
TN:
SF:/usr/include/c++/13/bits/range_access.h
FNF:0
FNH:0
DA:96,0
DA:107,0
LF:2
LH:0
end_of_record
TN:
SF:/usr/include/c++/13/bits/shared_ptr.h
FN:1005,1011,_ZSt11make_sharedIN6merkle5HashTILm32EEEJRKS2_EESt10shared_ptrINSt9enable_ifIXntsrSt8is_arrayIT_E5valueES8_E4typeEEDpOT0_
FN:1005,1011,_ZSt11make_sharedIN6merkle5HashTILm48EEEJRKS2_EESt10shared_ptrINSt9enable_ifIXntsrSt8is_arrayIT_E5valueES8_E4typeEEDpOT0_
FN:1005,1011,_ZSt11make_sharedIN6merkle5HashTILm64EEEJRKS2_EESt10shared_ptrINSt9enable_ifIXntsrSt8is_arrayIT_E5valueES8_E4typeEEDpOT0_
FN:1005,1011,_ZSt11make_sharedIN6merkle5PathTILm32EXadL_ZNS0_L14sha256_opensslERKNS0_5HashTILm32EEES5_RS3_EEEEJS5_RmNSt7__cxx114listINS7_Ut0_ESaISB_EEEmEESt10shared_ptrINSt9enable_ifIXntsrSt8is_arrayIT_E5valueESH_E4typeEEDpOT0_
FN:1005,1011,_ZSt11make_sharedIN6merkle5PathTILm32EXadL_ZNS0_L15sha256_compressERKNS0_5HashTILm32EEES5_RS3_EEEEJS5_RmNSt7__cxx114listINS7_Ut0_ESaISB_EEES8_EESt10shared_ptrINSt9enable_ifIXntsrSt8is_arrayIT_E5valueESH_E4typeEEDpOT0_
FN:1005,1011,_ZSt11make_sharedIN6merkle5PathTILm32EXadL_ZNS0_L15sha256_compressERKNS0_5HashTILm32EEES5_RS3_EEEEJS5_RmNSt7__cxx114listINS7_Ut0_ESaISB_EEEmEESt10shared_ptrINSt9enable_ifIXntsrSt8is_arrayIT_E5valueESH_E4typeEEDpOT0_
FN:1005,1011,_ZSt11make_sharedIN6merkle5PathTILm48EXadL_ZNS0_L14sha384_opensslERKNS0_5HashTILm48EEES5_RS3_EEEEJS5_RmNSt7__cxx114listINS7_Ut0_ESaISB_EEES8_EESt10shared_ptrINSt9enable_ifIXntsrSt8is_arrayIT_E5valueESH_E4typeEEDpOT0_
FN:1005,1011,_ZSt11make_sharedIN6merkle5PathTILm48EXadL_ZNS0_L14sha384_opensslERKNS0_5HashTILm48EEES5_RS3_EEEEJS5_RmNSt7__cxx114listINS7_Ut0_ESaISB_EEEmEESt10shared_ptrINSt9enable_ifIXntsrSt8is_arrayIT_E5valueESH_E4typeEEDpOT0_
FN:1005,1011,_ZSt11make_sharedIN6merkle5PathTILm64EXadL_ZNS0_L14sha512_opensslERKNS0_5HashTILm64EEES5_RS3_EEEEJS5_RmNSt7__cxx114listINS7_Ut0_ESaISB_EEES8_EESt10shared_ptrINSt9enable_ifIXntsrSt8is_arrayIT_E5valueESH_E4typeEEDpOT0_
FN:1005,1011,_ZSt11make_sharedIN6merkle5PathTILm64EXadL_ZNS0_L14sha512_opensslERKNS0_5HashTILm64EEES5_RS3_EEEEJS5_RmNSt7__cxx114listINS7_Ut0_ESaISB_EEEmEESt10shared_ptrINSt9enable_ifIXntsrSt8is_arrayIT_E5valueESH_E4typeEEDpOT0_
FN:463,465,_ZNSt10shared_ptrIN6merkle5HashTILm32EEEEC2ISaIvEJRKS2_EEESt20_Sp_alloc_shared_tagIT_EDpOT0_
FN:463,465,_ZNSt10shared_ptrIN6merkle5HashTILm48EEEEC2ISaIvEJRKS2_EEESt20_Sp_alloc_shared_tagIT_EDpOT0_
FN:463,465,_ZNSt10shared_ptrIN6merkle5HashTILm64EEEEC2ISaIvEJRKS2_EEESt20_Sp_alloc_shared_tagIT_EDpOT0_
FN:463,465,_ZNSt10shared_ptrIN6merkle5PathTILm32EXadL_ZNS0_L14sha256_opensslERKNS0_5HashTILm32EEES5_RS3_EEEEEC2ISaIvEJS5_RmNSt7__cxx114listINS7_Ut0_ESaISE_EEEmEEESt20_Sp_alloc_shared_tagIT_EDpOT0_
FN:463,465,_ZNSt10shared_ptrIN6merkle5PathTILm32EXadL_ZNS0_L15sha256_compressERKNS0_5HashTILm32EEES5_RS3_EEEEEC2ISaIvEJS5_RmNSt7__cxx114listINS7_Ut0_ESaISE_EEESB_EEESt20_Sp_alloc_shared_tagIT_EDpOT0_
FN:463,465,_ZNSt10shared_ptrIN6merkle5PathTILm32EXadL_ZNS0_L15sha256_compressERKNS0_5HashTILm32EEES5_RS3_EEEEEC2ISaIvEJS5_RmNSt7__cxx114listINS7_Ut0_ESaISE_EEEmEEESt20_Sp_alloc_shared_tagIT_EDpOT0_
FN:463,465,_ZNSt10shared_ptrIN6merkle5PathTILm48EXadL_ZNS0_L14sha384_opensslERKNS0_5HashTILm48EEES5_RS3_EEEEEC2ISaIvEJS5_RmNSt7__cxx114listINS7_Ut0_ESaISE_EEESB_EEESt20_Sp_alloc_shared_tagIT_EDpOT0_
FN:463,465,_ZNSt10shared_ptrIN6merkle5PathTILm48EXadL_ZNS0_L14sha384_opensslERKNS0_5HashTILm48EEES5_RS3_EEEEEC2ISaIvEJS5_RmNSt7__cxx114listINS7_Ut0_ESaISE_EEEmEEESt20_Sp_alloc_shared_tagIT_EDpOT0_
FN:463,465,_ZNSt10shared_ptrIN6merkle5PathTILm64EXadL_ZNS0_L14sha512_opensslERKNS0_5HashTILm64EEES5_RS3_EEEEEC2ISaIvEJS5_RmNSt7__cxx114listINS7_Ut0_ESaISE_EEESB_EEESt20_Sp_alloc_shared_tagIT_EDpOT0_
FN:463,465,_ZNSt10shared_ptrIN6merkle5PathTILm64EXadL_ZNS0_L14sha512_opensslERKNS0_5HashTILm64EEES5_RS3_EEEEEC2ISaIvEJS5_RmNSt7__cxx114listINS7_Ut0_ESaISE_EEEmEEESt20_Sp_alloc_shared_tagIT_EDpOT0_
FNDA:51359,_ZSt11make_sharedIN6merkle5HashTILm32EEEJRKS2_EESt10shared_ptrINSt9enable_ifIXntsrSt8is_arrayIT_E5valueES8_E4typeEEDpOT0_
FNDA:72,_ZSt11make_sharedIN6merkle5HashTILm48EEEJRKS2_EESt10shared_ptrINSt9enable_ifIXntsrSt8is_arrayIT_E5valueES8_E4typeEEDpOT0_
FNDA:72,_ZSt11make_sharedIN6merkle5HashTILm64EEEJRKS2_EESt10shared_ptrINSt9enable_ifIXntsrSt8is_arrayIT_E5valueES8_E4typeEEDpOT0_
FNDA:2,_ZSt11make_sharedIN6merkle5PathTILm32EXadL_ZNS0_L14sha256_opensslERKNS0_5HashTILm32EEES5_RS3_EEEEJS5_RmNSt7__cxx114listINS7_Ut0_ESaISB_EEEmEESt10shared_ptrINSt9enable_ifIXntsrSt8is_arrayIT_E5valueESH_E4typeEEDpOT0_
FNDA:4698,_ZSt11make_sharedIN6merkle5PathTILm32EXadL_ZNS0_L15sha256_compressERKNS0_5HashTILm32EEES5_RS3_EEEEJS5_RmNSt7__cxx114listINS7_Ut0_ESaISB_EEES8_EESt10shared_ptrINSt9enable_ifIXntsrSt8is_arrayIT_E5valueESH_E4typeEEDpOT0_
FNDA:43293,_ZSt11make_sharedIN6merkle5PathTILm32EXadL_ZNS0_L15sha256_compressERKNS0_5HashTILm32EEES5_RS3_EEEEJS5_RmNSt7__cxx114listINS7_Ut0_ESaISB_EEEmEESt10shared_ptrINSt9enable_ifIXntsrSt8is_arrayIT_E5valueESH_E4typeEEDpOT0_
FNDA:3,_ZSt11make_sharedIN6merkle5PathTILm48EXadL_ZNS0_L14sha384_opensslERKNS0_5HashTILm48EEES5_RS3_EEEEJS5_RmNSt7__cxx114listINS7_Ut0_ESaISB_EEES8_EESt10shared_ptrINSt9enable_ifIXntsrSt8is_arrayIT_E5valueESH_E4typeEEDpOT0_
FNDA:69,_ZSt11make_sharedIN6merkle5PathTILm48EXadL_ZNS0_L14sha384_opensslERKNS0_5HashTILm48EEES5_RS3_EEEEJS5_RmNSt7__cxx114listINS7_Ut0_ESaISB_EEEmEESt10shared_ptrINSt9enable_ifIXntsrSt8is_arrayIT_E5valueESH_E4typeEEDpOT0_
FNDA:3,_ZSt11make_sharedIN6merkle5PathTILm64EXadL_ZNS0_L14sha512_opensslERKNS0_5HashTILm64EEES5_RS3_EEEEJS5_RmNSt7__cxx114listINS7_Ut0_ESaISB_EEES8_EESt10shared_ptrINSt9enable_ifIXntsrSt8is_arrayIT_E5valueESH_E4typeEEDpOT0_
FNDA:69,_ZSt11make_sharedIN6merkle5PathTILm64EXadL_ZNS0_L14sha512_opensslERKNS0_5HashTILm64EEES5_RS3_EEEEJS5_RmNSt7__cxx114listINS7_Ut0_ESaISB_EEEmEESt10shared_ptrINSt9enable_ifIXntsrSt8is_arrayIT_E5valueESH_E4typeEEDpOT0_
FNDA:51359,_ZNSt10shared_ptrIN6merkle5HashTILm32EEEEC2ISaIvEJRKS2_EEESt20_Sp_alloc_shared_tagIT_EDpOT0_
FNDA:72,_ZNSt10shared_ptrIN6merkle5HashTILm48EEEEC2ISaIvEJRKS2_EEESt20_Sp_alloc_shared_tagIT_EDpOT0_
FNDA:72,_ZNSt10shared_ptrIN6merkle5HashTILm64EEEEC2ISaIvEJRKS2_EEESt20_Sp_alloc_shared_tagIT_EDpOT0_
FNDA:2,_ZNSt10shared_ptrIN6merkle5PathTILm32EXadL_ZNS0_L14sha256_opensslERKNS0_5HashTILm32EEES5_RS3_EEEEEC2ISaIvEJS5_RmNSt7__cxx114listINS7_Ut0_ESaISE_EEEmEEESt20_Sp_alloc_shared_tagIT_EDpOT0_
FNDA:4698,_ZNSt10shared_ptrIN6merkle5PathTILm32EXadL_ZNS0_L15sha256_compressERKNS0_5HashTILm32EEES5_RS3_EEEEEC2ISaIvEJS5_RmNSt7__cxx114listINS7_Ut0_ESaISE_EEESB_EEESt20_Sp_alloc_shared_tagIT_EDpOT0_
FNDA:43293,_ZNSt10shared_ptrIN6merkle5PathTILm32EXadL_ZNS0_L15sha256_compressERKNS0_5HashTILm32EEES5_RS3_EEEEEC2ISaIvEJS5_RmNSt7__cxx114listINS7_Ut0_ESaISE_EEEmEEESt20_Sp_alloc_shared_tagIT_EDpOT0_
FNDA:3,_ZNSt10shared_ptrIN6merkle5PathTILm48EXadL_ZNS0_L14sha384_opensslERKNS0_5HashTILm48EEES5_RS3_EEEEEC2ISaIvEJS5_RmNSt7__cxx114listINS7_Ut0_ESaISE_EEESB_EEESt20_Sp_alloc_shared_tagIT_EDpOT0_
FNDA:69,_ZNSt10shared_ptrIN6merkle5PathTILm48EXadL_ZNS0_L14sha384_opensslERKNS0_5HashTILm48EEES5_RS3_EEEEEC2ISaIvEJS5_RmNSt7__cxx114listINS7_Ut0_ESaISE_EEEmEEESt20_Sp_alloc_shared_tagIT_EDpOT0_
FNDA:3,_ZNSt10shared_ptrIN6merkle5PathTILm64EXadL_ZNS0_L14sha512_opensslERKNS0_5HashTILm64EEES5_RS3_EEEEEC2ISaIvEJS5_RmNSt7__cxx114listINS7_Ut0_ESaISE_EEESB_EEESt20_Sp_alloc_shared_tagIT_EDpOT0_
FNDA:69,_ZNSt10shared_ptrIN6merkle5PathTILm64EXadL_ZNS0_L14sha512_opensslERKNS0_5HashTILm64EEES5_RS3_EEEEEC2ISaIvEJS5_RmNSt7__cxx114listINS7_Ut0_ESaISE_EEEmEEESt20_Sp_alloc_shared_tagIT_EDpOT0_
FNF:20
FNH:20
DA:463,99640
DA:464,99640
DA:465,99640
DA:1005,99640
DA:1010,199280
LF:5
LH:5
end_of_record
TN:
SF:/usr/include/c++/13/bits/shared_ptr_base.h
FN:1068,1072,_ZNSt14__shared_countILN9__gnu_cxx12_Lock_policyE2EED2Ev
FN:129,130,_ZNSt16_Sp_counted_baseILN9__gnu_cxx12_Lock_policyE2EEC2Ev
FN:133,134,_ZNSt16_Sp_counted_baseILN9__gnu_cxx12_Lock_policyE2EED0Ev
FN:133,134,_ZNSt16_Sp_counted_baseILN9__gnu_cxx12_Lock_policyE2EED2Ev
FN:1347,1351,_ZNKSt19__shared_ptr_accessIN6merkle5HashTILm32EEELN9__gnu_cxx12_Lock_policyE2ELb0ELb0EEdeEv
FN:1347,1351,_ZNKSt19__shared_ptr_accessIN6merkle5HashTILm48EEELN9__gnu_cxx12_Lock_policyE2ELb0ELb0EEdeEv
FN:1347,1351,_ZNKSt19__shared_ptr_accessIN6merkle5HashTILm64EEELN9__gnu_cxx12_Lock_policyE2ELb0ELb0EEdeEv
FN:1347,1351,_ZNKSt19__shared_ptr_accessIN6merkle5PathTILm32EXadL_ZNS0_L15sha256_compressERKNS0_5HashTILm32EEES5_RS3_EEEELN9__gnu_cxx12_Lock_policyE2ELb0ELb0EEdeEv
FN:1347,1351,_ZNKSt19__shared_ptr_accessIN6merkle5PathTILm48EXadL_ZNS0_L14sha384_opensslERKNS0_5HashTILm48EEES5_RS3_EEEELN9__gnu_cxx12_Lock_policyE2ELb0ELb0EEdeEv
FN:1347,1351,_ZNKSt19__shared_ptr_accessIN6merkle5PathTILm64EXadL_ZNS0_L14sha512_opensslERKNS0_5HashTILm64EEES5_RS3_EEEELN9__gnu_cxx12_Lock_policyE2ELb0ELb0EEdeEv
FN:1354,1358,_ZNKSt19__shared_ptr_accessIN6merkle5HashTILm32EEELN9__gnu_cxx12_Lock_policyE2ELb0ELb0EEptEv
FN:1354,1358,_ZNKSt19__shared_ptr_accessIN6merkle5PathTILm32EXadL_ZNS0_L14sha256_opensslERKNS0_5HashTILm32EEES5_RS3_EEEELN9__gnu_cxx12_Lock_policyE2ELb0ELb0EEptEv
FN:1354,1358,_ZNKSt19__shared_ptr_accessIN6merkle5PathTILm32EXadL_ZNS0_L15sha256_compressERKNS0_5HashTILm32EEES5_RS3_EEEELN9__gnu_cxx12_Lock_policyE2ELb0ELb0EEptEv
FN:1354,1358,_ZNKSt19__shared_ptr_accessIN6merkle5PathTILm48EXadL_ZNS0_L14sha384_opensslERKNS0_5HashTILm48EEES5_RS3_EEEELN9__gnu_cxx12_Lock_policyE2ELb0ELb0EEptEv
FN:1354,1358,_ZNKSt19__shared_ptr_accessIN6merkle5PathTILm64EXadL_ZNS0_L14sha512_opensslERKNS0_5HashTILm64EEES5_RS3_EEEELN9__gnu_cxx12_Lock_policyE2ELb0ELb0EEptEv
FN:1362,1363,_ZNKSt19__shared_ptr_accessIN6merkle5HashTILm32EEELN9__gnu_cxx12_Lock_policyE2ELb0ELb0EE6_M_getEv
FN:1362,1363,_ZNKSt19__shared_ptr_accessIN6merkle5HashTILm48EEELN9__gnu_cxx12_Lock_policyE2ELb0ELb0EE6_M_getEv
FN:1362,1363,_ZNKSt19__shared_ptr_accessIN6merkle5HashTILm64EEELN9__gnu_cxx12_Lock_policyE2ELb0ELb0EE6_M_getEv
FN:1362,1363,_ZNKSt19__shared_ptr_accessIN6merkle5PathTILm32EXadL_ZNS0_L14sha256_opensslERKNS0_5HashTILm32EEES5_RS3_EEEELN9__gnu_cxx12_Lock_policyE2ELb0ELb0EE6_M_getEv
FN:1362,1363,_ZNKSt19__shared_ptr_accessIN6merkle5PathTILm32EXadL_ZNS0_L15sha256_compressERKNS0_5HashTILm32EEES5_RS3_EEEELN9__gnu_cxx12_Lock_policyE2ELb0ELb0EE6_M_getEv
FN:1362,1363,_ZNKSt19__shared_ptr_accessIN6merkle5PathTILm48EXadL_ZNS0_L14sha384_opensslERKNS0_5HashTILm48EEES5_RS3_EEEELN9__gnu_cxx12_Lock_policyE2ELb0ELb0EE6_M_getEv
FN:1362,1363,_ZNKSt19__shared_ptr_accessIN6merkle5PathTILm64EXadL_ZNS0_L14sha512_opensslERKNS0_5HashTILm64EEES5_RS3_EEEELN9__gnu_cxx12_Lock_policyE2ELb0ELb0EE6_M_getEv
FN:143,144,_ZNSt16_Sp_counted_baseILN9__gnu_cxx12_Lock_policyE2EE10_M_destroyEv
FN:1524,1524,_ZNSt12__shared_ptrIN6merkle5HashTILm32EEELN9__gnu_cxx12_Lock_policyE2EED2Ev
FN:1524,1524,_ZNSt12__shared_ptrIN6merkle5HashTILm48EEELN9__gnu_cxx12_Lock_policyE2EED2Ev
FN:1524,1524,_ZNSt12__shared_ptrIN6merkle5HashTILm64EEELN9__gnu_cxx12_Lock_policyE2EED2Ev
FN:1524,1524,_ZNSt12__shared_ptrIN6merkle5PathTILm32EXadL_ZNS0_L14sha256_opensslERKNS0_5HashTILm32EEES5_RS3_EEEELN9__gnu_cxx12_Lock_policyE2EED2Ev
FN:1524,1524,_ZNSt12__shared_ptrIN6merkle5PathTILm32EXadL_ZNS0_L15sha256_compressERKNS0_5HashTILm32EEES5_RS3_EEEELN9__gnu_cxx12_Lock_policyE2EED2Ev
FN:1524,1524,_ZNSt12__shared_ptrIN6merkle5PathTILm48EXadL_ZNS0_L14sha384_opensslERKNS0_5HashTILm48EEES5_RS3_EEEELN9__gnu_cxx12_Lock_policyE2EED2Ev
FN:1524,1524,_ZNSt12__shared_ptrIN6merkle5PathTILm64EXadL_ZNS0_L14sha512_opensslERKNS0_5HashTILm64EEES5_RS3_EEEELN9__gnu_cxx12_Lock_policyE2EED2Ev
FN:1665,1666,_ZNKSt12__shared_ptrIN6merkle5HashTILm32EEELN9__gnu_cxx12_Lock_policyE2EE3getEv
FN:1665,1666,_ZNKSt12__shared_ptrIN6merkle5HashTILm48EEELN9__gnu_cxx12_Lock_policyE2EE3getEv
FN:1665,1666,_ZNKSt12__shared_ptrIN6merkle5HashTILm64EEELN9__gnu_cxx12_Lock_policyE2EE3getEv
FN:1665,1666,_ZNKSt12__shared_ptrIN6merkle5PathTILm32EXadL_ZNS0_L14sha256_opensslERKNS0_5HashTILm32EEES5_RS3_EEEELN9__gnu_cxx12_Lock_policyE2EE3getEv
FN:1665,1666,_ZNKSt12__shared_ptrIN6merkle5PathTILm32EXadL_ZNS0_L15sha256_compressERKNS0_5HashTILm32EEES5_RS3_EEEELN9__gnu_cxx12_Lock_policyE2EE3getEv
FN:1665,1666,_ZNKSt12__shared_ptrIN6merkle5PathTILm48EXadL_ZNS0_L14sha384_opensslERKNS0_5HashTILm48EEES5_RS3_EEEELN9__gnu_cxx12_Lock_policyE2EE3getEv
FN:1665,1666,_ZNKSt12__shared_ptrIN6merkle5PathTILm64EXadL_ZNS0_L14sha512_opensslERKNS0_5HashTILm64EEES5_RS3_EEEELN9__gnu_cxx12_Lock_policyE2EE3getEv
FN:1711,1713,_ZNSt12__shared_ptrIN6merkle5HashTILm32EEELN9__gnu_cxx12_Lock_policyE2EEC2ISaIvEJRKS2_EEESt20_Sp_alloc_shared_tagIT_EDpOT0_
FN:1711,1713,_ZNSt12__shared_ptrIN6merkle5HashTILm48EEELN9__gnu_cxx12_Lock_policyE2EEC2ISaIvEJRKS2_EEESt20_Sp_alloc_shared_tagIT_EDpOT0_
FN:1711,1713,_ZNSt12__shared_ptrIN6merkle5HashTILm64EEELN9__gnu_cxx12_Lock_policyE2EEC2ISaIvEJRKS2_EEESt20_Sp_alloc_shared_tagIT_EDpOT0_
FN:1711,1713,_ZNSt12__shared_ptrIN6merkle5PathTILm32EXadL_ZNS0_L14sha256_opensslERKNS0_5HashTILm32EEES5_RS3_EEEELN9__gnu_cxx12_Lock_policyE2EEC2ISaIvEJS5_RmNSt7__cxx114listINS7_Ut0_ESaISG_EEEmEEESt20_Sp_alloc_shared_tagIT_EDpOT0_
FN:1711,1713,_ZNSt12__shared_ptrIN6merkle5PathTILm32EXadL_ZNS0_L15sha256_compressERKNS0_5HashTILm32EEES5_RS3_EEEELN9__gnu_cxx12_Lock_policyE2EEC2ISaIvEJS5_RmNSt7__cxx114listINS7_Ut0_ESaISG_EEESD_EEESt20_Sp_alloc_shared_tagIT_EDpOT0_
FN:1711,1713,_ZNSt12__shared_ptrIN6merkle5PathTILm32EXadL_ZNS0_L15sha256_compressERKNS0_5HashTILm32EEES5_RS3_EEEELN9__gnu_cxx12_Lock_policyE2EEC2ISaIvEJS5_RmNSt7__cxx114listINS7_Ut0_ESaISG_EEEmEEESt20_Sp_alloc_shared_tagIT_EDpOT0_
FN:1711,1713,_ZNSt12__shared_ptrIN6merkle5PathTILm48EXadL_ZNS0_L14sha384_opensslERKNS0_5HashTILm48EEES5_RS3_EEEELN9__gnu_cxx12_Lock_policyE2EEC2ISaIvEJS5_RmNSt7__cxx114listINS7_Ut0_ESaISG_EEESD_EEESt20_Sp_alloc_shared_tagIT_EDpOT0_
FN:1711,1713,_ZNSt12__shared_ptrIN6merkle5PathTILm48EXadL_ZNS0_L14sha384_opensslERKNS0_5HashTILm48EEES5_RS3_EEEELN9__gnu_cxx12_Lock_policyE2EEC2ISaIvEJS5_RmNSt7__cxx114listINS7_Ut0_ESaISG_EEEmEEESt20_Sp_alloc_shared_tagIT_EDpOT0_
FN:1711,1713,_ZNSt12__shared_ptrIN6merkle5PathTILm64EXadL_ZNS0_L14sha512_opensslERKNS0_5HashTILm64EEES5_RS3_EEEELN9__gnu_cxx12_Lock_policyE2EEC2ISaIvEJS5_RmNSt7__cxx114listINS7_Ut0_ESaISG_EEESD_EEESt20_Sp_alloc_shared_tagIT_EDpOT0_
FN:1711,1713,_ZNSt12__shared_ptrIN6merkle5PathTILm64EXadL_ZNS0_L14sha512_opensslERKNS0_5HashTILm64EEES5_RS3_EEEELN9__gnu_cxx12_Lock_policyE2EEC2ISaIvEJS5_RmNSt7__cxx114listINS7_Ut0_ESaISG_EEEmEEESt20_Sp_alloc_shared_tagIT_EDpOT0_
FN:172,193,_ZNSt16_Sp_counted_baseILN9__gnu_cxx12_Lock_policyE2EE19_M_release_last_useEv
FN:1765,1766,_ZNSt12__shared_ptrIN6merkle5HashTILm32EEELN9__gnu_cxx12_Lock_policyE2EE31_M_enable_shared_from_this_withIS2_S2_EENSt9enable_ifIXntsrNS5_15__has_esft_baseIT0_vEE5valueEvE4typeEPT_
FN:1765,1766,_ZNSt12__shared_ptrIN6merkle5HashTILm48EEELN9__gnu_cxx12_Lock_policyE2EE31_M_enable_shared_from_this_withIS2_S2_EENSt9enable_ifIXntsrNS5_15__has_esft_baseIT0_vEE5valueEvE4typeEPT_
FN:1765,1766,_ZNSt12__shared_ptrIN6merkle5HashTILm64EEELN9__gnu_cxx12_Lock_policyE2EE31_M_enable_shared_from_this_withIS2_S2_EENSt9enable_ifIXntsrNS5_15__has_esft_baseIT0_vEE5valueEvE4typeEPT_
FN:1765,1766,_ZNSt12__shared_ptrIN6merkle5PathTILm32EXadL_ZNS0_L14sha256_opensslERKNS0_5HashTILm32EEES5_RS3_EEEELN9__gnu_cxx12_Lock_policyE2EE31_M_enable_shared_from_this_withIS7_S7_EENSt9enable_ifIXntsrNSA_15__has_esft_baseIT0_vEE5valueEvE4typeEPT_
FN:1765,1766,_ZNSt12__shared_ptrIN6merkle5PathTILm32EXadL_ZNS0_L15sha256_compressERKNS0_5HashTILm32EEES5_RS3_EEEELN9__gnu_cxx12_Lock_policyE2EE31_M_enable_shared_from_this_withIS7_S7_EENSt9enable_ifIXntsrNSA_15__has_esft_baseIT0_vEE5valueEvE4typeEPT_
FN:1765,1766,_ZNSt12__shared_ptrIN6merkle5PathTILm48EXadL_ZNS0_L14sha384_opensslERKNS0_5HashTILm48EEES5_RS3_EEEELN9__gnu_cxx12_Lock_policyE2EE31_M_enable_shared_from_this_withIS7_S7_EENSt9enable_ifIXntsrNSA_15__has_esft_baseIT0_vEE5valueEvE4typeEPT_
FN:1765,1766,_ZNSt12__shared_ptrIN6merkle5PathTILm64EXadL_ZNS0_L14sha512_opensslERKNS0_5HashTILm64EEES5_RS3_EEEELN9__gnu_cxx12_Lock_policyE2EE31_M_enable_shared_from_this_withIS7_S7_EENSt9enable_ifIXntsrNSA_15__has_esft_baseIT0_vEE5valueEvE4typeEPT_
FN:198,199,_ZNSt16_Sp_counted_baseILN9__gnu_cxx12_Lock_policyE2EE24_M_release_last_use_coldEv
FN:317,363,_ZNSt16_Sp_counted_baseILN9__gnu_cxx12_Lock_policyE2EE10_M_releaseEv
FN:470,470,_ZNSt14_Sp_ebo_helperILi0ESaIvELb1EEC2ERKS0_
FN:474,474,_ZNSt14_Sp_ebo_helperILi0ESaIvELb1EE6_S_getERS1_
FN:564,568,_ZNSt19_Sp_make_shared_tag5_S_tiEv
FN:587,587,_ZNSt23_Sp_counted_ptr_inplaceIN6merkle5HashTILm32EEESaIvELN9__gnu_cxx12_Lock_policyE2EE5_ImplC2ES3_
FN:587,587,_ZNSt23_Sp_counted_ptr_inplaceIN6merkle5HashTILm48EEESaIvELN9__gnu_cxx12_Lock_policyE2EE5_ImplC2ES3_
FN:587,587,_ZNSt23_Sp_counted_ptr_inplaceIN6merkle5HashTILm64EEESaIvELN9__gnu_cxx12_Lock_policyE2EE5_ImplC2ES3_
FN:587,587,_ZNSt23_Sp_counted_ptr_inplaceIN6merkle5PathTILm32EXadL_ZNS0_L14sha256_opensslERKNS0_5HashTILm32EEES5_RS3_EEEESaIvELN9__gnu_cxx12_Lock_policyE2EE5_ImplC2ES8_
FN:587,587,_ZNSt23_Sp_counted_ptr_inplaceIN6merkle5PathTILm32EXadL_ZNS0_L15sha256_compressERKNS0_5HashTILm32EEES5_RS3_EEEESaIvELN9__gnu_cxx12_Lock_policyE2EE5_ImplC2ES8_
FN:587,587,_ZNSt23_Sp_counted_ptr_inplaceIN6merkle5PathTILm48EXadL_ZNS0_L14sha384_opensslERKNS0_5HashTILm48EEES5_RS3_EEEESaIvELN9__gnu_cxx12_Lock_policyE2EE5_ImplC2ES8_
FN:587,587,_ZNSt23_Sp_counted_ptr_inplaceIN6merkle5PathTILm64EXadL_ZNS0_L14sha512_opensslERKNS0_5HashTILm64EEES5_RS3_EEEESaIvELN9__gnu_cxx12_Lock_policyE2EE5_ImplC2ES8_
FN:589,589,_ZNSt23_Sp_counted_ptr_inplaceIN6merkle5HashTILm32EEESaIvELN9__gnu_cxx12_Lock_policyE2EE5_Impl8_M_allocEv
FN:589,589,_ZNSt23_Sp_counted_ptr_inplaceIN6merkle5HashTILm48EEESaIvELN9__gnu_cxx12_Lock_policyE2EE5_Impl8_M_allocEv
FN:589,589,_ZNSt23_Sp_counted_ptr_inplaceIN6merkle5HashTILm64EEESaIvELN9__gnu_cxx12_Lock_policyE2EE5_Impl8_M_allocEv
FN:589,589,_ZNSt23_Sp_counted_ptr_inplaceIN6merkle5PathTILm32EXadL_ZNS0_L14sha256_opensslERKNS0_5HashTILm32EEES5_RS3_EEEESaIvELN9__gnu_cxx12_Lock_policyE2EE5_Impl8_M_allocEv
FN:589,589,_ZNSt23_Sp_counted_ptr_inplaceIN6merkle5PathTILm32EXadL_ZNS0_L15sha256_compressERKNS0_5HashTILm32EEES5_RS3_EEEESaIvELN9__gnu_cxx12_Lock_policyE2EE5_Impl8_M_allocEv
FN:589,589,_ZNSt23_Sp_counted_ptr_inplaceIN6merkle5PathTILm48EXadL_ZNS0_L14sha384_opensslERKNS0_5HashTILm48EEES5_RS3_EEEESaIvELN9__gnu_cxx12_Lock_policyE2EE5_Impl8_M_allocEv
FN:589,589,_ZNSt23_Sp_counted_ptr_inplaceIN6merkle5PathTILm64EXadL_ZNS0_L14sha512_opensslERKNS0_5HashTILm64EEES5_RS3_EEEESaIvELN9__gnu_cxx12_Lock_policyE2EE5_Impl8_M_allocEv
FN:599,606,_ZNSt23_Sp_counted_ptr_inplaceIN6merkle5HashTILm32EEESaIvELN9__gnu_cxx12_Lock_policyE2EEC2IJRKS2_EEES3_DpOT_
FN:599,606,_ZNSt23_Sp_counted_ptr_inplaceIN6merkle5HashTILm48EEESaIvELN9__gnu_cxx12_Lock_policyE2EEC2IJRKS2_EEES3_DpOT_
FN:599,606,_ZNSt23_Sp_counted_ptr_inplaceIN6merkle5HashTILm64EEESaIvELN9__gnu_cxx12_Lock_policyE2EEC2IJRKS2_EEES3_DpOT_
FN:599,606,_ZNSt23_Sp_counted_ptr_inplaceIN6merkle5PathTILm32EXadL_ZNS0_L14sha256_opensslERKNS0_5HashTILm32EEES5_RS3_EEEESaIvELN9__gnu_cxx12_Lock_policyE2EEC2IJS5_RmNSt7__cxx114listINS7_Ut0_ESaISG_EEEmEEES8_DpOT_
FN:599,606,_ZNSt23_Sp_counted_ptr_inplaceIN6merkle5PathTILm32EXadL_ZNS0_L15sha256_compressERKNS0_5HashTILm32EEES5_RS3_EEEESaIvELN9__gnu_cxx12_Lock_policyE2EEC2IJS5_RmNSt7__cxx114listINS7_Ut0_ESaISG_EEESD_EEES8_DpOT_
FN:599,606,_ZNSt23_Sp_counted_ptr_inplaceIN6merkle5PathTILm32EXadL_ZNS0_L15sha256_compressERKNS0_5HashTILm32EEES5_RS3_EEEESaIvELN9__gnu_cxx12_Lock_policyE2EEC2IJS5_RmNSt7__cxx114listINS7_Ut0_ESaISG_EEEmEEES8_DpOT_
FN:599,606,_ZNSt23_Sp_counted_ptr_inplaceIN6merkle5PathTILm48EXadL_ZNS0_L14sha384_opensslERKNS0_5HashTILm48EEES5_RS3_EEEESaIvELN9__gnu_cxx12_Lock_policyE2EEC2IJS5_RmNSt7__cxx114listINS7_Ut0_ESaISG_EEESD_EEES8_DpOT_
FN:599,606,_ZNSt23_Sp_counted_ptr_inplaceIN6merkle5PathTILm48EXadL_ZNS0_L14sha384_opensslERKNS0_5HashTILm48EEES5_RS3_EEEESaIvELN9__gnu_cxx12_Lock_policyE2EEC2IJS5_RmNSt7__cxx114listINS7_Ut0_ESaISG_EEEmEEES8_DpOT_
FN:599,606,_ZNSt23_Sp_counted_ptr_inplaceIN6merkle5PathTILm64EXadL_ZNS0_L14sha512_opensslERKNS0_5HashTILm64EEES5_RS3_EEEESaIvELN9__gnu_cxx12_Lock_policyE2EEC2IJS5_RmNSt7__cxx114listINS7_Ut0_ESaISG_EEESD_EEES8_DpOT_
FN:599,606,_ZNSt23_Sp_counted_ptr_inplaceIN6merkle5PathTILm64EXadL_ZNS0_L14sha512_opensslERKNS0_5HashTILm64EEES5_RS3_EEEESaIvELN9__gnu_cxx12_Lock_policyE2EEC2IJS5_RmNSt7__cxx114listINS7_Ut0_ESaISG_EEEmEEES8_DpOT_
FN:608,608,_ZNSt23_Sp_counted_ptr_inplaceIN6merkle5HashTILm32EEESaIvELN9__gnu_cxx12_Lock_policyE2EED0Ev
FN:608,608,_ZNSt23_Sp_counted_ptr_inplaceIN6merkle5HashTILm32EEESaIvELN9__gnu_cxx12_Lock_policyE2EED2Ev
FN:608,608,_ZNSt23_Sp_counted_ptr_inplaceIN6merkle5HashTILm48EEESaIvELN9__gnu_cxx12_Lock_policyE2EED0Ev
FN:608,608,_ZNSt23_Sp_counted_ptr_inplaceIN6merkle5HashTILm48EEESaIvELN9__gnu_cxx12_Lock_policyE2EED2Ev
FN:608,608,_ZNSt23_Sp_counted_ptr_inplaceIN6merkle5HashTILm64EEESaIvELN9__gnu_cxx12_Lock_policyE2EED0Ev
FN:608,608,_ZNSt23_Sp_counted_ptr_inplaceIN6merkle5HashTILm64EEESaIvELN9__gnu_cxx12_Lock_policyE2EED2Ev
FN:608,608,_ZNSt23_Sp_counted_ptr_inplaceIN6merkle5PathTILm32EXadL_ZNS0_L14sha256_opensslERKNS0_5HashTILm32EEES5_RS3_EEEESaIvELN9__gnu_cxx12_Lock_policyE2EED0Ev
FN:608,608,_ZNSt23_Sp_counted_ptr_inplaceIN6merkle5PathTILm32EXadL_ZNS0_L14sha256_opensslERKNS0_5HashTILm32EEES5_RS3_EEEESaIvELN9__gnu_cxx12_Lock_policyE2EED2Ev
FN:608,608,_ZNSt23_Sp_counted_ptr_inplaceIN6merkle5PathTILm32EXadL_ZNS0_L15sha256_compressERKNS0_5HashTILm32EEES5_RS3_EEEESaIvELN9__gnu_cxx12_Lock_policyE2EED0Ev
FN:608,608,_ZNSt23_Sp_counted_ptr_inplaceIN6merkle5PathTILm32EXadL_ZNS0_L15sha256_compressERKNS0_5HashTILm32EEES5_RS3_EEEESaIvELN9__gnu_cxx12_Lock_policyE2EED2Ev
FN:608,608,_ZNSt23_Sp_counted_ptr_inplaceIN6merkle5PathTILm48EXadL_ZNS0_L14sha384_opensslERKNS0_5HashTILm48EEES5_RS3_EEEESaIvELN9__gnu_cxx12_Lock_policyE2EED0Ev
FN:608,608,_ZNSt23_Sp_counted_ptr_inplaceIN6merkle5PathTILm48EXadL_ZNS0_L14sha384_opensslERKNS0_5HashTILm48EEES5_RS3_EEEESaIvELN9__gnu_cxx12_Lock_policyE2EED2Ev
FN:608,608,_ZNSt23_Sp_counted_ptr_inplaceIN6merkle5PathTILm64EXadL_ZNS0_L14sha512_opensslERKNS0_5HashTILm64EEES5_RS3_EEEESaIvELN9__gnu_cxx12_Lock_policyE2EED0Ev
FN:608,608,_ZNSt23_Sp_counted_ptr_inplaceIN6merkle5PathTILm64EXadL_ZNS0_L14sha512_opensslERKNS0_5HashTILm64EEES5_RS3_EEEESaIvELN9__gnu_cxx12_Lock_policyE2EED2Ev
FN:611,614,_ZNSt23_Sp_counted_ptr_inplaceIN6merkle5HashTILm32EEESaIvELN9__gnu_cxx12_Lock_policyE2EE10_M_disposeEv
FN:611,614,_ZNSt23_Sp_counted_ptr_inplaceIN6merkle5HashTILm48EEESaIvELN9__gnu_cxx12_Lock_policyE2EE10_M_disposeEv
FN:611,614,_ZNSt23_Sp_counted_ptr_inplaceIN6merkle5HashTILm64EEESaIvELN9__gnu_cxx12_Lock_policyE2EE10_M_disposeEv
FN:611,614,_ZNSt23_Sp_counted_ptr_inplaceIN6merkle5PathTILm32EXadL_ZNS0_L14sha256_opensslERKNS0_5HashTILm32EEES5_RS3_EEEESaIvELN9__gnu_cxx12_Lock_policyE2EE10_M_disposeEv
FN:611,614,_ZNSt23_Sp_counted_ptr_inplaceIN6merkle5PathTILm32EXadL_ZNS0_L15sha256_compressERKNS0_5HashTILm32EEES5_RS3_EEEESaIvELN9__gnu_cxx12_Lock_policyE2EE10_M_disposeEv
FN:611,614,_ZNSt23_Sp_counted_ptr_inplaceIN6merkle5PathTILm48EXadL_ZNS0_L14sha384_opensslERKNS0_5HashTILm48EEES5_RS3_EEEESaIvELN9__gnu_cxx12_Lock_policyE2EE10_M_disposeEv
FN:611,614,_ZNSt23_Sp_counted_ptr_inplaceIN6merkle5PathTILm64EXadL_ZNS0_L14sha512_opensslERKNS0_5HashTILm64EEES5_RS3_EEEESaIvELN9__gnu_cxx12_Lock_policyE2EE10_M_disposeEv
FN:618,623,_ZNSt23_Sp_counted_ptr_inplaceIN6merkle5HashTILm32EEESaIvELN9__gnu_cxx12_Lock_policyE2EE10_M_destroyEv
FN:618,623,_ZNSt23_Sp_counted_ptr_inplaceIN6merkle5HashTILm48EEESaIvELN9__gnu_cxx12_Lock_policyE2EE10_M_destroyEv
FN:618,623,_ZNSt23_Sp_counted_ptr_inplaceIN6merkle5HashTILm64EEESaIvELN9__gnu_cxx12_Lock_policyE2EE10_M_destroyEv
FN:618,623,_ZNSt23_Sp_counted_ptr_inplaceIN6merkle5PathTILm32EXadL_ZNS0_L14sha256_opensslERKNS0_5HashTILm32EEES5_RS3_EEEESaIvELN9__gnu_cxx12_Lock_policyE2EE10_M_destroyEv
FN:618,623,_ZNSt23_Sp_counted_ptr_inplaceIN6merkle5PathTILm32EXadL_ZNS0_L15sha256_compressERKNS0_5HashTILm32EEES5_RS3_EEEESaIvELN9__gnu_cxx12_Lock_policyE2EE10_M_destroyEv
FN:618,623,_ZNSt23_Sp_counted_ptr_inplaceIN6merkle5PathTILm48EXadL_ZNS0_L14sha384_opensslERKNS0_5HashTILm48EEES5_RS3_EEEESaIvELN9__gnu_cxx12_Lock_policyE2EE10_M_destroyEv
FN:618,623,_ZNSt23_Sp_counted_ptr_inplaceIN6merkle5PathTILm64EXadL_ZNS0_L14sha512_opensslERKNS0_5HashTILm64EEES5_RS3_EEEESaIvELN9__gnu_cxx12_Lock_policyE2EE10_M_destroyEv
FN:631,648,_ZNSt23_Sp_counted_ptr_inplaceIN6merkle5HashTILm32EEESaIvELN9__gnu_cxx12_Lock_policyE2EE14_M_get_deleterERKSt9type_info
FN:631,648,_ZNSt23_Sp_counted_ptr_inplaceIN6merkle5HashTILm48EEESaIvELN9__gnu_cxx12_Lock_policyE2EE14_M_get_deleterERKSt9type_info
FN:631,648,_ZNSt23_Sp_counted_ptr_inplaceIN6merkle5HashTILm64EEESaIvELN9__gnu_cxx12_Lock_policyE2EE14_M_get_deleterERKSt9type_info
FN:631,648,_ZNSt23_Sp_counted_ptr_inplaceIN6merkle5PathTILm32EXadL_ZNS0_L14sha256_opensslERKNS0_5HashTILm32EEES5_RS3_EEEESaIvELN9__gnu_cxx12_Lock_policyE2EE14_M_get_deleterERKSt9type_info
FN:631,648,_ZNSt23_Sp_counted_ptr_inplaceIN6merkle5PathTILm32EXadL_ZNS0_L15sha256_compressERKNS0_5HashTILm32EEES5_RS3_EEEESaIvELN9__gnu_cxx12_Lock_policyE2EE14_M_get_deleterERKSt9type_info
FN:631,648,_ZNSt23_Sp_counted_ptr_inplaceIN6merkle5PathTILm48EXadL_ZNS0_L14sha384_opensslERKNS0_5HashTILm48EEES5_RS3_EEEESaIvELN9__gnu_cxx12_Lock_policyE2EE14_M_get_deleterERKSt9type_info
FN:631,648,_ZNSt23_Sp_counted_ptr_inplaceIN6merkle5PathTILm64EXadL_ZNS0_L14sha512_opensslERKNS0_5HashTILm64EEES5_RS3_EEEESaIvELN9__gnu_cxx12_Lock_policyE2EE14_M_get_deleterERKSt9type_info
FN:650,650,_ZNSt23_Sp_counted_ptr_inplaceIN6merkle5HashTILm32EEESaIvELN9__gnu_cxx12_Lock_policyE2EE6_M_ptrEv
FN:650,650,_ZNSt23_Sp_counted_ptr_inplaceIN6merkle5HashTILm48EEESaIvELN9__gnu_cxx12_Lock_policyE2EE6_M_ptrEv
FN:650,650,_ZNSt23_Sp_counted_ptr_inplaceIN6merkle5HashTILm64EEESaIvELN9__gnu_cxx12_Lock_policyE2EE6_M_ptrEv
FN:650,650,_ZNSt23_Sp_counted_ptr_inplaceIN6merkle5PathTILm32EXadL_ZNS0_L14sha256_opensslERKNS0_5HashTILm32EEES5_RS3_EEEESaIvELN9__gnu_cxx12_Lock_policyE2EE6_M_ptrEv
FN:650,650,_ZNSt23_Sp_counted_ptr_inplaceIN6merkle5PathTILm32EXadL_ZNS0_L15sha256_compressERKNS0_5HashTILm32EEES5_RS3_EEEESaIvELN9__gnu_cxx12_Lock_policyE2EE6_M_ptrEv
FN:650,650,_ZNSt23_Sp_counted_ptr_inplaceIN6merkle5PathTILm48EXadL_ZNS0_L14sha384_opensslERKNS0_5HashTILm48EEES5_RS3_EEEESaIvELN9__gnu_cxx12_Lock_policyE2EE6_M_ptrEv
FN:650,650,_ZNSt23_Sp_counted_ptr_inplaceIN6merkle5PathTILm64EXadL_ZNS0_L14sha512_opensslERKNS0_5HashTILm64EEES5_RS3_EEEESaIvELN9__gnu_cxx12_Lock_policyE2EE6_M_ptrEv
FN:964,976,_ZNSt14__shared_countILN9__gnu_cxx12_Lock_policyE2EEC2IN6merkle5HashTILm32EEESaIvEJRKS6_EEERPT_St20_Sp_alloc_shared_tagIT0_EDpOT1_
FN:964,976,_ZNSt14__shared_countILN9__gnu_cxx12_Lock_policyE2EEC2IN6merkle5HashTILm48EEESaIvEJRKS6_EEERPT_St20_Sp_alloc_shared_tagIT0_EDpOT1_
FN:964,976,_ZNSt14__shared_countILN9__gnu_cxx12_Lock_policyE2EEC2IN6merkle5HashTILm64EEESaIvEJRKS6_EEERPT_St20_Sp_alloc_shared_tagIT0_EDpOT1_
FN:964,976,_ZNSt14__shared_countILN9__gnu_cxx12_Lock_policyE2EEC2IN6merkle5PathTILm32EXadL_ZNS4_L14sha256_opensslERKNS4_5HashTILm32EEES9_RS7_EEEESaIvEJS9_RmNSt7__cxx114listINSB_Ut0_ESaISG_EEEmEEERPT_St20_Sp_alloc_shared_tagIT0_EDpOT1_
FN:964,976,_ZNSt14__shared_countILN9__gnu_cxx12_Lock_policyE2EEC2IN6merkle5PathTILm32EXadL_ZNS4_L15sha256_compressERKNS4_5HashTILm32EEES9_RS7_EEEESaIvEJS9_RmNSt7__cxx114listINSB_Ut0_ESaISG_EEESD_EEERPT_St20_Sp_alloc_shared_tagIT0_EDpOT1_
FN:964,976,_ZNSt14__shared_countILN9__gnu_cxx12_Lock_policyE2EEC2IN6merkle5PathTILm32EXadL_ZNS4_L15sha256_compressERKNS4_5HashTILm32EEES9_RS7_EEEESaIvEJS9_RmNSt7__cxx114listINSB_Ut0_ESaISG_EEEmEEERPT_St20_Sp_alloc_shared_tagIT0_EDpOT1_
FN:964,976,_ZNSt14__shared_countILN9__gnu_cxx12_Lock_policyE2EEC2IN6merkle5PathTILm48EXadL_ZNS4_L14sha384_opensslERKNS4_5HashTILm48EEES9_RS7_EEEESaIvEJS9_RmNSt7__cxx114listINSB_Ut0_ESaISG_EEESD_EEERPT_St20_Sp_alloc_shared_tagIT0_EDpOT1_
FN:964,976,_ZNSt14__shared_countILN9__gnu_cxx12_Lock_policyE2EEC2IN6merkle5PathTILm48EXadL_ZNS4_L14sha384_opensslERKNS4_5HashTILm48EEES9_RS7_EEEESaIvEJS9_RmNSt7__cxx114listINSB_Ut0_ESaISG_EEEmEEERPT_St20_Sp_alloc_shared_tagIT0_EDpOT1_
FN:964,976,_ZNSt14__shared_countILN9__gnu_cxx12_Lock_policyE2EEC2IN6merkle5PathTILm64EXadL_ZNS4_L14sha512_opensslERKNS4_5HashTILm64EEES9_RS7_EEEESaIvEJS9_RmNSt7__cxx114listINSB_Ut0_ESaISG_EEESD_EEERPT_St20_Sp_alloc_shared_tagIT0_EDpOT1_
FN:964,976,_ZNSt14__shared_countILN9__gnu_cxx12_Lock_policyE2EEC2IN6merkle5PathTILm64EXadL_ZNS4_L14sha512_opensslERKNS4_5HashTILm64EEES9_RS7_EEEESaIvEJS9_RmNSt7__cxx114listINSB_Ut0_ESaISG_EEEmEEERPT_St20_Sp_alloc_shared_tagIT0_EDpOT1_
FNDA:99640,_ZNSt14__shared_countILN9__gnu_cxx12_Lock_policyE2EED2Ev
FNDA:99640,_ZNSt16_Sp_counted_baseILN9__gnu_cxx12_Lock_policyE2EEC2Ev
FNDA:0,_ZNSt16_Sp_counted_baseILN9__gnu_cxx12_Lock_policyE2EED0Ev
FNDA:99640,_ZNSt16_Sp_counted_baseILN9__gnu_cxx12_Lock_policyE2EED2Ev
FNDA:820719,_ZNKSt19__shared_ptr_accessIN6merkle5HashTILm32EEELN9__gnu_cxx12_Lock_policyE2ELb0ELb0EEdeEv
FNDA:846,_ZNKSt19__shared_ptr_accessIN6merkle5HashTILm48EEELN9__gnu_cxx12_Lock_policyE2ELb0ELb0EEdeEv
FNDA:846,_ZNKSt19__shared_ptr_accessIN6merkle5HashTILm64EEELN9__gnu_cxx12_Lock_policyE2ELb0ELb0EEdeEv
FNDA:45745,_ZNKSt19__shared_ptr_accessIN6merkle5PathTILm32EXadL_ZNS0_L15sha256_compressERKNS0_5HashTILm32EEES5_RS3_EEEELN9__gnu_cxx12_Lock_policyE2ELb0ELb0EEdeEv
FNDA:4,_ZNKSt19__shared_ptr_accessIN6merkle5PathTILm48EXadL_ZNS0_L14sha384_opensslERKNS0_5HashTILm48EEES5_RS3_EEEELN9__gnu_cxx12_Lock_policyE2ELb0ELb0EEdeEv
FNDA:4,_ZNKSt19__shared_ptr_accessIN6merkle5PathTILm64EXadL_ZNS0_L14sha512_opensslERKNS0_5HashTILm64EEES5_RS3_EEEELN9__gnu_cxx12_Lock_policyE2ELb0ELb0EEdeEv
FNDA:0,_ZNKSt19__shared_ptr_accessIN6merkle5HashTILm32EEELN9__gnu_cxx12_Lock_policyE2ELb0ELb0EEptEv
FNDA:2,_ZNKSt19__shared_ptr_accessIN6merkle5PathTILm32EXadL_ZNS0_L14sha256_opensslERKNS0_5HashTILm32EEES5_RS3_EEEELN9__gnu_cxx12_Lock_policyE2ELb0ELb0EEptEv
FNDA:55871,_ZNKSt19__shared_ptr_accessIN6merkle5PathTILm32EXadL_ZNS0_L15sha256_compressERKNS0_5HashTILm32EEES5_RS3_EEEELN9__gnu_cxx12_Lock_policyE2ELb0ELb0EEptEv
FNDA:204,_ZNKSt19__shared_ptr_accessIN6merkle5PathTILm48EXadL_ZNS0_L14sha384_opensslERKNS0_5HashTILm48EEES5_RS3_EEEELN9__gnu_cxx12_Lock_policyE2ELb0ELb0EEptEv
FNDA:204,_ZNKSt19__shared_ptr_accessIN6merkle5PathTILm64EXadL_ZNS0_L14sha512_opensslERKNS0_5HashTILm64EEES5_RS3_EEEELN9__gnu_cxx12_Lock_policyE2ELb0ELb0EEptEv
FNDA:820719,_ZNKSt19__shared_ptr_accessIN6merkle5HashTILm32EEELN9__gnu_cxx12_Lock_policyE2ELb0ELb0EE6_M_getEv
FNDA:846,_ZNKSt19__shared_ptr_accessIN6merkle5HashTILm48EEELN9__gnu_cxx12_Lock_policyE2ELb0ELb0EE6_M_getEv
FNDA:846,_ZNKSt19__shared_ptr_accessIN6merkle5HashTILm64EEELN9__gnu_cxx12_Lock_policyE2ELb0ELb0EE6_M_getEv
FNDA:2,_ZNKSt19__shared_ptr_accessIN6merkle5PathTILm32EXadL_ZNS0_L14sha256_opensslERKNS0_5HashTILm32EEES5_RS3_EEEELN9__gnu_cxx12_Lock_policyE2ELb0ELb0EE6_M_getEv
FNDA:101616,_ZNKSt19__shared_ptr_accessIN6merkle5PathTILm32EXadL_ZNS0_L15sha256_compressERKNS0_5HashTILm32EEES5_RS3_EEEELN9__gnu_cxx12_Lock_policyE2ELb0ELb0EE6_M_getEv
FNDA:208,_ZNKSt19__shared_ptr_accessIN6merkle5PathTILm48EXadL_ZNS0_L14sha384_opensslERKNS0_5HashTILm48EEES5_RS3_EEEELN9__gnu_cxx12_Lock_policyE2ELb0ELb0EE6_M_getEv
FNDA:208,_ZNKSt19__shared_ptr_accessIN6merkle5PathTILm64EXadL_ZNS0_L14sha512_opensslERKNS0_5HashTILm64EEES5_RS3_EEEELN9__gnu_cxx12_Lock_policyE2ELb0ELb0EE6_M_getEv
FNDA:0,_ZNSt16_Sp_counted_baseILN9__gnu_cxx12_Lock_policyE2EE10_M_destroyEv
FNDA:51359,_ZNSt12__shared_ptrIN6merkle5HashTILm32EEELN9__gnu_cxx12_Lock_policyE2EED2Ev
FNDA:72,_ZNSt12__shared_ptrIN6merkle5HashTILm48EEELN9__gnu_cxx12_Lock_policyE2EED2Ev
FNDA:72,_ZNSt12__shared_ptrIN6merkle5HashTILm64EEELN9__gnu_cxx12_Lock_policyE2EED2Ev
FNDA:2,_ZNSt12__shared_ptrIN6merkle5PathTILm32EXadL_ZNS0_L14sha256_opensslERKNS0_5HashTILm32EEES5_RS3_EEEELN9__gnu_cxx12_Lock_policyE2EED2Ev
FNDA:47991,_ZNSt12__shared_ptrIN6merkle5PathTILm32EXadL_ZNS0_L15sha256_compressERKNS0_5HashTILm32EEES5_RS3_EEEELN9__gnu_cxx12_Lock_policyE2EED2Ev
FNDA:72,_ZNSt12__shared_ptrIN6merkle5PathTILm48EXadL_ZNS0_L14sha384_opensslERKNS0_5HashTILm48EEES5_RS3_EEEELN9__gnu_cxx12_Lock_policyE2EED2Ev
FNDA:72,_ZNSt12__shared_ptrIN6merkle5PathTILm64EXadL_ZNS0_L14sha512_opensslERKNS0_5HashTILm64EEES5_RS3_EEEELN9__gnu_cxx12_Lock_policyE2EED2Ev
FNDA:820719,_ZNKSt12__shared_ptrIN6merkle5HashTILm32EEELN9__gnu_cxx12_Lock_policyE2EE3getEv
FNDA:846,_ZNKSt12__shared_ptrIN6merkle5HashTILm48EEELN9__gnu_cxx12_Lock_policyE2EE3getEv
FNDA:846,_ZNKSt12__shared_ptrIN6merkle5HashTILm64EEELN9__gnu_cxx12_Lock_policyE2EE3getEv
FNDA:2,_ZNKSt12__shared_ptrIN6merkle5PathTILm32EXadL_ZNS0_L14sha256_opensslERKNS0_5HashTILm32EEES5_RS3_EEEELN9__gnu_cxx12_Lock_policyE2EE3getEv
FNDA:101616,_ZNKSt12__shared_ptrIN6merkle5PathTILm32EXadL_ZNS0_L15sha256_compressERKNS0_5HashTILm32EEES5_RS3_EEEELN9__gnu_cxx12_Lock_policyE2EE3getEv
FNDA:208,_ZNKSt12__shared_ptrIN6merkle5PathTILm48EXadL_ZNS0_L14sha384_opensslERKNS0_5HashTILm48EEES5_RS3_EEEELN9__gnu_cxx12_Lock_policyE2EE3getEv
FNDA:208,_ZNKSt12__shared_ptrIN6merkle5PathTILm64EXadL_ZNS0_L14sha512_opensslERKNS0_5HashTILm64EEES5_RS3_EEEELN9__gnu_cxx12_Lock_policyE2EE3getEv
FNDA:51359,_ZNSt12__shared_ptrIN6merkle5HashTILm32EEELN9__gnu_cxx12_Lock_policyE2EEC2ISaIvEJRKS2_EEESt20_Sp_alloc_shared_tagIT_EDpOT0_
FNDA:72,_ZNSt12__shared_ptrIN6merkle5HashTILm48EEELN9__gnu_cxx12_Lock_policyE2EEC2ISaIvEJRKS2_EEESt20_Sp_alloc_shared_tagIT_EDpOT0_
FNDA:72,_ZNSt12__shared_ptrIN6merkle5HashTILm64EEELN9__gnu_cxx12_Lock_policyE2EEC2ISaIvEJRKS2_EEESt20_Sp_alloc_shared_tagIT_EDpOT0_
FNDA:2,_ZNSt12__shared_ptrIN6merkle5PathTILm32EXadL_ZNS0_L14sha256_opensslERKNS0_5HashTILm32EEES5_RS3_EEEELN9__gnu_cxx12_Lock_policyE2EEC2ISaIvEJS5_RmNSt7__cxx114listINS7_Ut0_ESaISG_EEEmEEESt20_Sp_alloc_shared_tagIT_EDpOT0_
FNDA:4698,_ZNSt12__shared_ptrIN6merkle5PathTILm32EXadL_ZNS0_L15sha256_compressERKNS0_5HashTILm32EEES5_RS3_EEEELN9__gnu_cxx12_Lock_policyE2EEC2ISaIvEJS5_RmNSt7__cxx114listINS7_Ut0_ESaISG_EEESD_EEESt20_Sp_alloc_shared_tagIT_EDpOT0_
FNDA:43293,_ZNSt12__shared_ptrIN6merkle5PathTILm32EXadL_ZNS0_L15sha256_compressERKNS0_5HashTILm32EEES5_RS3_EEEELN9__gnu_cxx12_Lock_policyE2EEC2ISaIvEJS5_RmNSt7__cxx114listINS7_Ut0_ESaISG_EEEmEEESt20_Sp_alloc_shared_tagIT_EDpOT0_
FNDA:3,_ZNSt12__shared_ptrIN6merkle5PathTILm48EXadL_ZNS0_L14sha384_opensslERKNS0_5HashTILm48EEES5_RS3_EEEELN9__gnu_cxx12_Lock_policyE2EEC2ISaIvEJS5_RmNSt7__cxx114listINS7_Ut0_ESaISG_EEESD_EEESt20_Sp_alloc_shared_tagIT_EDpOT0_
FNDA:69,_ZNSt12__shared_ptrIN6merkle5PathTILm48EXadL_ZNS0_L14sha384_opensslERKNS0_5HashTILm48EEES5_RS3_EEEELN9__gnu_cxx12_Lock_policyE2EEC2ISaIvEJS5_RmNSt7__cxx114listINS7_Ut0_ESaISG_EEEmEEESt20_Sp_alloc_shared_tagIT_EDpOT0_
FNDA:3,_ZNSt12__shared_ptrIN6merkle5PathTILm64EXadL_ZNS0_L14sha512_opensslERKNS0_5HashTILm64EEES5_RS3_EEEELN9__gnu_cxx12_Lock_policyE2EEC2ISaIvEJS5_RmNSt7__cxx114listINS7_Ut0_ESaISG_EEESD_EEESt20_Sp_alloc_shared_tagIT_EDpOT0_
FNDA:69,_ZNSt12__shared_ptrIN6merkle5PathTILm64EXadL_ZNS0_L14sha512_opensslERKNS0_5HashTILm64EEES5_RS3_EEEELN9__gnu_cxx12_Lock_policyE2EEC2ISaIvEJS5_RmNSt7__cxx114listINS7_Ut0_ESaISG_EEEmEEESt20_Sp_alloc_shared_tagIT_EDpOT0_
FNDA:0,_ZNSt16_Sp_counted_baseILN9__gnu_cxx12_Lock_policyE2EE19_M_release_last_useEv
FNDA:51359,_ZNSt12__shared_ptrIN6merkle5HashTILm32EEELN9__gnu_cxx12_Lock_policyE2EE31_M_enable_shared_from_this_withIS2_S2_EENSt9enable_ifIXntsrNS5_15__has_esft_baseIT0_vEE5valueEvE4typeEPT_
FNDA:72,_ZNSt12__shared_ptrIN6merkle5HashTILm48EEELN9__gnu_cxx12_Lock_policyE2EE31_M_enable_shared_from_this_withIS2_S2_EENSt9enable_ifIXntsrNS5_15__has_esft_baseIT0_vEE5valueEvE4typeEPT_
FNDA:72,_ZNSt12__shared_ptrIN6merkle5HashTILm64EEELN9__gnu_cxx12_Lock_policyE2EE31_M_enable_shared_from_this_withIS2_S2_EENSt9enable_ifIXntsrNS5_15__has_esft_baseIT0_vEE5valueEvE4typeEPT_
FNDA:2,_ZNSt12__shared_ptrIN6merkle5PathTILm32EXadL_ZNS0_L14sha256_opensslERKNS0_5HashTILm32EEES5_RS3_EEEELN9__gnu_cxx12_Lock_policyE2EE31_M_enable_shared_from_this_withIS7_S7_EENSt9enable_ifIXntsrNSA_15__has_esft_baseIT0_vEE5valueEvE4typeEPT_
FNDA:47991,_ZNSt12__shared_ptrIN6merkle5PathTILm32EXadL_ZNS0_L15sha256_compressERKNS0_5HashTILm32EEES5_RS3_EEEELN9__gnu_cxx12_Lock_policyE2EE31_M_enable_shared_from_this_withIS7_S7_EENSt9enable_ifIXntsrNSA_15__has_esft_baseIT0_vEE5valueEvE4typeEPT_
FNDA:72,_ZNSt12__shared_ptrIN6merkle5PathTILm48EXadL_ZNS0_L14sha384_opensslERKNS0_5HashTILm48EEES5_RS3_EEEELN9__gnu_cxx12_Lock_policyE2EE31_M_enable_shared_from_this_withIS7_S7_EENSt9enable_ifIXntsrNSA_15__has_esft_baseIT0_vEE5valueEvE4typeEPT_
FNDA:72,_ZNSt12__shared_ptrIN6merkle5PathTILm64EXadL_ZNS0_L14sha512_opensslERKNS0_5HashTILm64EEES5_RS3_EEEELN9__gnu_cxx12_Lock_policyE2EE31_M_enable_shared_from_this_withIS7_S7_EENSt9enable_ifIXntsrNSA_15__has_esft_baseIT0_vEE5valueEvE4typeEPT_
FNDA:0,_ZNSt16_Sp_counted_baseILN9__gnu_cxx12_Lock_policyE2EE24_M_release_last_use_coldEv
FNDA:99640,_ZNSt16_Sp_counted_baseILN9__gnu_cxx12_Lock_policyE2EE10_M_releaseEv
FNDA:99640,_ZNSt14_Sp_ebo_helperILi0ESaIvELb1EEC2ERKS0_
FNDA:199280,_ZNSt14_Sp_ebo_helperILi0ESaIvELb1EE6_S_getERS1_
FNDA:0,_ZNSt19_Sp_make_shared_tag5_S_tiEv
FNDA:51359,_ZNSt23_Sp_counted_ptr_inplaceIN6merkle5HashTILm32EEESaIvELN9__gnu_cxx12_Lock_policyE2EE5_ImplC2ES3_
FNDA:72,_ZNSt23_Sp_counted_ptr_inplaceIN6merkle5HashTILm48EEESaIvELN9__gnu_cxx12_Lock_policyE2EE5_ImplC2ES3_
FNDA:72,_ZNSt23_Sp_counted_ptr_inplaceIN6merkle5HashTILm64EEESaIvELN9__gnu_cxx12_Lock_policyE2EE5_ImplC2ES3_
FNDA:2,_ZNSt23_Sp_counted_ptr_inplaceIN6merkle5PathTILm32EXadL_ZNS0_L14sha256_opensslERKNS0_5HashTILm32EEES5_RS3_EEEESaIvELN9__gnu_cxx12_Lock_policyE2EE5_ImplC2ES8_
FNDA:47991,_ZNSt23_Sp_counted_ptr_inplaceIN6merkle5PathTILm32EXadL_ZNS0_L15sha256_compressERKNS0_5HashTILm32EEES5_RS3_EEEESaIvELN9__gnu_cxx12_Lock_policyE2EE5_ImplC2ES8_
FNDA:72,_ZNSt23_Sp_counted_ptr_inplaceIN6merkle5PathTILm48EXadL_ZNS0_L14sha384_opensslERKNS0_5HashTILm48EEES5_RS3_EEEESaIvELN9__gnu_cxx12_Lock_policyE2EE5_ImplC2ES8_
FNDA:72,_ZNSt23_Sp_counted_ptr_inplaceIN6merkle5PathTILm64EXadL_ZNS0_L14sha512_opensslERKNS0_5HashTILm64EEES5_RS3_EEEESaIvELN9__gnu_cxx12_Lock_policyE2EE5_ImplC2ES8_
FNDA:102718,_ZNSt23_Sp_counted_ptr_inplaceIN6merkle5HashTILm32EEESaIvELN9__gnu_cxx12_Lock_policyE2EE5_Impl8_M_allocEv
FNDA:144,_ZNSt23_Sp_counted_ptr_inplaceIN6merkle5HashTILm48EEESaIvELN9__gnu_cxx12_Lock_policyE2EE5_Impl8_M_allocEv
FNDA:144,_ZNSt23_Sp_counted_ptr_inplaceIN6merkle5HashTILm64EEESaIvELN9__gnu_cxx12_Lock_policyE2EE5_Impl8_M_allocEv
FNDA:4,_ZNSt23_Sp_counted_ptr_inplaceIN6merkle5PathTILm32EXadL_ZNS0_L14sha256_opensslERKNS0_5HashTILm32EEES5_RS3_EEEESaIvELN9__gnu_cxx12_Lock_policyE2EE5_Impl8_M_allocEv
FNDA:95982,_ZNSt23_Sp_counted_ptr_inplaceIN6merkle5PathTILm32EXadL_ZNS0_L15sha256_compressERKNS0_5HashTILm32EEES5_RS3_EEEESaIvELN9__gnu_cxx12_Lock_policyE2EE5_Impl8_M_allocEv
FNDA:144,_ZNSt23_Sp_counted_ptr_inplaceIN6merkle5PathTILm48EXadL_ZNS0_L14sha384_opensslERKNS0_5HashTILm48EEES5_RS3_EEEESaIvELN9__gnu_cxx12_Lock_policyE2EE5_Impl8_M_allocEv
FNDA:144,_ZNSt23_Sp_counted_ptr_inplaceIN6merkle5PathTILm64EXadL_ZNS0_L14sha512_opensslERKNS0_5HashTILm64EEES5_RS3_EEEESaIvELN9__gnu_cxx12_Lock_policyE2EE5_Impl8_M_allocEv
FNDA:51359,_ZNSt23_Sp_counted_ptr_inplaceIN6merkle5HashTILm32EEESaIvELN9__gnu_cxx12_Lock_policyE2EEC2IJRKS2_EEES3_DpOT_
FNDA:72,_ZNSt23_Sp_counted_ptr_inplaceIN6merkle5HashTILm48EEESaIvELN9__gnu_cxx12_Lock_policyE2EEC2IJRKS2_EEES3_DpOT_
FNDA:72,_ZNSt23_Sp_counted_ptr_inplaceIN6merkle5HashTILm64EEESaIvELN9__gnu_cxx12_Lock_policyE2EEC2IJRKS2_EEES3_DpOT_
FNDA:2,_ZNSt23_Sp_counted_ptr_inplaceIN6merkle5PathTILm32EXadL_ZNS0_L14sha256_opensslERKNS0_5HashTILm32EEES5_RS3_EEEESaIvELN9__gnu_cxx12_Lock_policyE2EEC2IJS5_RmNSt7__cxx114listINS7_Ut0_ESaISG_EEEmEEES8_DpOT_
FNDA:4698,_ZNSt23_Sp_counted_ptr_inplaceIN6merkle5PathTILm32EXadL_ZNS0_L15sha256_compressERKNS0_5HashTILm32EEES5_RS3_EEEESaIvELN9__gnu_cxx12_Lock_policyE2EEC2IJS5_RmNSt7__cxx114listINS7_Ut0_ESaISG_EEESD_EEES8_DpOT_
FNDA:43293,_ZNSt23_Sp_counted_ptr_inplaceIN6merkle5PathTILm32EXadL_ZNS0_L15sha256_compressERKNS0_5HashTILm32EEES5_RS3_EEEESaIvELN9__gnu_cxx12_Lock_policyE2EEC2IJS5_RmNSt7__cxx114listINS7_Ut0_ESaISG_EEEmEEES8_DpOT_
FNDA:3,_ZNSt23_Sp_counted_ptr_inplaceIN6merkle5PathTILm48EXadL_ZNS0_L14sha384_opensslERKNS0_5HashTILm48EEES5_RS3_EEEESaIvELN9__gnu_cxx12_Lock_policyE2EEC2IJS5_RmNSt7__cxx114listINS7_Ut0_ESaISG_EEESD_EEES8_DpOT_
FNDA:69,_ZNSt23_Sp_counted_ptr_inplaceIN6merkle5PathTILm48EXadL_ZNS0_L14sha384_opensslERKNS0_5HashTILm48EEES5_RS3_EEEESaIvELN9__gnu_cxx12_Lock_policyE2EEC2IJS5_RmNSt7__cxx114listINS7_Ut0_ESaISG_EEEmEEES8_DpOT_
FNDA:3,_ZNSt23_Sp_counted_ptr_inplaceIN6merkle5PathTILm64EXadL_ZNS0_L14sha512_opensslERKNS0_5HashTILm64EEES5_RS3_EEEESaIvELN9__gnu_cxx12_Lock_policyE2EEC2IJS5_RmNSt7__cxx114listINS7_Ut0_ESaISG_EEESD_EEES8_DpOT_
FNDA:69,_ZNSt23_Sp_counted_ptr_inplaceIN6merkle5PathTILm64EXadL_ZNS0_L14sha512_opensslERKNS0_5HashTILm64EEES5_RS3_EEEESaIvELN9__gnu_cxx12_Lock_policyE2EEC2IJS5_RmNSt7__cxx114listINS7_Ut0_ESaISG_EEEmEEES8_DpOT_
FNDA:0,_ZNSt23_Sp_counted_ptr_inplaceIN6merkle5HashTILm32EEESaIvELN9__gnu_cxx12_Lock_policyE2EED0Ev
FNDA:51359,_ZNSt23_Sp_counted_ptr_inplaceIN6merkle5HashTILm32EEESaIvELN9__gnu_cxx12_Lock_policyE2EED2Ev
FNDA:0,_ZNSt23_Sp_counted_ptr_inplaceIN6merkle5HashTILm48EEESaIvELN9__gnu_cxx12_Lock_policyE2EED0Ev
FNDA:72,_ZNSt23_Sp_counted_ptr_inplaceIN6merkle5HashTILm48EEESaIvELN9__gnu_cxx12_Lock_policyE2EED2Ev
FNDA:0,_ZNSt23_Sp_counted_ptr_inplaceIN6merkle5HashTILm64EEESaIvELN9__gnu_cxx12_Lock_policyE2EED0Ev
FNDA:72,_ZNSt23_Sp_counted_ptr_inplaceIN6merkle5HashTILm64EEESaIvELN9__gnu_cxx12_Lock_policyE2EED2Ev
FNDA:0,_ZNSt23_Sp_counted_ptr_inplaceIN6merkle5PathTILm32EXadL_ZNS0_L14sha256_opensslERKNS0_5HashTILm32EEES5_RS3_EEEESaIvELN9__gnu_cxx12_Lock_policyE2EED0Ev
FNDA:2,_ZNSt23_Sp_counted_ptr_inplaceIN6merkle5PathTILm32EXadL_ZNS0_L14sha256_opensslERKNS0_5HashTILm32EEES5_RS3_EEEESaIvELN9__gnu_cxx12_Lock_policyE2EED2Ev
FNDA:0,_ZNSt23_Sp_counted_ptr_inplaceIN6merkle5PathTILm32EXadL_ZNS0_L15sha256_compressERKNS0_5HashTILm32EEES5_RS3_EEEESaIvELN9__gnu_cxx12_Lock_policyE2EED0Ev
FNDA:47991,_ZNSt23_Sp_counted_ptr_inplaceIN6merkle5PathTILm32EXadL_ZNS0_L15sha256_compressERKNS0_5HashTILm32EEES5_RS3_EEEESaIvELN9__gnu_cxx12_Lock_policyE2EED2Ev
FNDA:0,_ZNSt23_Sp_counted_ptr_inplaceIN6merkle5PathTILm48EXadL_ZNS0_L14sha384_opensslERKNS0_5HashTILm48EEES5_RS3_EEEESaIvELN9__gnu_cxx12_Lock_policyE2EED0Ev
FNDA:72,_ZNSt23_Sp_counted_ptr_inplaceIN6merkle5PathTILm48EXadL_ZNS0_L14sha384_opensslERKNS0_5HashTILm48EEES5_RS3_EEEESaIvELN9__gnu_cxx12_Lock_policyE2EED2Ev
FNDA:0,_ZNSt23_Sp_counted_ptr_inplaceIN6merkle5PathTILm64EXadL_ZNS0_L14sha512_opensslERKNS0_5HashTILm64EEES5_RS3_EEEESaIvELN9__gnu_cxx12_Lock_policyE2EED0Ev
FNDA:72,_ZNSt23_Sp_counted_ptr_inplaceIN6merkle5PathTILm64EXadL_ZNS0_L14sha512_opensslERKNS0_5HashTILm64EEES5_RS3_EEEESaIvELN9__gnu_cxx12_Lock_policyE2EED2Ev
FNDA:51359,_ZNSt23_Sp_counted_ptr_inplaceIN6merkle5HashTILm32EEESaIvELN9__gnu_cxx12_Lock_policyE2EE10_M_disposeEv
FNDA:72,_ZNSt23_Sp_counted_ptr_inplaceIN6merkle5HashTILm48EEESaIvELN9__gnu_cxx12_Lock_policyE2EE10_M_disposeEv
FNDA:72,_ZNSt23_Sp_counted_ptr_inplaceIN6merkle5HashTILm64EEESaIvELN9__gnu_cxx12_Lock_policyE2EE10_M_disposeEv
FNDA:2,_ZNSt23_Sp_counted_ptr_inplaceIN6merkle5PathTILm32EXadL_ZNS0_L14sha256_opensslERKNS0_5HashTILm32EEES5_RS3_EEEESaIvELN9__gnu_cxx12_Lock_policyE2EE10_M_disposeEv
FNDA:47991,_ZNSt23_Sp_counted_ptr_inplaceIN6merkle5PathTILm32EXadL_ZNS0_L15sha256_compressERKNS0_5HashTILm32EEES5_RS3_EEEESaIvELN9__gnu_cxx12_Lock_policyE2EE10_M_disposeEv
FNDA:72,_ZNSt23_Sp_counted_ptr_inplaceIN6merkle5PathTILm48EXadL_ZNS0_L14sha384_opensslERKNS0_5HashTILm48EEES5_RS3_EEEESaIvELN9__gnu_cxx12_Lock_policyE2EE10_M_disposeEv
FNDA:72,_ZNSt23_Sp_counted_ptr_inplaceIN6merkle5PathTILm64EXadL_ZNS0_L14sha512_opensslERKNS0_5HashTILm64EEES5_RS3_EEEESaIvELN9__gnu_cxx12_Lock_policyE2EE10_M_disposeEv
FNDA:51359,_ZNSt23_Sp_counted_ptr_inplaceIN6merkle5HashTILm32EEESaIvELN9__gnu_cxx12_Lock_policyE2EE10_M_destroyEv
FNDA:72,_ZNSt23_Sp_counted_ptr_inplaceIN6merkle5HashTILm48EEESaIvELN9__gnu_cxx12_Lock_policyE2EE10_M_destroyEv
FNDA:72,_ZNSt23_Sp_counted_ptr_inplaceIN6merkle5HashTILm64EEESaIvELN9__gnu_cxx12_Lock_policyE2EE10_M_destroyEv
FNDA:2,_ZNSt23_Sp_counted_ptr_inplaceIN6merkle5PathTILm32EXadL_ZNS0_L14sha256_opensslERKNS0_5HashTILm32EEES5_RS3_EEEESaIvELN9__gnu_cxx12_Lock_policyE2EE10_M_destroyEv
FNDA:47991,_ZNSt23_Sp_counted_ptr_inplaceIN6merkle5PathTILm32EXadL_ZNS0_L15sha256_compressERKNS0_5HashTILm32EEES5_RS3_EEEESaIvELN9__gnu_cxx12_Lock_policyE2EE10_M_destroyEv
FNDA:72,_ZNSt23_Sp_counted_ptr_inplaceIN6merkle5PathTILm48EXadL_ZNS0_L14sha384_opensslERKNS0_5HashTILm48EEES5_RS3_EEEESaIvELN9__gnu_cxx12_Lock_policyE2EE10_M_destroyEv
FNDA:72,_ZNSt23_Sp_counted_ptr_inplaceIN6merkle5PathTILm64EXadL_ZNS0_L14sha512_opensslERKNS0_5HashTILm64EEES5_RS3_EEEESaIvELN9__gnu_cxx12_Lock_policyE2EE10_M_destroyEv
FNDA:0,_ZNSt23_Sp_counted_ptr_inplaceIN6merkle5HashTILm32EEESaIvELN9__gnu_cxx12_Lock_policyE2EE14_M_get_deleterERKSt9type_info
FNDA:0,_ZNSt23_Sp_counted_ptr_inplaceIN6merkle5HashTILm48EEESaIvELN9__gnu_cxx12_Lock_policyE2EE14_M_get_deleterERKSt9type_info
FNDA:0,_ZNSt23_Sp_counted_ptr_inplaceIN6merkle5HashTILm64EEESaIvELN9__gnu_cxx12_Lock_policyE2EE14_M_get_deleterERKSt9type_info
FNDA:0,_ZNSt23_Sp_counted_ptr_inplaceIN6merkle5PathTILm32EXadL_ZNS0_L14sha256_opensslERKNS0_5HashTILm32EEES5_RS3_EEEESaIvELN9__gnu_cxx12_Lock_policyE2EE14_M_get_deleterERKSt9type_info
FNDA:0,_ZNSt23_Sp_counted_ptr_inplaceIN6merkle5PathTILm32EXadL_ZNS0_L15sha256_compressERKNS0_5HashTILm32EEES5_RS3_EEEESaIvELN9__gnu_cxx12_Lock_policyE2EE14_M_get_deleterERKSt9type_info
FNDA:0,_ZNSt23_Sp_counted_ptr_inplaceIN6merkle5PathTILm48EXadL_ZNS0_L14sha384_opensslERKNS0_5HashTILm48EEES5_RS3_EEEESaIvELN9__gnu_cxx12_Lock_policyE2EE14_M_get_deleterERKSt9type_info
FNDA:0,_ZNSt23_Sp_counted_ptr_inplaceIN6merkle5PathTILm64EXadL_ZNS0_L14sha512_opensslERKNS0_5HashTILm64EEES5_RS3_EEEESaIvELN9__gnu_cxx12_Lock_policyE2EE14_M_get_deleterERKSt9type_info
FNDA:154077,_ZNSt23_Sp_counted_ptr_inplaceIN6merkle5HashTILm32EEESaIvELN9__gnu_cxx12_Lock_policyE2EE6_M_ptrEv
FNDA:216,_ZNSt23_Sp_counted_ptr_inplaceIN6merkle5HashTILm48EEESaIvELN9__gnu_cxx12_Lock_policyE2EE6_M_ptrEv
FNDA:216,_ZNSt23_Sp_counted_ptr_inplaceIN6merkle5HashTILm64EEESaIvELN9__gnu_cxx12_Lock_policyE2EE6_M_ptrEv
FNDA:6,_ZNSt23_Sp_counted_ptr_inplaceIN6merkle5PathTILm32EXadL_ZNS0_L14sha256_opensslERKNS0_5HashTILm32EEES5_RS3_EEEESaIvELN9__gnu_cxx12_Lock_policyE2EE6_M_ptrEv
FNDA:143973,_ZNSt23_Sp_counted_ptr_inplaceIN6merkle5PathTILm32EXadL_ZNS0_L15sha256_compressERKNS0_5HashTILm32EEES5_RS3_EEEESaIvELN9__gnu_cxx12_Lock_policyE2EE6_M_ptrEv
FNDA:216,_ZNSt23_Sp_counted_ptr_inplaceIN6merkle5PathTILm48EXadL_ZNS0_L14sha384_opensslERKNS0_5HashTILm48EEES5_RS3_EEEESaIvELN9__gnu_cxx12_Lock_policyE2EE6_M_ptrEv
FNDA:216,_ZNSt23_Sp_counted_ptr_inplaceIN6merkle5PathTILm64EXadL_ZNS0_L14sha512_opensslERKNS0_5HashTILm64EEES5_RS3_EEEESaIvELN9__gnu_cxx12_Lock_policyE2EE6_M_ptrEv
FNDA:51359,_ZNSt14__shared_countILN9__gnu_cxx12_Lock_policyE2EEC2IN6merkle5HashTILm32EEESaIvEJRKS6_EEERPT_St20_Sp_alloc_shared_tagIT0_EDpOT1_
FNDA:72,_ZNSt14__shared_countILN9__gnu_cxx12_Lock_policyE2EEC2IN6merkle5HashTILm48EEESaIvEJRKS6_EEERPT_St20_Sp_alloc_shared_tagIT0_EDpOT1_
FNDA:72,_ZNSt14__shared_countILN9__gnu_cxx12_Lock_policyE2EEC2IN6merkle5HashTILm64EEESaIvEJRKS6_EEERPT_St20_Sp_alloc_shared_tagIT0_EDpOT1_
FNDA:2,_ZNSt14__shared_countILN9__gnu_cxx12_Lock_policyE2EEC2IN6merkle5PathTILm32EXadL_ZNS4_L14sha256_opensslERKNS4_5HashTILm32EEES9_RS7_EEEESaIvEJS9_RmNSt7__cxx114listINSB_Ut0_ESaISG_EEEmEEERPT_St20_Sp_alloc_shared_tagIT0_EDpOT1_
FNDA:4698,_ZNSt14__shared_countILN9__gnu_cxx12_Lock_policyE2EEC2IN6merkle5PathTILm32EXadL_ZNS4_L15sha256_compressERKNS4_5HashTILm32EEES9_RS7_EEEESaIvEJS9_RmNSt7__cxx114listINSB_Ut0_ESaISG_EEESD_EEERPT_St20_Sp_alloc_shared_tagIT0_EDpOT1_
FNDA:43293,_ZNSt14__shared_countILN9__gnu_cxx12_Lock_policyE2EEC2IN6merkle5PathTILm32EXadL_ZNS4_L15sha256_compressERKNS4_5HashTILm32EEES9_RS7_EEEESaIvEJS9_RmNSt7__cxx114listINSB_Ut0_ESaISG_EEEmEEERPT_St20_Sp_alloc_shared_tagIT0_EDpOT1_
FNDA:3,_ZNSt14__shared_countILN9__gnu_cxx12_Lock_policyE2EEC2IN6merkle5PathTILm48EXadL_ZNS4_L14sha384_opensslERKNS4_5HashTILm48EEES9_RS7_EEEESaIvEJS9_RmNSt7__cxx114listINSB_Ut0_ESaISG_EEESD_EEERPT_St20_Sp_alloc_shared_tagIT0_EDpOT1_
FNDA:69,_ZNSt14__shared_countILN9__gnu_cxx12_Lock_policyE2EEC2IN6merkle5PathTILm48EXadL_ZNS4_L14sha384_opensslERKNS4_5HashTILm48EEES9_RS7_EEEESaIvEJS9_RmNSt7__cxx114listINSB_Ut0_ESaISG_EEEmEEERPT_St20_Sp_alloc_shared_tagIT0_EDpOT1_
FNDA:3,_ZNSt14__shared_countILN9__gnu_cxx12_Lock_policyE2EEC2IN6merkle5PathTILm64EXadL_ZNS4_L14sha512_opensslERKNS4_5HashTILm64EEES9_RS7_EEEESaIvEJS9_RmNSt7__cxx114listINSB_Ut0_ESaISG_EEESD_EEERPT_St20_Sp_alloc_shared_tagIT0_EDpOT1_
FNDA:69,_ZNSt14__shared_countILN9__gnu_cxx12_Lock_policyE2EEC2IN6merkle5PathTILm64EXadL_ZNS4_L14sha512_opensslERKNS4_5HashTILm64EEES9_RS7_EEEESaIvEJS9_RmNSt7__cxx114listINSB_Ut0_ESaISG_EEEmEEERPT_St20_Sp_alloc_shared_tagIT0_EDpOT1_
FNF:136
FNH:116
DA:129,99640
DA:130,99640
DA:133,99640
DA:134,99640
DA:143,0
DA:144,0
DA:172,0
DA:175,0
DA:187,0
DA:188,0
DA:191,0
DA:193,0
DA:198,0
DA:199,0
DA:317,99640
DA:321,99640
DA:324,99640
DA:328,99640
DA:331,99640
DA:332,99640
DA:333,99640
DA:334,99640
DA:337,99640
DA:343,99640
DA:346,99640
DA:347,99640
DA:348,99640
DA:350,0
DA:351,0
DA:353,0
DA:354,0
DA:470,99640
DA:474,199280
DA:564,0
DA:567,0
DA:587,99640
DA:589,199280
DA:599,99640
DA:600,99640
DA:604,99640
DA:606,99640
DA:608,99640
DA:611,99640
DA:613,99640
DA:614,99640
DA:618,99640
DA:620,99640
DA:621,99640
DA:622,99640
DA:623,99640
DA:631,0
DA:633,0
DA:638,0
DA:639,0
DA:641,0
DA:646,0
DA:647,0
DA:650,298920
DA:964,99640
DA:968,99640
DA:969,99640
DA:970,99640
DA:971,99640
DA:973,99640
DA:974,99640
DA:975,99640
DA:976,199280
DA:1068,99640
DA:1070,99640
DA:1071,99640
DA:1072,99640
DA:1347,868164
DA:1349,868164
DA:1350,868164
DA:1354,56281
DA:1357,56281
DA:1362,924445
DA:1363,924445
DA:1524,99640
DA:1665,924445
DA:1666,924445
DA:1711,99640
DA:1712,99640
DA:1713,99640
DA:1765,99640
DA:1766,99640
LF:86
LH:63
end_of_record
TN:
SF:/usr/include/c++/13/bits/std_function.h
FN:134,143,_ZNSt14_Function_base13_Base_managerIZN6merkle5TreeTILm32EXadL_ZNS1_L14sha256_opensslERKNS1_5HashTILm32EEES6_RS4_EEE4pathEmEUlPNS8_4NodeEbE_E14_M_get_pointerERKSt9_Any_data
FN:134,143,_ZNSt14_Function_base13_Base_managerIZN6merkle5TreeTILm32EXadL_ZNS1_L15sha256_compressERKNS1_5HashTILm32EEES6_RS4_EEE10retract_toEmEUlRPNS8_4NodeEbE_E14_M_get_pointerERKSt9_Any_data
FN:134,143,_ZNSt14_Function_base13_Base_managerIZN6merkle5TreeTILm32EXadL_ZNS1_L15sha256_compressERKNS1_5HashTILm32EEES6_RS4_EEE15serialised_sizeEmmEUlRPNS8_4NodeEbE_E14_M_get_pointerERKSt9_Any_data
FN:134,143,_ZNSt14_Function_base13_Base_managerIZN6merkle5TreeTILm32EXadL_ZNS1_L15sha256_compressERKNS1_5HashTILm32EEES6_RS4_EEE15serialised_sizeEvEUlRPNS8_4NodeEbE_E14_M_get_pointerERKSt9_Any_data
FN:134,143,_ZNSt14_Function_base13_Base_managerIZN6merkle5TreeTILm32EXadL_ZNS1_L15sha256_compressERKNS1_5HashTILm32EEES6_RS4_EEE4pathEmEUlPNS8_4NodeEbE_E14_M_get_pointerERKSt9_Any_data
FN:134,143,_ZNSt14_Function_base13_Base_managerIZN6merkle5TreeTILm32EXadL_ZNS1_L15sha256_compressERKNS1_5HashTILm32EEES6_RS4_EEE8flush_toEmEUlRPNS8_4NodeEbE_E14_M_get_pointerERKSt9_Any_data
FN:134,143,_ZNSt14_Function_base13_Base_managerIZN6merkle5TreeTILm32EXadL_ZNS1_L15sha256_compressERKNS1_5HashTILm32EEES6_RS4_EEE9serialiseERSt6vectorIhSaIhEEEUlRPNS8_4NodeEbE_E14_M_get_pointerERKSt9_Any_data
FN:134,143,_ZNSt14_Function_base13_Base_managerIZN6merkle5TreeTILm32EXadL_ZNS1_L15sha256_compressERKNS1_5HashTILm32EEES6_RS4_EEE9serialiseEmmRSt6vectorIhSaIhEEEUlRPNS8_4NodeEbE_E14_M_get_pointerERKSt9_Any_data
FN:134,143,_ZNSt14_Function_base13_Base_managerIZN6merkle5TreeTILm48EXadL_ZNS1_L14sha384_opensslERKNS1_5HashTILm48EEES6_RS4_EEE10retract_toEmEUlRPNS8_4NodeEbE_E14_M_get_pointerERKSt9_Any_data
FN:134,143,_ZNSt14_Function_base13_Base_managerIZN6merkle5TreeTILm48EXadL_ZNS1_L14sha384_opensslERKNS1_5HashTILm48EEES6_RS4_EEE4pathEmEUlPNS8_4NodeEbE_E14_M_get_pointerERKSt9_Any_data
FN:134,143,_ZNSt14_Function_base13_Base_managerIZN6merkle5TreeTILm48EXadL_ZNS1_L14sha384_opensslERKNS1_5HashTILm48EEES6_RS4_EEE8flush_toEmEUlRPNS8_4NodeEbE_E14_M_get_pointerERKSt9_Any_data
FN:134,143,_ZNSt14_Function_base13_Base_managerIZN6merkle5TreeTILm48EXadL_ZNS1_L14sha384_opensslERKNS1_5HashTILm48EEES6_RS4_EEE9serialiseERSt6vectorIhSaIhEEEUlRPNS8_4NodeEbE_E14_M_get_pointerERKSt9_Any_data
FN:134,143,_ZNSt14_Function_base13_Base_managerIZN6merkle5TreeTILm64EXadL_ZNS1_L14sha512_opensslERKNS1_5HashTILm64EEES6_RS4_EEE10retract_toEmEUlRPNS8_4NodeEbE_E14_M_get_pointerERKSt9_Any_data
FN:134,143,_ZNSt14_Function_base13_Base_managerIZN6merkle5TreeTILm64EXadL_ZNS1_L14sha512_opensslERKNS1_5HashTILm64EEES6_RS4_EEE4pathEmEUlPNS8_4NodeEbE_E14_M_get_pointerERKSt9_Any_data
FN:134,143,_ZNSt14_Function_base13_Base_managerIZN6merkle5TreeTILm64EXadL_ZNS1_L14sha512_opensslERKNS1_5HashTILm64EEES6_RS4_EEE8flush_toEmEUlRPNS8_4NodeEbE_E14_M_get_pointerERKSt9_Any_data
FN:134,143,_ZNSt14_Function_base13_Base_managerIZN6merkle5TreeTILm64EXadL_ZNS1_L14sha512_opensslERKNS1_5HashTILm64EEES6_RS4_EEE9serialiseERSt6vectorIhSaIhEEEUlRPNS8_4NodeEbE_E14_M_get_pointerERKSt9_Any_data
FN:150,153,_ZNSt14_Function_base13_Base_managerIZN6merkle5TreeTILm32EXadL_ZNS1_L14sha256_opensslERKNS1_5HashTILm32EEES6_RS4_EEE4pathEmEUlPNS8_4NodeEbE_E9_M_createIRKSB_EEvRSt9_Any_dataOT_St17integral_constantIbLb1EE
FN:150,153,_ZNSt14_Function_base13_Base_managerIZN6merkle5TreeTILm32EXadL_ZNS1_L14sha256_opensslERKNS1_5HashTILm32EEES6_RS4_EEE4pathEmEUlPNS8_4NodeEbE_E9_M_createISB_EEvRSt9_Any_dataOT_St17integral_constantIbLb1EE
FN:150,153,_ZNSt14_Function_base13_Base_managerIZN6merkle5TreeTILm32EXadL_ZNS1_L15sha256_compressERKNS1_5HashTILm32EEES6_RS4_EEE10retract_toEmEUlRPNS8_4NodeEbE_E9_M_createIRKSC_EEvRSt9_Any_dataOT_St17integral_constantIbLb1EE
FN:150,153,_ZNSt14_Function_base13_Base_managerIZN6merkle5TreeTILm32EXadL_ZNS1_L15sha256_compressERKNS1_5HashTILm32EEES6_RS4_EEE10retract_toEmEUlRPNS8_4NodeEbE_E9_M_createISC_EEvRSt9_Any_dataOT_St17integral_constantIbLb1EE
FN:150,153,_ZNSt14_Function_base13_Base_managerIZN6merkle5TreeTILm32EXadL_ZNS1_L15sha256_compressERKNS1_5HashTILm32EEES6_RS4_EEE15serialised_sizeEmmEUlRPNS8_4NodeEbE_E9_M_createIRKSC_EEvRSt9_Any_dataOT_St17integral_constantIbLb1EE
FN:150,153,_ZNSt14_Function_base13_Base_managerIZN6merkle5TreeTILm32EXadL_ZNS1_L15sha256_compressERKNS1_5HashTILm32EEES6_RS4_EEE15serialised_sizeEmmEUlRPNS8_4NodeEbE_E9_M_createISC_EEvRSt9_Any_dataOT_St17integral_constantIbLb1EE
FN:150,153,_ZNSt14_Function_base13_Base_managerIZN6merkle5TreeTILm32EXadL_ZNS1_L15sha256_compressERKNS1_5HashTILm32EEES6_RS4_EEE15serialised_sizeEvEUlRPNS8_4NodeEbE_E9_M_createIRKSC_EEvRSt9_Any_dataOT_St17integral_constantIbLb1EE
FN:150,153,_ZNSt14_Function_base13_Base_managerIZN6merkle5TreeTILm32EXadL_ZNS1_L15sha256_compressERKNS1_5HashTILm32EEES6_RS4_EEE15serialised_sizeEvEUlRPNS8_4NodeEbE_E9_M_createISC_EEvRSt9_Any_dataOT_St17integral_constantIbLb1EE
FN:150,153,_ZNSt14_Function_base13_Base_managerIZN6merkle5TreeTILm32EXadL_ZNS1_L15sha256_compressERKNS1_5HashTILm32EEES6_RS4_EEE4pathEmEUlPNS8_4NodeEbE_E9_M_createIRKSB_EEvRSt9_Any_dataOT_St17integral_constantIbLb1EE
FN:150,153,_ZNSt14_Function_base13_Base_managerIZN6merkle5TreeTILm32EXadL_ZNS1_L15sha256_compressERKNS1_5HashTILm32EEES6_RS4_EEE4pathEmEUlPNS8_4NodeEbE_E9_M_createISB_EEvRSt9_Any_dataOT_St17integral_constantIbLb1EE
FN:150,153,_ZNSt14_Function_base13_Base_managerIZN6merkle5TreeTILm32EXadL_ZNS1_L15sha256_compressERKNS1_5HashTILm32EEES6_RS4_EEE8flush_toEmEUlRPNS8_4NodeEbE_E9_M_createIRKSC_EEvRSt9_Any_dataOT_St17integral_constantIbLb1EE
FN:150,153,_ZNSt14_Function_base13_Base_managerIZN6merkle5TreeTILm32EXadL_ZNS1_L15sha256_compressERKNS1_5HashTILm32EEES6_RS4_EEE8flush_toEmEUlRPNS8_4NodeEbE_E9_M_createISC_EEvRSt9_Any_dataOT_St17integral_constantIbLb1EE
FN:150,153,_ZNSt14_Function_base13_Base_managerIZN6merkle5TreeTILm32EXadL_ZNS1_L15sha256_compressERKNS1_5HashTILm32EEES6_RS4_EEE9serialiseERSt6vectorIhSaIhEEEUlRPNS8_4NodeEbE_E9_M_createIRKSG_EEvRSt9_Any_dataOT_St17integral_constantIbLb1EE
FN:150,153,_ZNSt14_Function_base13_Base_managerIZN6merkle5TreeTILm32EXadL_ZNS1_L15sha256_compressERKNS1_5HashTILm32EEES6_RS4_EEE9serialiseERSt6vectorIhSaIhEEEUlRPNS8_4NodeEbE_E9_M_createISG_EEvRSt9_Any_dataOT_St17integral_constantIbLb1EE
FN:150,153,_ZNSt14_Function_base13_Base_managerIZN6merkle5TreeTILm32EXadL_ZNS1_L15sha256_compressERKNS1_5HashTILm32EEES6_RS4_EEE9serialiseEmmRSt6vectorIhSaIhEEEUlRPNS8_4NodeEbE_E9_M_createIRKSG_EEvRSt9_Any_dataOT_St17integral_constantIbLb1EE
FN:150,153,_ZNSt14_Function_base13_Base_managerIZN6merkle5TreeTILm32EXadL_ZNS1_L15sha256_compressERKNS1_5HashTILm32EEES6_RS4_EEE9serialiseEmmRSt6vectorIhSaIhEEEUlRPNS8_4NodeEbE_E9_M_createISG_EEvRSt9_Any_dataOT_St17integral_constantIbLb1EE
FN:150,153,_ZNSt14_Function_base13_Base_managerIZN6merkle5TreeTILm48EXadL_ZNS1_L14sha384_opensslERKNS1_5HashTILm48EEES6_RS4_EEE10retract_toEmEUlRPNS8_4NodeEbE_E9_M_createIRKSC_EEvRSt9_Any_dataOT_St17integral_constantIbLb1EE
FN:150,153,_ZNSt14_Function_base13_Base_managerIZN6merkle5TreeTILm48EXadL_ZNS1_L14sha384_opensslERKNS1_5HashTILm48EEES6_RS4_EEE10retract_toEmEUlRPNS8_4NodeEbE_E9_M_createISC_EEvRSt9_Any_dataOT_St17integral_constantIbLb1EE
FN:150,153,_ZNSt14_Function_base13_Base_managerIZN6merkle5TreeTILm48EXadL_ZNS1_L14sha384_opensslERKNS1_5HashTILm48EEES6_RS4_EEE4pathEmEUlPNS8_4NodeEbE_E9_M_createIRKSB_EEvRSt9_Any_dataOT_St17integral_constantIbLb1EE
FN:150,153,_ZNSt14_Function_base13_Base_managerIZN6merkle5TreeTILm48EXadL_ZNS1_L14sha384_opensslERKNS1_5HashTILm48EEES6_RS4_EEE4pathEmEUlPNS8_4NodeEbE_E9_M_createISB_EEvRSt9_Any_dataOT_St17integral_constantIbLb1EE
FN:150,153,_ZNSt14_Function_base13_Base_managerIZN6merkle5TreeTILm48EXadL_ZNS1_L14sha384_opensslERKNS1_5HashTILm48EEES6_RS4_EEE8flush_toEmEUlRPNS8_4NodeEbE_E9_M_createIRKSC_EEvRSt9_Any_dataOT_St17integral_constantIbLb1EE
FN:150,153,_ZNSt14_Function_base13_Base_managerIZN6merkle5TreeTILm48EXadL_ZNS1_L14sha384_opensslERKNS1_5HashTILm48EEES6_RS4_EEE8flush_toEmEUlRPNS8_4NodeEbE_E9_M_createISC_EEvRSt9_Any_dataOT_St17integral_constantIbLb1EE
FN:150,153,_ZNSt14_Function_base13_Base_managerIZN6merkle5TreeTILm48EXadL_ZNS1_L14sha384_opensslERKNS1_5HashTILm48EEES6_RS4_EEE9serialiseERSt6vectorIhSaIhEEEUlRPNS8_4NodeEbE_E9_M_createIRKSG_EEvRSt9_Any_dataOT_St17integral_constantIbLb1EE
FN:150,153,_ZNSt14_Function_base13_Base_managerIZN6merkle5TreeTILm48EXadL_ZNS1_L14sha384_opensslERKNS1_5HashTILm48EEES6_RS4_EEE9serialiseERSt6vectorIhSaIhEEEUlRPNS8_4NodeEbE_E9_M_createISG_EEvRSt9_Any_dataOT_St17integral_constantIbLb1EE
FN:150,153,_ZNSt14_Function_base13_Base_managerIZN6merkle5TreeTILm64EXadL_ZNS1_L14sha512_opensslERKNS1_5HashTILm64EEES6_RS4_EEE10retract_toEmEUlRPNS8_4NodeEbE_E9_M_createIRKSC_EEvRSt9_Any_dataOT_St17integral_constantIbLb1EE
FN:150,153,_ZNSt14_Function_base13_Base_managerIZN6merkle5TreeTILm64EXadL_ZNS1_L14sha512_opensslERKNS1_5HashTILm64EEES6_RS4_EEE10retract_toEmEUlRPNS8_4NodeEbE_E9_M_createISC_EEvRSt9_Any_dataOT_St17integral_constantIbLb1EE
FN:150,153,_ZNSt14_Function_base13_Base_managerIZN6merkle5TreeTILm64EXadL_ZNS1_L14sha512_opensslERKNS1_5HashTILm64EEES6_RS4_EEE4pathEmEUlPNS8_4NodeEbE_E9_M_createIRKSB_EEvRSt9_Any_dataOT_St17integral_constantIbLb1EE
FN:150,153,_ZNSt14_Function_base13_Base_managerIZN6merkle5TreeTILm64EXadL_ZNS1_L14sha512_opensslERKNS1_5HashTILm64EEES6_RS4_EEE4pathEmEUlPNS8_4NodeEbE_E9_M_createISB_EEvRSt9_Any_dataOT_St17integral_constantIbLb1EE
FN:150,153,_ZNSt14_Function_base13_Base_managerIZN6merkle5TreeTILm64EXadL_ZNS1_L14sha512_opensslERKNS1_5HashTILm64EEES6_RS4_EEE8flush_toEmEUlRPNS8_4NodeEbE_E9_M_createIRKSC_EEvRSt9_Any_dataOT_St17integral_constantIbLb1EE
FN:150,153,_ZNSt14_Function_base13_Base_managerIZN6merkle5TreeTILm64EXadL_ZNS1_L14sha512_opensslERKNS1_5HashTILm64EEES6_RS4_EEE8flush_toEmEUlRPNS8_4NodeEbE_E9_M_createISC_EEvRSt9_Any_dataOT_St17integral_constantIbLb1EE
FN:150,153,_ZNSt14_Function_base13_Base_managerIZN6merkle5TreeTILm64EXadL_ZNS1_L14sha512_opensslERKNS1_5HashTILm64EEES6_RS4_EEE9serialiseERSt6vectorIhSaIhEEEUlRPNS8_4NodeEbE_E9_M_createIRKSG_EEvRSt9_Any_dataOT_St17integral_constantIbLb1EE
FN:150,153,_ZNSt14_Function_base13_Base_managerIZN6merkle5TreeTILm64EXadL_ZNS1_L14sha512_opensslERKNS1_5HashTILm64EEES6_RS4_EEE9serialiseERSt6vectorIhSaIhEEEUlRPNS8_4NodeEbE_E9_M_createISG_EEvRSt9_Any_dataOT_St17integral_constantIbLb1EE
FN:166,169,_ZNSt14_Function_base13_Base_managerIZN6merkle5TreeTILm32EXadL_ZNS1_L14sha256_opensslERKNS1_5HashTILm32EEES6_RS4_EEE4pathEmEUlPNS8_4NodeEbE_E10_M_destroyERSt9_Any_dataSt17integral_constantIbLb1EE
FN:166,169,_ZNSt14_Function_base13_Base_managerIZN6merkle5TreeTILm32EXadL_ZNS1_L15sha256_compressERKNS1_5HashTILm32EEES6_RS4_EEE10retract_toEmEUlRPNS8_4NodeEbE_E10_M_destroyERSt9_Any_dataSt17integral_constantIbLb1EE
FN:166,169,_ZNSt14_Function_base13_Base_managerIZN6merkle5TreeTILm32EXadL_ZNS1_L15sha256_compressERKNS1_5HashTILm32EEES6_RS4_EEE15serialised_sizeEmmEUlRPNS8_4NodeEbE_E10_M_destroyERSt9_Any_dataSt17integral_constantIbLb1EE
FN:166,169,_ZNSt14_Function_base13_Base_managerIZN6merkle5TreeTILm32EXadL_ZNS1_L15sha256_compressERKNS1_5HashTILm32EEES6_RS4_EEE15serialised_sizeEvEUlRPNS8_4NodeEbE_E10_M_destroyERSt9_Any_dataSt17integral_constantIbLb1EE
FN:166,169,_ZNSt14_Function_base13_Base_managerIZN6merkle5TreeTILm32EXadL_ZNS1_L15sha256_compressERKNS1_5HashTILm32EEES6_RS4_EEE4pathEmEUlPNS8_4NodeEbE_E10_M_destroyERSt9_Any_dataSt17integral_constantIbLb1EE
FN:166,169,_ZNSt14_Function_base13_Base_managerIZN6merkle5TreeTILm32EXadL_ZNS1_L15sha256_compressERKNS1_5HashTILm32EEES6_RS4_EEE8flush_toEmEUlRPNS8_4NodeEbE_E10_M_destroyERSt9_Any_dataSt17integral_constantIbLb1EE
FN:166,169,_ZNSt14_Function_base13_Base_managerIZN6merkle5TreeTILm32EXadL_ZNS1_L15sha256_compressERKNS1_5HashTILm32EEES6_RS4_EEE9serialiseERSt6vectorIhSaIhEEEUlRPNS8_4NodeEbE_E10_M_destroyERSt9_Any_dataSt17integral_constantIbLb1EE
FN:166,169,_ZNSt14_Function_base13_Base_managerIZN6merkle5TreeTILm32EXadL_ZNS1_L15sha256_compressERKNS1_5HashTILm32EEES6_RS4_EEE9serialiseEmmRSt6vectorIhSaIhEEEUlRPNS8_4NodeEbE_E10_M_destroyERSt9_Any_dataSt17integral_constantIbLb1EE
FN:166,169,_ZNSt14_Function_base13_Base_managerIZN6merkle5TreeTILm48EXadL_ZNS1_L14sha384_opensslERKNS1_5HashTILm48EEES6_RS4_EEE10retract_toEmEUlRPNS8_4NodeEbE_E10_M_destroyERSt9_Any_dataSt17integral_constantIbLb1EE
FN:166,169,_ZNSt14_Function_base13_Base_managerIZN6merkle5TreeTILm48EXadL_ZNS1_L14sha384_opensslERKNS1_5HashTILm48EEES6_RS4_EEE4pathEmEUlPNS8_4NodeEbE_E10_M_destroyERSt9_Any_dataSt17integral_constantIbLb1EE
FN:166,169,_ZNSt14_Function_base13_Base_managerIZN6merkle5TreeTILm48EXadL_ZNS1_L14sha384_opensslERKNS1_5HashTILm48EEES6_RS4_EEE8flush_toEmEUlRPNS8_4NodeEbE_E10_M_destroyERSt9_Any_dataSt17integral_constantIbLb1EE
FN:166,169,_ZNSt14_Function_base13_Base_managerIZN6merkle5TreeTILm48EXadL_ZNS1_L14sha384_opensslERKNS1_5HashTILm48EEES6_RS4_EEE9serialiseERSt6vectorIhSaIhEEEUlRPNS8_4NodeEbE_E10_M_destroyERSt9_Any_dataSt17integral_constantIbLb1EE
FN:166,169,_ZNSt14_Function_base13_Base_managerIZN6merkle5TreeTILm64EXadL_ZNS1_L14sha512_opensslERKNS1_5HashTILm64EEES6_RS4_EEE10retract_toEmEUlRPNS8_4NodeEbE_E10_M_destroyERSt9_Any_dataSt17integral_constantIbLb1EE
FN:166,169,_ZNSt14_Function_base13_Base_managerIZN6merkle5TreeTILm64EXadL_ZNS1_L14sha512_opensslERKNS1_5HashTILm64EEES6_RS4_EEE4pathEmEUlPNS8_4NodeEbE_E10_M_destroyERSt9_Any_dataSt17integral_constantIbLb1EE
FN:166,169,_ZNSt14_Function_base13_Base_managerIZN6merkle5TreeTILm64EXadL_ZNS1_L14sha512_opensslERKNS1_5HashTILm64EEES6_RS4_EEE8flush_toEmEUlRPNS8_4NodeEbE_E10_M_destroyERSt9_Any_dataSt17integral_constantIbLb1EE
FN:166,169,_ZNSt14_Function_base13_Base_managerIZN6merkle5TreeTILm64EXadL_ZNS1_L14sha512_opensslERKNS1_5HashTILm64EEES6_RS4_EEE9serialiseERSt6vectorIhSaIhEEEUlRPNS8_4NodeEbE_E10_M_destroyERSt9_Any_dataSt17integral_constantIbLb1EE
FN:180,207,_ZNSt14_Function_base13_Base_managerIZN6merkle5TreeTILm32EXadL_ZNS1_L14sha256_opensslERKNS1_5HashTILm32EEES6_RS4_EEE4pathEmEUlPNS8_4NodeEbE_E10_M_managerERSt9_Any_dataRKSD_St18_Manager_operation
FN:180,207,_ZNSt14_Function_base13_Base_managerIZN6merkle5TreeTILm32EXadL_ZNS1_L15sha256_compressERKNS1_5HashTILm32EEES6_RS4_EEE10retract_toEmEUlRPNS8_4NodeEbE_E10_M_managerERSt9_Any_dataRKSE_St18_Manager_operation
FN:180,207,_ZNSt14_Function_base13_Base_managerIZN6merkle5TreeTILm32EXadL_ZNS1_L15sha256_compressERKNS1_5HashTILm32EEES6_RS4_EEE15serialised_sizeEmmEUlRPNS8_4NodeEbE_E10_M_managerERSt9_Any_dataRKSE_St18_Manager_operation
FN:180,207,_ZNSt14_Function_base13_Base_managerIZN6merkle5TreeTILm32EXadL_ZNS1_L15sha256_compressERKNS1_5HashTILm32EEES6_RS4_EEE15serialised_sizeEvEUlRPNS8_4NodeEbE_E10_M_managerERSt9_Any_dataRKSE_St18_Manager_operation
FN:180,207,_ZNSt14_Function_base13_Base_managerIZN6merkle5TreeTILm32EXadL_ZNS1_L15sha256_compressERKNS1_5HashTILm32EEES6_RS4_EEE4pathEmEUlPNS8_4NodeEbE_E10_M_managerERSt9_Any_dataRKSD_St18_Manager_operation
FN:180,207,_ZNSt14_Function_base13_Base_managerIZN6merkle5TreeTILm32EXadL_ZNS1_L15sha256_compressERKNS1_5HashTILm32EEES6_RS4_EEE8flush_toEmEUlRPNS8_4NodeEbE_E10_M_managerERSt9_Any_dataRKSE_St18_Manager_operation
FN:180,207,_ZNSt14_Function_base13_Base_managerIZN6merkle5TreeTILm32EXadL_ZNS1_L15sha256_compressERKNS1_5HashTILm32EEES6_RS4_EEE9serialiseERSt6vectorIhSaIhEEEUlRPNS8_4NodeEbE_E10_M_managerERSt9_Any_dataRKSI_St18_Manager_operation
FN:180,207,_ZNSt14_Function_base13_Base_managerIZN6merkle5TreeTILm32EXadL_ZNS1_L15sha256_compressERKNS1_5HashTILm32EEES6_RS4_EEE9serialiseEmmRSt6vectorIhSaIhEEEUlRPNS8_4NodeEbE_E10_M_managerERSt9_Any_dataRKSI_St18_Manager_operation
FN:180,207,_ZNSt14_Function_base13_Base_managerIZN6merkle5TreeTILm48EXadL_ZNS1_L14sha384_opensslERKNS1_5HashTILm48EEES6_RS4_EEE10retract_toEmEUlRPNS8_4NodeEbE_E10_M_managerERSt9_Any_dataRKSE_St18_Manager_operation
FN:180,207,_ZNSt14_Function_base13_Base_managerIZN6merkle5TreeTILm48EXadL_ZNS1_L14sha384_opensslERKNS1_5HashTILm48EEES6_RS4_EEE4pathEmEUlPNS8_4NodeEbE_E10_M_managerERSt9_Any_dataRKSD_St18_Manager_operation
FN:180,207,_ZNSt14_Function_base13_Base_managerIZN6merkle5TreeTILm48EXadL_ZNS1_L14sha384_opensslERKNS1_5HashTILm48EEES6_RS4_EEE8flush_toEmEUlRPNS8_4NodeEbE_E10_M_managerERSt9_Any_dataRKSE_St18_Manager_operation
FN:180,207,_ZNSt14_Function_base13_Base_managerIZN6merkle5TreeTILm48EXadL_ZNS1_L14sha384_opensslERKNS1_5HashTILm48EEES6_RS4_EEE9serialiseERSt6vectorIhSaIhEEEUlRPNS8_4NodeEbE_E10_M_managerERSt9_Any_dataRKSI_St18_Manager_operation
FN:180,207,_ZNSt14_Function_base13_Base_managerIZN6merkle5TreeTILm64EXadL_ZNS1_L14sha512_opensslERKNS1_5HashTILm64EEES6_RS4_EEE10retract_toEmEUlRPNS8_4NodeEbE_E10_M_managerERSt9_Any_dataRKSE_St18_Manager_operation
FN:180,207,_ZNSt14_Function_base13_Base_managerIZN6merkle5TreeTILm64EXadL_ZNS1_L14sha512_opensslERKNS1_5HashTILm64EEES6_RS4_EEE4pathEmEUlPNS8_4NodeEbE_E10_M_managerERSt9_Any_dataRKSD_St18_Manager_operation
FN:180,207,_ZNSt14_Function_base13_Base_managerIZN6merkle5TreeTILm64EXadL_ZNS1_L14sha512_opensslERKNS1_5HashTILm64EEES6_RS4_EEE8flush_toEmEUlRPNS8_4NodeEbE_E10_M_managerERSt9_Any_dataRKSE_St18_Manager_operation
FN:180,207,_ZNSt14_Function_base13_Base_managerIZN6merkle5TreeTILm64EXadL_ZNS1_L14sha512_opensslERKNS1_5HashTILm64EEES6_RS4_EEE9serialiseERSt6vectorIhSaIhEEEUlRPNS8_4NodeEbE_E10_M_managerERSt9_Any_dataRKSI_St18_Manager_operation
FN:211,216,_ZNSt14_Function_base13_Base_managerIZN6merkle5TreeTILm32EXadL_ZNS1_L14sha256_opensslERKNS1_5HashTILm32EEES6_RS4_EEE4pathEmEUlPNS8_4NodeEbE_E15_M_init_functorIRKSB_EEvRSt9_Any_dataOT_
FN:211,216,_ZNSt14_Function_base13_Base_managerIZN6merkle5TreeTILm32EXadL_ZNS1_L14sha256_opensslERKNS1_5HashTILm32EEES6_RS4_EEE4pathEmEUlPNS8_4NodeEbE_E15_M_init_functorISB_EEvRSt9_Any_dataOT_
FN:211,216,_ZNSt14_Function_base13_Base_managerIZN6merkle5TreeTILm32EXadL_ZNS1_L15sha256_compressERKNS1_5HashTILm32EEES6_RS4_EEE10retract_toEmEUlRPNS8_4NodeEbE_E15_M_init_functorIRKSC_EEvRSt9_Any_dataOT_
FN:211,216,_ZNSt14_Function_base13_Base_managerIZN6merkle5TreeTILm32EXadL_ZNS1_L15sha256_compressERKNS1_5HashTILm32EEES6_RS4_EEE10retract_toEmEUlRPNS8_4NodeEbE_E15_M_init_functorISC_EEvRSt9_Any_dataOT_
FN:211,216,_ZNSt14_Function_base13_Base_managerIZN6merkle5TreeTILm32EXadL_ZNS1_L15sha256_compressERKNS1_5HashTILm32EEES6_RS4_EEE15serialised_sizeEmmEUlRPNS8_4NodeEbE_E15_M_init_functorIRKSC_EEvRSt9_Any_dataOT_
FN:211,216,_ZNSt14_Function_base13_Base_managerIZN6merkle5TreeTILm32EXadL_ZNS1_L15sha256_compressERKNS1_5HashTILm32EEES6_RS4_EEE15serialised_sizeEmmEUlRPNS8_4NodeEbE_E15_M_init_functorISC_EEvRSt9_Any_dataOT_
FN:211,216,_ZNSt14_Function_base13_Base_managerIZN6merkle5TreeTILm32EXadL_ZNS1_L15sha256_compressERKNS1_5HashTILm32EEES6_RS4_EEE15serialised_sizeEvEUlRPNS8_4NodeEbE_E15_M_init_functorIRKSC_EEvRSt9_Any_dataOT_
FN:211,216,_ZNSt14_Function_base13_Base_managerIZN6merkle5TreeTILm32EXadL_ZNS1_L15sha256_compressERKNS1_5HashTILm32EEES6_RS4_EEE15serialised_sizeEvEUlRPNS8_4NodeEbE_E15_M_init_functorISC_EEvRSt9_Any_dataOT_
FN:211,216,_ZNSt14_Function_base13_Base_managerIZN6merkle5TreeTILm32EXadL_ZNS1_L15sha256_compressERKNS1_5HashTILm32EEES6_RS4_EEE4pathEmEUlPNS8_4NodeEbE_E15_M_init_functorIRKSB_EEvRSt9_Any_dataOT_
FN:211,216,_ZNSt14_Function_base13_Base_managerIZN6merkle5TreeTILm32EXadL_ZNS1_L15sha256_compressERKNS1_5HashTILm32EEES6_RS4_EEE4pathEmEUlPNS8_4NodeEbE_E15_M_init_functorISB_EEvRSt9_Any_dataOT_
FN:211,216,_ZNSt14_Function_base13_Base_managerIZN6merkle5TreeTILm32EXadL_ZNS1_L15sha256_compressERKNS1_5HashTILm32EEES6_RS4_EEE8flush_toEmEUlRPNS8_4NodeEbE_E15_M_init_functorIRKSC_EEvRSt9_Any_dataOT_
FN:211,216,_ZNSt14_Function_base13_Base_managerIZN6merkle5TreeTILm32EXadL_ZNS1_L15sha256_compressERKNS1_5HashTILm32EEES6_RS4_EEE8flush_toEmEUlRPNS8_4NodeEbE_E15_M_init_functorISC_EEvRSt9_Any_dataOT_
FN:211,216,_ZNSt14_Function_base13_Base_managerIZN6merkle5TreeTILm32EXadL_ZNS1_L15sha256_compressERKNS1_5HashTILm32EEES6_RS4_EEE9serialiseERSt6vectorIhSaIhEEEUlRPNS8_4NodeEbE_E15_M_init_functorIRKSG_EEvRSt9_Any_dataOT_
FN:211,216,_ZNSt14_Function_base13_Base_managerIZN6merkle5TreeTILm32EXadL_ZNS1_L15sha256_compressERKNS1_5HashTILm32EEES6_RS4_EEE9serialiseERSt6vectorIhSaIhEEEUlRPNS8_4NodeEbE_E15_M_init_functorISG_EEvRSt9_Any_dataOT_
FN:211,216,_ZNSt14_Function_base13_Base_managerIZN6merkle5TreeTILm32EXadL_ZNS1_L15sha256_compressERKNS1_5HashTILm32EEES6_RS4_EEE9serialiseEmmRSt6vectorIhSaIhEEEUlRPNS8_4NodeEbE_E15_M_init_functorIRKSG_EEvRSt9_Any_dataOT_
FN:211,216,_ZNSt14_Function_base13_Base_managerIZN6merkle5TreeTILm32EXadL_ZNS1_L15sha256_compressERKNS1_5HashTILm32EEES6_RS4_EEE9serialiseEmmRSt6vectorIhSaIhEEEUlRPNS8_4NodeEbE_E15_M_init_functorISG_EEvRSt9_Any_dataOT_
FN:211,216,_ZNSt14_Function_base13_Base_managerIZN6merkle5TreeTILm48EXadL_ZNS1_L14sha384_opensslERKNS1_5HashTILm48EEES6_RS4_EEE10retract_toEmEUlRPNS8_4NodeEbE_E15_M_init_functorIRKSC_EEvRSt9_Any_dataOT_
FN:211,216,_ZNSt14_Function_base13_Base_managerIZN6merkle5TreeTILm48EXadL_ZNS1_L14sha384_opensslERKNS1_5HashTILm48EEES6_RS4_EEE10retract_toEmEUlRPNS8_4NodeEbE_E15_M_init_functorISC_EEvRSt9_Any_dataOT_
FN:211,216,_ZNSt14_Function_base13_Base_managerIZN6merkle5TreeTILm48EXadL_ZNS1_L14sha384_opensslERKNS1_5HashTILm48EEES6_RS4_EEE4pathEmEUlPNS8_4NodeEbE_E15_M_init_functorIRKSB_EEvRSt9_Any_dataOT_
FN:211,216,_ZNSt14_Function_base13_Base_managerIZN6merkle5TreeTILm48EXadL_ZNS1_L14sha384_opensslERKNS1_5HashTILm48EEES6_RS4_EEE4pathEmEUlPNS8_4NodeEbE_E15_M_init_functorISB_EEvRSt9_Any_dataOT_
FN:211,216,_ZNSt14_Function_base13_Base_managerIZN6merkle5TreeTILm48EXadL_ZNS1_L14sha384_opensslERKNS1_5HashTILm48EEES6_RS4_EEE8flush_toEmEUlRPNS8_4NodeEbE_E15_M_init_functorIRKSC_EEvRSt9_Any_dataOT_
FN:211,216,_ZNSt14_Function_base13_Base_managerIZN6merkle5TreeTILm48EXadL_ZNS1_L14sha384_opensslERKNS1_5HashTILm48EEES6_RS4_EEE8flush_toEmEUlRPNS8_4NodeEbE_E15_M_init_functorISC_EEvRSt9_Any_dataOT_
FN:211,216,_ZNSt14_Function_base13_Base_managerIZN6merkle5TreeTILm48EXadL_ZNS1_L14sha384_opensslERKNS1_5HashTILm48EEES6_RS4_EEE9serialiseERSt6vectorIhSaIhEEEUlRPNS8_4NodeEbE_E15_M_init_functorIRKSG_EEvRSt9_Any_dataOT_
FN:211,216,_ZNSt14_Function_base13_Base_managerIZN6merkle5TreeTILm48EXadL_ZNS1_L14sha384_opensslERKNS1_5HashTILm48EEES6_RS4_EEE9serialiseERSt6vectorIhSaIhEEEUlRPNS8_4NodeEbE_E15_M_init_functorISG_EEvRSt9_Any_dataOT_
FN:211,216,_ZNSt14_Function_base13_Base_managerIZN6merkle5TreeTILm64EXadL_ZNS1_L14sha512_opensslERKNS1_5HashTILm64EEES6_RS4_EEE10retract_toEmEUlRPNS8_4NodeEbE_E15_M_init_functorIRKSC_EEvRSt9_Any_dataOT_
FN:211,216,_ZNSt14_Function_base13_Base_managerIZN6merkle5TreeTILm64EXadL_ZNS1_L14sha512_opensslERKNS1_5HashTILm64EEES6_RS4_EEE10retract_toEmEUlRPNS8_4NodeEbE_E15_M_init_functorISC_EEvRSt9_Any_dataOT_
FN:211,216,_ZNSt14_Function_base13_Base_managerIZN6merkle5TreeTILm64EXadL_ZNS1_L14sha512_opensslERKNS1_5HashTILm64EEES6_RS4_EEE4pathEmEUlPNS8_4NodeEbE_E15_M_init_functorIRKSB_EEvRSt9_Any_dataOT_
FN:211,216,_ZNSt14_Function_base13_Base_managerIZN6merkle5TreeTILm64EXadL_ZNS1_L14sha512_opensslERKNS1_5HashTILm64EEES6_RS4_EEE4pathEmEUlPNS8_4NodeEbE_E15_M_init_functorISB_EEvRSt9_Any_dataOT_
FN:211,216,_ZNSt14_Function_base13_Base_managerIZN6merkle5TreeTILm64EXadL_ZNS1_L14sha512_opensslERKNS1_5HashTILm64EEES6_RS4_EEE8flush_toEmEUlRPNS8_4NodeEbE_E15_M_init_functorIRKSC_EEvRSt9_Any_dataOT_
FN:211,216,_ZNSt14_Function_base13_Base_managerIZN6merkle5TreeTILm64EXadL_ZNS1_L14sha512_opensslERKNS1_5HashTILm64EEES6_RS4_EEE8flush_toEmEUlRPNS8_4NodeEbE_E15_M_init_functorISC_EEvRSt9_Any_dataOT_
FN:211,216,_ZNSt14_Function_base13_Base_managerIZN6merkle5TreeTILm64EXadL_ZNS1_L14sha512_opensslERKNS1_5HashTILm64EEES6_RS4_EEE9serialiseERSt6vectorIhSaIhEEEUlRPNS8_4NodeEbE_E15_M_init_functorIRKSG_EEvRSt9_Any_dataOT_
FN:211,216,_ZNSt14_Function_base13_Base_managerIZN6merkle5TreeTILm64EXadL_ZNS1_L14sha512_opensslERKNS1_5HashTILm64EEES6_RS4_EEE9serialiseERSt6vectorIhSaIhEEEUlRPNS8_4NodeEbE_E15_M_init_functorISG_EEvRSt9_Any_dataOT_
FN:235,236,_ZNSt14_Function_base13_Base_managerIZN6merkle5TreeTILm32EXadL_ZNS1_L14sha256_opensslERKNS1_5HashTILm32EEES6_RS4_EEE4pathEmEUlPNS8_4NodeEbE_E21_M_not_empty_functionISB_EEbRKT_
FN:235,236,_ZNSt14_Function_base13_Base_managerIZN6merkle5TreeTILm32EXadL_ZNS1_L15sha256_compressERKNS1_5HashTILm32EEES6_RS4_EEE10retract_toEmEUlRPNS8_4NodeEbE_E21_M_not_empty_functionISC_EEbRKT_
FN:235,236,_ZNSt14_Function_base13_Base_managerIZN6merkle5TreeTILm32EXadL_ZNS1_L15sha256_compressERKNS1_5HashTILm32EEES6_RS4_EEE15serialised_sizeEmmEUlRPNS8_4NodeEbE_E21_M_not_empty_functionISC_EEbRKT_
FN:235,236,_ZNSt14_Function_base13_Base_managerIZN6merkle5TreeTILm32EXadL_ZNS1_L15sha256_compressERKNS1_5HashTILm32EEES6_RS4_EEE15serialised_sizeEvEUlRPNS8_4NodeEbE_E21_M_not_empty_functionISC_EEbRKT_
FN:235,236,_ZNSt14_Function_base13_Base_managerIZN6merkle5TreeTILm32EXadL_ZNS1_L15sha256_compressERKNS1_5HashTILm32EEES6_RS4_EEE4pathEmEUlPNS8_4NodeEbE_E21_M_not_empty_functionISB_EEbRKT_
FN:235,236,_ZNSt14_Function_base13_Base_managerIZN6merkle5TreeTILm32EXadL_ZNS1_L15sha256_compressERKNS1_5HashTILm32EEES6_RS4_EEE8flush_toEmEUlRPNS8_4NodeEbE_E21_M_not_empty_functionISC_EEbRKT_
FN:235,236,_ZNSt14_Function_base13_Base_managerIZN6merkle5TreeTILm32EXadL_ZNS1_L15sha256_compressERKNS1_5HashTILm32EEES6_RS4_EEE9serialiseERSt6vectorIhSaIhEEEUlRPNS8_4NodeEbE_E21_M_not_empty_functionISG_EEbRKT_
FN:235,236,_ZNSt14_Function_base13_Base_managerIZN6merkle5TreeTILm32EXadL_ZNS1_L15sha256_compressERKNS1_5HashTILm32EEES6_RS4_EEE9serialiseEmmRSt6vectorIhSaIhEEEUlRPNS8_4NodeEbE_E21_M_not_empty_functionISG_EEbRKT_
FN:235,236,_ZNSt14_Function_base13_Base_managerIZN6merkle5TreeTILm48EXadL_ZNS1_L14sha384_opensslERKNS1_5HashTILm48EEES6_RS4_EEE10retract_toEmEUlRPNS8_4NodeEbE_E21_M_not_empty_functionISC_EEbRKT_
FN:235,236,_ZNSt14_Function_base13_Base_managerIZN6merkle5TreeTILm48EXadL_ZNS1_L14sha384_opensslERKNS1_5HashTILm48EEES6_RS4_EEE4pathEmEUlPNS8_4NodeEbE_E21_M_not_empty_functionISB_EEbRKT_
FN:235,236,_ZNSt14_Function_base13_Base_managerIZN6merkle5TreeTILm48EXadL_ZNS1_L14sha384_opensslERKNS1_5HashTILm48EEES6_RS4_EEE8flush_toEmEUlRPNS8_4NodeEbE_E21_M_not_empty_functionISC_EEbRKT_
FN:235,236,_ZNSt14_Function_base13_Base_managerIZN6merkle5TreeTILm48EXadL_ZNS1_L14sha384_opensslERKNS1_5HashTILm48EEES6_RS4_EEE9serialiseERSt6vectorIhSaIhEEEUlRPNS8_4NodeEbE_E21_M_not_empty_functionISG_EEbRKT_
FN:235,236,_ZNSt14_Function_base13_Base_managerIZN6merkle5TreeTILm64EXadL_ZNS1_L14sha512_opensslERKNS1_5HashTILm64EEES6_RS4_EEE10retract_toEmEUlRPNS8_4NodeEbE_E21_M_not_empty_functionISC_EEbRKT_
FN:235,236,_ZNSt14_Function_base13_Base_managerIZN6merkle5TreeTILm64EXadL_ZNS1_L14sha512_opensslERKNS1_5HashTILm64EEES6_RS4_EEE4pathEmEUlPNS8_4NodeEbE_E21_M_not_empty_functionISB_EEbRKT_
FN:235,236,_ZNSt14_Function_base13_Base_managerIZN6merkle5TreeTILm64EXadL_ZNS1_L14sha512_opensslERKNS1_5HashTILm64EEES6_RS4_EEE8flush_toEmEUlRPNS8_4NodeEbE_E21_M_not_empty_functionISC_EEbRKT_
FN:235,236,_ZNSt14_Function_base13_Base_managerIZN6merkle5TreeTILm64EXadL_ZNS1_L14sha512_opensslERKNS1_5HashTILm64EEES6_RS4_EEE9serialiseERSt6vectorIhSaIhEEEUlRPNS8_4NodeEbE_E21_M_not_empty_functionISG_EEbRKT_
FN:239,239,_ZNSt14_Function_baseC2Ev
FN:241,245,_ZNSt14_Function_baseD2Ev
FN:247,247,_ZNKSt14_Function_base8_M_emptyEv
FN:267,285,_ZNSt17_Function_handlerIFbRPN6merkle5TreeTILm32EXadL_ZNS0_L14sha256_opensslERKNS0_5HashTILm32EEES5_RS3_EEE4NodeEbEZNS7_4pathEmEUlS9_bE_E10_M_managerERSt9_Any_dataRKSE_St18_Manager_operation
FN:267,285,_ZNSt17_Function_handlerIFbRPN6merkle5TreeTILm32EXadL_ZNS0_L15sha256_compressERKNS0_5HashTILm32EEES5_RS3_EEE4NodeEbEZNS7_10retract_toEmEUlSA_bE_E10_M_managerERSt9_Any_dataRKSE_St18_Manager_operation
FN:267,285,_ZNSt17_Function_handlerIFbRPN6merkle5TreeTILm32EXadL_ZNS0_L15sha256_compressERKNS0_5HashTILm32EEES5_RS3_EEE4NodeEbEZNS7_15serialised_sizeEmmEUlSA_bE_E10_M_managerERSt9_Any_dataRKSE_St18_Manager_operation
FN:267,285,_ZNSt17_Function_handlerIFbRPN6merkle5TreeTILm32EXadL_ZNS0_L15sha256_compressERKNS0_5HashTILm32EEES5_RS3_EEE4NodeEbEZNS7_15serialised_sizeEvEUlSA_bE_E10_M_managerERSt9_Any_dataRKSE_St18_Manager_operation
FN:267,285,_ZNSt17_Function_handlerIFbRPN6merkle5TreeTILm32EXadL_ZNS0_L15sha256_compressERKNS0_5HashTILm32EEES5_RS3_EEE4NodeEbEZNS7_4pathEmEUlS9_bE_E10_M_managerERSt9_Any_dataRKSE_St18_Manager_operation
FN:267,285,_ZNSt17_Function_handlerIFbRPN6merkle5TreeTILm32EXadL_ZNS0_L15sha256_compressERKNS0_5HashTILm32EEES5_RS3_EEE4NodeEbEZNS7_8flush_toEmEUlSA_bE_E10_M_managerERSt9_Any_dataRKSE_St18_Manager_operation
FN:267,285,_ZNSt17_Function_handlerIFbRPN6merkle5TreeTILm32EXadL_ZNS0_L15sha256_compressERKNS0_5HashTILm32EEES5_RS3_EEE4NodeEbEZNS7_9serialiseERSt6vectorIhSaIhEEEUlSA_bE_E10_M_managerERSt9_Any_dataRKSI_St18_Manager_operation
FN:267,285,_ZNSt17_Function_handlerIFbRPN6merkle5TreeTILm32EXadL_ZNS0_L15sha256_compressERKNS0_5HashTILm32EEES5_RS3_EEE4NodeEbEZNS7_9serialiseEmmRSt6vectorIhSaIhEEEUlSA_bE_E10_M_managerERSt9_Any_dataRKSI_St18_Manager_operation
FN:267,285,_ZNSt17_Function_handlerIFbRPN6merkle5TreeTILm48EXadL_ZNS0_L14sha384_opensslERKNS0_5HashTILm48EEES5_RS3_EEE4NodeEbEZNS7_10retract_toEmEUlSA_bE_E10_M_managerERSt9_Any_dataRKSE_St18_Manager_operation
FN:267,285,_ZNSt17_Function_handlerIFbRPN6merkle5TreeTILm48EXadL_ZNS0_L14sha384_opensslERKNS0_5HashTILm48EEES5_RS3_EEE4NodeEbEZNS7_4pathEmEUlS9_bE_E10_M_managerERSt9_Any_dataRKSE_St18_Manager_operation
FN:267,285,_ZNSt17_Function_handlerIFbRPN6merkle5TreeTILm48EXadL_ZNS0_L14sha384_opensslERKNS0_5HashTILm48EEES5_RS3_EEE4NodeEbEZNS7_8flush_toEmEUlSA_bE_E10_M_managerERSt9_Any_dataRKSE_St18_Manager_operation
FN:267,285,_ZNSt17_Function_handlerIFbRPN6merkle5TreeTILm48EXadL_ZNS0_L14sha384_opensslERKNS0_5HashTILm48EEES5_RS3_EEE4NodeEbEZNS7_9serialiseERSt6vectorIhSaIhEEEUlSA_bE_E10_M_managerERSt9_Any_dataRKSI_St18_Manager_operation
FN:267,285,_ZNSt17_Function_handlerIFbRPN6merkle5TreeTILm64EXadL_ZNS0_L14sha512_opensslERKNS0_5HashTILm64EEES5_RS3_EEE4NodeEbEZNS7_10retract_toEmEUlSA_bE_E10_M_managerERSt9_Any_dataRKSE_St18_Manager_operation
FN:267,285,_ZNSt17_Function_handlerIFbRPN6merkle5TreeTILm64EXadL_ZNS0_L14sha512_opensslERKNS0_5HashTILm64EEES5_RS3_EEE4NodeEbEZNS7_4pathEmEUlS9_bE_E10_M_managerERSt9_Any_dataRKSE_St18_Manager_operation
FN:267,285,_ZNSt17_Function_handlerIFbRPN6merkle5TreeTILm64EXadL_ZNS0_L14sha512_opensslERKNS0_5HashTILm64EEES5_RS3_EEE4NodeEbEZNS7_8flush_toEmEUlSA_bE_E10_M_managerERSt9_Any_dataRKSE_St18_Manager_operation
FN:267,285,_ZNSt17_Function_handlerIFbRPN6merkle5TreeTILm64EXadL_ZNS0_L14sha512_opensslERKNS0_5HashTILm64EEES5_RS3_EEE4NodeEbEZNS7_9serialiseERSt6vectorIhSaIhEEEUlSA_bE_E10_M_managerERSt9_Any_dataRKSI_St18_Manager_operation
FN:288,292,_ZNSt17_Function_handlerIFbRPN6merkle5TreeTILm32EXadL_ZNS0_L14sha256_opensslERKNS0_5HashTILm32EEES5_RS3_EEE4NodeEbEZNS7_4pathEmEUlS9_bE_E9_M_invokeERKSt9_Any_dataSA_Ob
FN:288,292,_ZNSt17_Function_handlerIFbRPN6merkle5TreeTILm32EXadL_ZNS0_L15sha256_compressERKNS0_5HashTILm32EEES5_RS3_EEE4NodeEbEZNS7_10retract_toEmEUlSA_bE_E9_M_invokeERKSt9_Any_dataSA_Ob
FN:288,292,_ZNSt17_Function_handlerIFbRPN6merkle5TreeTILm32EXadL_ZNS0_L15sha256_compressERKNS0_5HashTILm32EEES5_RS3_EEE4NodeEbEZNS7_15serialised_sizeEmmEUlSA_bE_E9_M_invokeERKSt9_Any_dataSA_Ob
FN:288,292,_ZNSt17_Function_handlerIFbRPN6merkle5TreeTILm32EXadL_ZNS0_L15sha256_compressERKNS0_5HashTILm32EEES5_RS3_EEE4NodeEbEZNS7_15serialised_sizeEvEUlSA_bE_E9_M_invokeERKSt9_Any_dataSA_Ob
FN:288,292,_ZNSt17_Function_handlerIFbRPN6merkle5TreeTILm32EXadL_ZNS0_L15sha256_compressERKNS0_5HashTILm32EEES5_RS3_EEE4NodeEbEZNS7_4pathEmEUlS9_bE_E9_M_invokeERKSt9_Any_dataSA_Ob
FN:288,292,_ZNSt17_Function_handlerIFbRPN6merkle5TreeTILm32EXadL_ZNS0_L15sha256_compressERKNS0_5HashTILm32EEES5_RS3_EEE4NodeEbEZNS7_8flush_toEmEUlSA_bE_E9_M_invokeERKSt9_Any_dataSA_Ob
FN:288,292,_ZNSt17_Function_handlerIFbRPN6merkle5TreeTILm32EXadL_ZNS0_L15sha256_compressERKNS0_5HashTILm32EEES5_RS3_EEE4NodeEbEZNS7_9serialiseERSt6vectorIhSaIhEEEUlSA_bE_E9_M_invokeERKSt9_Any_dataSA_Ob
FN:288,292,_ZNSt17_Function_handlerIFbRPN6merkle5TreeTILm32EXadL_ZNS0_L15sha256_compressERKNS0_5HashTILm32EEES5_RS3_EEE4NodeEbEZNS7_9serialiseEmmRSt6vectorIhSaIhEEEUlSA_bE_E9_M_invokeERKSt9_Any_dataSA_Ob
FN:288,292,_ZNSt17_Function_handlerIFbRPN6merkle5TreeTILm48EXadL_ZNS0_L14sha384_opensslERKNS0_5HashTILm48EEES5_RS3_EEE4NodeEbEZNS7_10retract_toEmEUlSA_bE_E9_M_invokeERKSt9_Any_dataSA_Ob
FN:288,292,_ZNSt17_Function_handlerIFbRPN6merkle5TreeTILm48EXadL_ZNS0_L14sha384_opensslERKNS0_5HashTILm48EEES5_RS3_EEE4NodeEbEZNS7_4pathEmEUlS9_bE_E9_M_invokeERKSt9_Any_dataSA_Ob
FN:288,292,_ZNSt17_Function_handlerIFbRPN6merkle5TreeTILm48EXadL_ZNS0_L14sha384_opensslERKNS0_5HashTILm48EEES5_RS3_EEE4NodeEbEZNS7_8flush_toEmEUlSA_bE_E9_M_invokeERKSt9_Any_dataSA_Ob
FN:288,292,_ZNSt17_Function_handlerIFbRPN6merkle5TreeTILm48EXadL_ZNS0_L14sha384_opensslERKNS0_5HashTILm48EEES5_RS3_EEE4NodeEbEZNS7_9serialiseERSt6vectorIhSaIhEEEUlSA_bE_E9_M_invokeERKSt9_Any_dataSA_Ob
FN:288,292,_ZNSt17_Function_handlerIFbRPN6merkle5TreeTILm64EXadL_ZNS0_L14sha512_opensslERKNS0_5HashTILm64EEES5_RS3_EEE4NodeEbEZNS7_10retract_toEmEUlSA_bE_E9_M_invokeERKSt9_Any_dataSA_Ob
FN:288,292,_ZNSt17_Function_handlerIFbRPN6merkle5TreeTILm64EXadL_ZNS0_L14sha512_opensslERKNS0_5HashTILm64EEES5_RS3_EEE4NodeEbEZNS7_4pathEmEUlS9_bE_E9_M_invokeERKSt9_Any_dataSA_Ob
FN:288,292,_ZNSt17_Function_handlerIFbRPN6merkle5TreeTILm64EXadL_ZNS0_L14sha512_opensslERKNS0_5HashTILm64EEES5_RS3_EEE4NodeEbEZNS7_8flush_toEmEUlSA_bE_E9_M_invokeERKSt9_Any_dataSA_Ob
FN:288,292,_ZNSt17_Function_handlerIFbRPN6merkle5TreeTILm64EXadL_ZNS0_L14sha512_opensslERKNS0_5HashTILm64EEES5_RS3_EEE4NodeEbEZNS7_9serialiseERSt6vectorIhSaIhEEEUlSA_bE_E9_M_invokeERKSt9_Any_dataSA_Ob
FN:435,454,_ZNSt8functionIFbRPN6merkle5TreeTILm32EXadL_ZNS0_L14sha256_opensslERKNS0_5HashTILm32EEES5_RS3_EEE4NodeEbEEC2IZNS7_4pathEmEUlS9_bE_vEEOT_
FN:435,454,_ZNSt8functionIFbRPN6merkle5TreeTILm32EXadL_ZNS0_L15sha256_compressERKNS0_5HashTILm32EEES5_RS3_EEE4NodeEbEEC2IZNS7_10retract_toEmEUlSA_bE_vEEOT_
FN:435,454,_ZNSt8functionIFbRPN6merkle5TreeTILm32EXadL_ZNS0_L15sha256_compressERKNS0_5HashTILm32EEES5_RS3_EEE4NodeEbEEC2IZNS7_15serialised_sizeEmmEUlSA_bE_vEEOT_
FN:435,454,_ZNSt8functionIFbRPN6merkle5TreeTILm32EXadL_ZNS0_L15sha256_compressERKNS0_5HashTILm32EEES5_RS3_EEE4NodeEbEEC2IZNS7_15serialised_sizeEvEUlSA_bE_vEEOT_
FN:435,454,_ZNSt8functionIFbRPN6merkle5TreeTILm32EXadL_ZNS0_L15sha256_compressERKNS0_5HashTILm32EEES5_RS3_EEE4NodeEbEEC2IZNS7_4pathEmEUlS9_bE_vEEOT_
FN:435,454,_ZNSt8functionIFbRPN6merkle5TreeTILm32EXadL_ZNS0_L15sha256_compressERKNS0_5HashTILm32EEES5_RS3_EEE4NodeEbEEC2IZNS7_8flush_toEmEUlSA_bE_vEEOT_
FN:435,454,_ZNSt8functionIFbRPN6merkle5TreeTILm32EXadL_ZNS0_L15sha256_compressERKNS0_5HashTILm32EEES5_RS3_EEE4NodeEbEEC2IZNS7_9serialiseERSt6vectorIhSaIhEEEUlSA_bE_vEEOT_
FN:435,454,_ZNSt8functionIFbRPN6merkle5TreeTILm32EXadL_ZNS0_L15sha256_compressERKNS0_5HashTILm32EEES5_RS3_EEE4NodeEbEEC2IZNS7_9serialiseEmmRSt6vectorIhSaIhEEEUlSA_bE_vEEOT_
FN:435,454,_ZNSt8functionIFbRPN6merkle5TreeTILm48EXadL_ZNS0_L14sha384_opensslERKNS0_5HashTILm48EEES5_RS3_EEE4NodeEbEEC2IZNS7_10retract_toEmEUlSA_bE_vEEOT_
FN:435,454,_ZNSt8functionIFbRPN6merkle5TreeTILm48EXadL_ZNS0_L14sha384_opensslERKNS0_5HashTILm48EEES5_RS3_EEE4NodeEbEEC2IZNS7_4pathEmEUlS9_bE_vEEOT_
FN:435,454,_ZNSt8functionIFbRPN6merkle5TreeTILm48EXadL_ZNS0_L14sha384_opensslERKNS0_5HashTILm48EEES5_RS3_EEE4NodeEbEEC2IZNS7_8flush_toEmEUlSA_bE_vEEOT_
FN:435,454,_ZNSt8functionIFbRPN6merkle5TreeTILm48EXadL_ZNS0_L14sha384_opensslERKNS0_5HashTILm48EEES5_RS3_EEE4NodeEbEEC2IZNS7_9serialiseERSt6vectorIhSaIhEEEUlSA_bE_vEEOT_
FN:435,454,_ZNSt8functionIFbRPN6merkle5TreeTILm64EXadL_ZNS0_L14sha512_opensslERKNS0_5HashTILm64EEES5_RS3_EEE4NodeEbEEC2IZNS7_10retract_toEmEUlSA_bE_vEEOT_
FN:435,454,_ZNSt8functionIFbRPN6merkle5TreeTILm64EXadL_ZNS0_L14sha512_opensslERKNS0_5HashTILm64EEES5_RS3_EEE4NodeEbEEC2IZNS7_4pathEmEUlS9_bE_vEEOT_
FN:435,454,_ZNSt8functionIFbRPN6merkle5TreeTILm64EXadL_ZNS0_L14sha512_opensslERKNS0_5HashTILm64EEES5_RS3_EEE4NodeEbEEC2IZNS7_8flush_toEmEUlSA_bE_vEEOT_
FN:435,454,_ZNSt8functionIFbRPN6merkle5TreeTILm64EXadL_ZNS0_L14sha512_opensslERKNS0_5HashTILm64EEES5_RS3_EEE4NodeEbEEC2IZNS7_9serialiseERSt6vectorIhSaIhEEEUlSA_bE_vEEOT_
FN:587,592,_ZNKSt8functionIFbRPN6merkle5TreeTILm32EXadL_ZNS0_L14sha256_opensslERKNS0_5HashTILm32EEES5_RS3_EEE4NodeEbEEclESA_b
FN:587,592,_ZNKSt8functionIFbRPN6merkle5TreeTILm32EXadL_ZNS0_L15sha256_compressERKNS0_5HashTILm32EEES5_RS3_EEE4NodeEbEEclESA_b
FN:587,592,_ZNKSt8functionIFbRPN6merkle5TreeTILm48EXadL_ZNS0_L14sha384_opensslERKNS0_5HashTILm48EEES5_RS3_EEE4NodeEbEEclESA_b
FN:587,592,_ZNKSt8functionIFbRPN6merkle5TreeTILm64EXadL_ZNS0_L14sha512_opensslERKNS0_5HashTILm64EEES5_RS3_EEE4NodeEbEEclESA_b
FN:85,85,_ZNSt9_Any_data9_M_accessEv
FN:86,86,_ZNKSt9_Any_data9_M_accessEv
FN:90,91,_ZNSt9_Any_data9_M_accessIPKSt9type_infoEERT_v
FN:90,91,_ZNSt9_Any_data9_M_accessIPZN6merkle5TreeTILm32EXadL_ZNS1_L14sha256_opensslERKNS1_5HashTILm32EEES6_RS4_EEE4pathEmEUlPNS8_4NodeEbE_EERT_v
FN:90,91,_ZNSt9_Any_data9_M_accessIPZN6merkle5TreeTILm32EXadL_ZNS1_L15sha256_compressERKNS1_5HashTILm32EEES6_RS4_EEE10retract_toEmEUlRPNS8_4NodeEbE_EERT_v
FN:90,91,_ZNSt9_Any_data9_M_accessIPZN6merkle5TreeTILm32EXadL_ZNS1_L15sha256_compressERKNS1_5HashTILm32EEES6_RS4_EEE15serialised_sizeEmmEUlRPNS8_4NodeEbE_EERT_v
FN:90,91,_ZNSt9_Any_data9_M_accessIPZN6merkle5TreeTILm32EXadL_ZNS1_L15sha256_compressERKNS1_5HashTILm32EEES6_RS4_EEE15serialised_sizeEvEUlRPNS8_4NodeEbE_EERT_v
FN:90,91,_ZNSt9_Any_data9_M_accessIPZN6merkle5TreeTILm32EXadL_ZNS1_L15sha256_compressERKNS1_5HashTILm32EEES6_RS4_EEE4pathEmEUlPNS8_4NodeEbE_EERT_v
FN:90,91,_ZNSt9_Any_data9_M_accessIPZN6merkle5TreeTILm32EXadL_ZNS1_L15sha256_compressERKNS1_5HashTILm32EEES6_RS4_EEE8flush_toEmEUlRPNS8_4NodeEbE_EERT_v
FN:90,91,_ZNSt9_Any_data9_M_accessIPZN6merkle5TreeTILm32EXadL_ZNS1_L15sha256_compressERKNS1_5HashTILm32EEES6_RS4_EEE9serialiseERSt6vectorIhSaIhEEEUlRPNS8_4NodeEbE_EERT_v
FN:90,91,_ZNSt9_Any_data9_M_accessIPZN6merkle5TreeTILm32EXadL_ZNS1_L15sha256_compressERKNS1_5HashTILm32EEES6_RS4_EEE9serialiseEmmRSt6vectorIhSaIhEEEUlRPNS8_4NodeEbE_EERT_v
FN:90,91,_ZNSt9_Any_data9_M_accessIPZN6merkle5TreeTILm48EXadL_ZNS1_L14sha384_opensslERKNS1_5HashTILm48EEES6_RS4_EEE10retract_toEmEUlRPNS8_4NodeEbE_EERT_v
FN:90,91,_ZNSt9_Any_data9_M_accessIPZN6merkle5TreeTILm48EXadL_ZNS1_L14sha384_opensslERKNS1_5HashTILm48EEES6_RS4_EEE4pathEmEUlPNS8_4NodeEbE_EERT_v
FN:90,91,_ZNSt9_Any_data9_M_accessIPZN6merkle5TreeTILm48EXadL_ZNS1_L14sha384_opensslERKNS1_5HashTILm48EEES6_RS4_EEE8flush_toEmEUlRPNS8_4NodeEbE_EERT_v
FN:90,91,_ZNSt9_Any_data9_M_accessIPZN6merkle5TreeTILm48EXadL_ZNS1_L14sha384_opensslERKNS1_5HashTILm48EEES6_RS4_EEE9serialiseERSt6vectorIhSaIhEEEUlRPNS8_4NodeEbE_EERT_v
FN:90,91,_ZNSt9_Any_data9_M_accessIPZN6merkle5TreeTILm64EXadL_ZNS1_L14sha512_opensslERKNS1_5HashTILm64EEES6_RS4_EEE10retract_toEmEUlRPNS8_4NodeEbE_EERT_v
FN:90,91,_ZNSt9_Any_data9_M_accessIPZN6merkle5TreeTILm64EXadL_ZNS1_L14sha512_opensslERKNS1_5HashTILm64EEES6_RS4_EEE4pathEmEUlPNS8_4NodeEbE_EERT_v
FN:90,91,_ZNSt9_Any_data9_M_accessIPZN6merkle5TreeTILm64EXadL_ZNS1_L14sha512_opensslERKNS1_5HashTILm64EEES6_RS4_EEE8flush_toEmEUlRPNS8_4NodeEbE_EERT_v
FN:90,91,_ZNSt9_Any_data9_M_accessIPZN6merkle5TreeTILm64EXadL_ZNS1_L14sha512_opensslERKNS1_5HashTILm64EEES6_RS4_EEE9serialiseERSt6vectorIhSaIhEEEUlRPNS8_4NodeEbE_EERT_v
FN:90,91,_ZNSt9_Any_data9_M_accessIZN6merkle5TreeTILm32EXadL_ZNS1_L14sha256_opensslERKNS1_5HashTILm32EEES6_RS4_EEE4pathEmEUlPNS8_4NodeEbE_EERT_v
FN:90,91,_ZNSt9_Any_data9_M_accessIZN6merkle5TreeTILm32EXadL_ZNS1_L15sha256_compressERKNS1_5HashTILm32EEES6_RS4_EEE10retract_toEmEUlRPNS8_4NodeEbE_EERT_v
FN:90,91,_ZNSt9_Any_data9_M_accessIZN6merkle5TreeTILm32EXadL_ZNS1_L15sha256_compressERKNS1_5HashTILm32EEES6_RS4_EEE15serialised_sizeEmmEUlRPNS8_4NodeEbE_EERT_v
FN:90,91,_ZNSt9_Any_data9_M_accessIZN6merkle5TreeTILm32EXadL_ZNS1_L15sha256_compressERKNS1_5HashTILm32EEES6_RS4_EEE15serialised_sizeEvEUlRPNS8_4NodeEbE_EERT_v
FN:90,91,_ZNSt9_Any_data9_M_accessIZN6merkle5TreeTILm32EXadL_ZNS1_L15sha256_compressERKNS1_5HashTILm32EEES6_RS4_EEE4pathEmEUlPNS8_4NodeEbE_EERT_v
FN:90,91,_ZNSt9_Any_data9_M_accessIZN6merkle5TreeTILm32EXadL_ZNS1_L15sha256_compressERKNS1_5HashTILm32EEES6_RS4_EEE8flush_toEmEUlRPNS8_4NodeEbE_EERT_v
FN:90,91,_ZNSt9_Any_data9_M_accessIZN6merkle5TreeTILm32EXadL_ZNS1_L15sha256_compressERKNS1_5HashTILm32EEES6_RS4_EEE9serialiseERSt6vectorIhSaIhEEEUlRPNS8_4NodeEbE_EERT_v
FN:90,91,_ZNSt9_Any_data9_M_accessIZN6merkle5TreeTILm32EXadL_ZNS1_L15sha256_compressERKNS1_5HashTILm32EEES6_RS4_EEE9serialiseEmmRSt6vectorIhSaIhEEEUlRPNS8_4NodeEbE_EERT_v
FN:90,91,_ZNSt9_Any_data9_M_accessIZN6merkle5TreeTILm48EXadL_ZNS1_L14sha384_opensslERKNS1_5HashTILm48EEES6_RS4_EEE10retract_toEmEUlRPNS8_4NodeEbE_EERT_v
FN:90,91,_ZNSt9_Any_data9_M_accessIZN6merkle5TreeTILm48EXadL_ZNS1_L14sha384_opensslERKNS1_5HashTILm48EEES6_RS4_EEE4pathEmEUlPNS8_4NodeEbE_EERT_v
FN:90,91,_ZNSt9_Any_data9_M_accessIZN6merkle5TreeTILm48EXadL_ZNS1_L14sha384_opensslERKNS1_5HashTILm48EEES6_RS4_EEE8flush_toEmEUlRPNS8_4NodeEbE_EERT_v
FN:90,91,_ZNSt9_Any_data9_M_accessIZN6merkle5TreeTILm48EXadL_ZNS1_L14sha384_opensslERKNS1_5HashTILm48EEES6_RS4_EEE9serialiseERSt6vectorIhSaIhEEEUlRPNS8_4NodeEbE_EERT_v
FN:90,91,_ZNSt9_Any_data9_M_accessIZN6merkle5TreeTILm64EXadL_ZNS1_L14sha512_opensslERKNS1_5HashTILm64EEES6_RS4_EEE10retract_toEmEUlRPNS8_4NodeEbE_EERT_v
FN:90,91,_ZNSt9_Any_data9_M_accessIZN6merkle5TreeTILm64EXadL_ZNS1_L14sha512_opensslERKNS1_5HashTILm64EEES6_RS4_EEE4pathEmEUlPNS8_4NodeEbE_EERT_v
FN:90,91,_ZNSt9_Any_data9_M_accessIZN6merkle5TreeTILm64EXadL_ZNS1_L14sha512_opensslERKNS1_5HashTILm64EEES6_RS4_EEE8flush_toEmEUlRPNS8_4NodeEbE_EERT_v
FN:90,91,_ZNSt9_Any_data9_M_accessIZN6merkle5TreeTILm64EXadL_ZNS1_L14sha512_opensslERKNS1_5HashTILm64EEES6_RS4_EEE9serialiseERSt6vectorIhSaIhEEEUlRPNS8_4NodeEbE_EERT_v
FN:95,96,_ZNKSt9_Any_data9_M_accessIZN6merkle5TreeTILm32EXadL_ZNS1_L14sha256_opensslERKNS1_5HashTILm32EEES6_RS4_EEE4pathEmEUlPNS8_4NodeEbE_EERKT_v
FN:95,96,_ZNKSt9_Any_data9_M_accessIZN6merkle5TreeTILm32EXadL_ZNS1_L15sha256_compressERKNS1_5HashTILm32EEES6_RS4_EEE10retract_toEmEUlRPNS8_4NodeEbE_EERKT_v
FN:95,96,_ZNKSt9_Any_data9_M_accessIZN6merkle5TreeTILm32EXadL_ZNS1_L15sha256_compressERKNS1_5HashTILm32EEES6_RS4_EEE15serialised_sizeEmmEUlRPNS8_4NodeEbE_EERKT_v
FN:95,96,_ZNKSt9_Any_data9_M_accessIZN6merkle5TreeTILm32EXadL_ZNS1_L15sha256_compressERKNS1_5HashTILm32EEES6_RS4_EEE15serialised_sizeEvEUlRPNS8_4NodeEbE_EERKT_v
FN:95,96,_ZNKSt9_Any_data9_M_accessIZN6merkle5TreeTILm32EXadL_ZNS1_L15sha256_compressERKNS1_5HashTILm32EEES6_RS4_EEE4pathEmEUlPNS8_4NodeEbE_EERKT_v
FN:95,96,_ZNKSt9_Any_data9_M_accessIZN6merkle5TreeTILm32EXadL_ZNS1_L15sha256_compressERKNS1_5HashTILm32EEES6_RS4_EEE8flush_toEmEUlRPNS8_4NodeEbE_EERKT_v
FN:95,96,_ZNKSt9_Any_data9_M_accessIZN6merkle5TreeTILm32EXadL_ZNS1_L15sha256_compressERKNS1_5HashTILm32EEES6_RS4_EEE9serialiseERSt6vectorIhSaIhEEEUlRPNS8_4NodeEbE_EERKT_v
FN:95,96,_ZNKSt9_Any_data9_M_accessIZN6merkle5TreeTILm32EXadL_ZNS1_L15sha256_compressERKNS1_5HashTILm32EEES6_RS4_EEE9serialiseEmmRSt6vectorIhSaIhEEEUlRPNS8_4NodeEbE_EERKT_v
FN:95,96,_ZNKSt9_Any_data9_M_accessIZN6merkle5TreeTILm48EXadL_ZNS1_L14sha384_opensslERKNS1_5HashTILm48EEES6_RS4_EEE10retract_toEmEUlRPNS8_4NodeEbE_EERKT_v
FN:95,96,_ZNKSt9_Any_data9_M_accessIZN6merkle5TreeTILm48EXadL_ZNS1_L14sha384_opensslERKNS1_5HashTILm48EEES6_RS4_EEE4pathEmEUlPNS8_4NodeEbE_EERKT_v
FN:95,96,_ZNKSt9_Any_data9_M_accessIZN6merkle5TreeTILm48EXadL_ZNS1_L14sha384_opensslERKNS1_5HashTILm48EEES6_RS4_EEE8flush_toEmEUlRPNS8_4NodeEbE_EERKT_v
FN:95,96,_ZNKSt9_Any_data9_M_accessIZN6merkle5TreeTILm48EXadL_ZNS1_L14sha384_opensslERKNS1_5HashTILm48EEES6_RS4_EEE9serialiseERSt6vectorIhSaIhEEEUlRPNS8_4NodeEbE_EERKT_v
FN:95,96,_ZNKSt9_Any_data9_M_accessIZN6merkle5TreeTILm64EXadL_ZNS1_L14sha512_opensslERKNS1_5HashTILm64EEES6_RS4_EEE10retract_toEmEUlRPNS8_4NodeEbE_EERKT_v
FN:95,96,_ZNKSt9_Any_data9_M_accessIZN6merkle5TreeTILm64EXadL_ZNS1_L14sha512_opensslERKNS1_5HashTILm64EEES6_RS4_EEE4pathEmEUlPNS8_4NodeEbE_EERKT_v
FN:95,96,_ZNKSt9_Any_data9_M_accessIZN6merkle5TreeTILm64EXadL_ZNS1_L14sha512_opensslERKNS1_5HashTILm64EEES6_RS4_EEE8flush_toEmEUlRPNS8_4NodeEbE_EERKT_v
FN:95,96,_ZNKSt9_Any_data9_M_accessIZN6merkle5TreeTILm64EXadL_ZNS1_L14sha512_opensslERKNS1_5HashTILm64EEES6_RS4_EEE9serialiseERSt6vectorIhSaIhEEEUlRPNS8_4NodeEbE_EERKT_v
FNDA:4,_ZNSt14_Function_base13_Base_managerIZN6merkle5TreeTILm32EXadL_ZNS1_L14sha256_opensslERKNS1_5HashTILm32EEES6_RS4_EEE4pathEmEUlPNS8_4NodeEbE_E14_M_get_pointerERKSt9_Any_data
FNDA:384165,_ZNSt14_Function_base13_Base_managerIZN6merkle5TreeTILm32EXadL_ZNS1_L15sha256_compressERKNS1_5HashTILm32EEES6_RS4_EEE10retract_toEmEUlRPNS8_4NodeEbE_E14_M_get_pointerERKSt9_Any_data
FNDA:16864,_ZNSt14_Function_base13_Base_managerIZN6merkle5TreeTILm32EXadL_ZNS1_L15sha256_compressERKNS1_5HashTILm32EEES6_RS4_EEE15serialised_sizeEmmEUlRPNS8_4NodeEbE_E14_M_get_pointerERKSt9_Any_data
FNDA:16688,_ZNSt14_Function_base13_Base_managerIZN6merkle5TreeTILm32EXadL_ZNS1_L15sha256_compressERKNS1_5HashTILm32EEES6_RS4_EEE15serialised_sizeEvEUlRPNS8_4NodeEbE_E14_M_get_pointerERKSt9_Any_data
FNDA:498103,_ZNSt14_Function_base13_Base_managerIZN6merkle5TreeTILm32EXadL_ZNS1_L15sha256_compressERKNS1_5HashTILm32EEES6_RS4_EEE4pathEmEUlPNS8_4NodeEbE_E14_M_get_pointerERKSt9_Any_data
FNDA:1612664,_ZNSt14_Function_base13_Base_managerIZN6merkle5TreeTILm32EXadL_ZNS1_L15sha256_compressERKNS1_5HashTILm32EEES6_RS4_EEE8flush_toEmEUlRPNS8_4NodeEbE_E14_M_get_pointerERKSt9_Any_data
FNDA:637,_ZNSt14_Function_base13_Base_managerIZN6merkle5TreeTILm32EXadL_ZNS1_L15sha256_compressERKNS1_5HashTILm32EEES6_RS4_EEE9serialiseERSt6vectorIhSaIhEEEUlRPNS8_4NodeEbE_E14_M_get_pointerERKSt9_Any_data
FNDA:16864,_ZNSt14_Function_base13_Base_managerIZN6merkle5TreeTILm32EXadL_ZNS1_L15sha256_compressERKNS1_5HashTILm32EEES6_RS4_EEE9serialiseEmmRSt6vectorIhSaIhEEEUlRPNS8_4NodeEbE_E14_M_get_pointerERKSt9_Any_data
FNDA:2,_ZNSt14_Function_base13_Base_managerIZN6merkle5TreeTILm48EXadL_ZNS1_L14sha384_opensslERKNS1_5HashTILm48EEES6_RS4_EEE10retract_toEmEUlRPNS8_4NodeEbE_E14_M_get_pointerERKSt9_Any_data
FNDA:387,_ZNSt14_Function_base13_Base_managerIZN6merkle5TreeTILm48EXadL_ZNS1_L14sha384_opensslERKNS1_5HashTILm48EEES6_RS4_EEE4pathEmEUlPNS8_4NodeEbE_E14_M_get_pointerERKSt9_Any_data
FNDA:1,_ZNSt14_Function_base13_Base_managerIZN6merkle5TreeTILm48EXadL_ZNS1_L14sha384_opensslERKNS1_5HashTILm48EEES6_RS4_EEE8flush_toEmEUlRPNS8_4NodeEbE_E14_M_get_pointerERKSt9_Any_data
FNDA:1,_ZNSt14_Function_base13_Base_managerIZN6merkle5TreeTILm48EXadL_ZNS1_L14sha384_opensslERKNS1_5HashTILm48EEES6_RS4_EEE9serialiseERSt6vectorIhSaIhEEEUlRPNS8_4NodeEbE_E14_M_get_pointerERKSt9_Any_data
FNDA:2,_ZNSt14_Function_base13_Base_managerIZN6merkle5TreeTILm64EXadL_ZNS1_L14sha512_opensslERKNS1_5HashTILm64EEES6_RS4_EEE10retract_toEmEUlRPNS8_4NodeEbE_E14_M_get_pointerERKSt9_Any_data
FNDA:387,_ZNSt14_Function_base13_Base_managerIZN6merkle5TreeTILm64EXadL_ZNS1_L14sha512_opensslERKNS1_5HashTILm64EEES6_RS4_EEE4pathEmEUlPNS8_4NodeEbE_E14_M_get_pointerERKSt9_Any_data
FNDA:1,_ZNSt14_Function_base13_Base_managerIZN6merkle5TreeTILm64EXadL_ZNS1_L14sha512_opensslERKNS1_5HashTILm64EEES6_RS4_EEE8flush_toEmEUlRPNS8_4NodeEbE_E14_M_get_pointerERKSt9_Any_data
FNDA:1,_ZNSt14_Function_base13_Base_managerIZN6merkle5TreeTILm64EXadL_ZNS1_L14sha512_opensslERKNS1_5HashTILm64EEES6_RS4_EEE9serialiseERSt6vectorIhSaIhEEEUlRPNS8_4NodeEbE_E14_M_get_pointerERKSt9_Any_data
FNDA:0,_ZNSt14_Function_base13_Base_managerIZN6merkle5TreeTILm32EXadL_ZNS1_L14sha256_opensslERKNS1_5HashTILm32EEES6_RS4_EEE4pathEmEUlPNS8_4NodeEbE_E9_M_createIRKSB_EEvRSt9_Any_dataOT_St17integral_constantIbLb1EE
FNDA:2,_ZNSt14_Function_base13_Base_managerIZN6merkle5TreeTILm32EXadL_ZNS1_L14sha256_opensslERKNS1_5HashTILm32EEES6_RS4_EEE4pathEmEUlPNS8_4NodeEbE_E9_M_createISB_EEvRSt9_Any_dataOT_St17integral_constantIbLb1EE
FNDA:0,_ZNSt14_Function_base13_Base_managerIZN6merkle5TreeTILm32EXadL_ZNS1_L15sha256_compressERKNS1_5HashTILm32EEES6_RS4_EEE10retract_toEmEUlRPNS8_4NodeEbE_E9_M_createIRKSC_EEvRSt9_Any_dataOT_St17integral_constantIbLb1EE
FNDA:43050,_ZNSt14_Function_base13_Base_managerIZN6merkle5TreeTILm32EXadL_ZNS1_L15sha256_compressERKNS1_5HashTILm32EEES6_RS4_EEE10retract_toEmEUlRPNS8_4NodeEbE_E9_M_createISC_EEvRSt9_Any_dataOT_St17integral_constantIbLb1EE
FNDA:0,_ZNSt14_Function_base13_Base_managerIZN6merkle5TreeTILm32EXadL_ZNS1_L15sha256_compressERKNS1_5HashTILm32EEES6_RS4_EEE15serialised_sizeEmmEUlRPNS8_4NodeEbE_E9_M_createIRKSC_EEvRSt9_Any_dataOT_St17integral_constantIbLb1EE
FNDA:2008,_ZNSt14_Function_base13_Base_managerIZN6merkle5TreeTILm32EXadL_ZNS1_L15sha256_compressERKNS1_5HashTILm32EEES6_RS4_EEE15serialised_sizeEmmEUlRPNS8_4NodeEbE_E9_M_createISC_EEvRSt9_Any_dataOT_St17integral_constantIbLb1EE
FNDA:0,_ZNSt14_Function_base13_Base_managerIZN6merkle5TreeTILm32EXadL_ZNS1_L15sha256_compressERKNS1_5HashTILm32EEES6_RS4_EEE15serialised_sizeEvEUlRPNS8_4NodeEbE_E9_M_createIRKSC_EEvRSt9_Any_dataOT_St17integral_constantIbLb1EE
FNDA:2136,_ZNSt14_Function_base13_Base_managerIZN6merkle5TreeTILm32EXadL_ZNS1_L15sha256_compressERKNS1_5HashTILm32EEES6_RS4_EEE15serialised_sizeEvEUlRPNS8_4NodeEbE_E9_M_createISC_EEvRSt9_Any_dataOT_St17integral_constantIbLb1EE
FNDA:0,_ZNSt14_Function_base13_Base_managerIZN6merkle5TreeTILm32EXadL_ZNS1_L15sha256_compressERKNS1_5HashTILm32EEES6_RS4_EEE4pathEmEUlPNS8_4NodeEbE_E9_M_createIRKSB_EEvRSt9_Any_dataOT_St17integral_constantIbLb1EE
FNDA:43296,_ZNSt14_Function_base13_Base_managerIZN6merkle5TreeTILm32EXadL_ZNS1_L15sha256_compressERKNS1_5HashTILm32EEES6_RS4_EEE4pathEmEUlPNS8_4NodeEbE_E9_M_createISB_EEvRSt9_Any_dataOT_St17integral_constantIbLb1EE
FNDA:0,_ZNSt14_Function_base13_Base_managerIZN6merkle5TreeTILm32EXadL_ZNS1_L15sha256_compressERKNS1_5HashTILm32EEES6_RS4_EEE8flush_toEmEUlRPNS8_4NodeEbE_E9_M_createIRKSC_EEvRSt9_Any_dataOT_St17integral_constantIbLb1EE
FNDA:170139,_ZNSt14_Function_base13_Base_managerIZN6merkle5TreeTILm32EXadL_ZNS1_L15sha256_compressERKNS1_5HashTILm32EEES6_RS4_EEE8flush_toEmEUlRPNS8_4NodeEbE_E9_M_createISC_EEvRSt9_Any_dataOT_St17integral_constantIbLb1EE
FNDA:0,_ZNSt14_Function_base13_Base_managerIZN6merkle5TreeTILm32EXadL_ZNS1_L15sha256_compressERKNS1_5HashTILm32EEES6_RS4_EEE9serialiseERSt6vectorIhSaIhEEEUlRPNS8_4NodeEbE_E9_M_createIRKSG_EEvRSt9_Any_dataOT_St17integral_constantIbLb1EE
FNDA:69,_ZNSt14_Function_base13_Base_managerIZN6merkle5TreeTILm32EXadL_ZNS1_L15sha256_compressERKNS1_5HashTILm32EEES6_RS4_EEE9serialiseERSt6vectorIhSaIhEEEUlRPNS8_4NodeEbE_E9_M_createISG_EEvRSt9_Any_dataOT_St17integral_constantIbLb1EE
FNDA:0,_ZNSt14_Function_base13_Base_managerIZN6merkle5TreeTILm32EXadL_ZNS1_L15sha256_compressERKNS1_5HashTILm32EEES6_RS4_EEE9serialiseEmmRSt6vectorIhSaIhEEEUlRPNS8_4NodeEbE_E9_M_createIRKSG_EEvRSt9_Any_dataOT_St17integral_constantIbLb1EE
FNDA:2008,_ZNSt14_Function_base13_Base_managerIZN6merkle5TreeTILm32EXadL_ZNS1_L15sha256_compressERKNS1_5HashTILm32EEES6_RS4_EEE9serialiseEmmRSt6vectorIhSaIhEEEUlRPNS8_4NodeEbE_E9_M_createISG_EEvRSt9_Any_dataOT_St17integral_constantIbLb1EE
FNDA:0,_ZNSt14_Function_base13_Base_managerIZN6merkle5TreeTILm48EXadL_ZNS1_L14sha384_opensslERKNS1_5HashTILm48EEES6_RS4_EEE10retract_toEmEUlRPNS8_4NodeEbE_E9_M_createIRKSC_EEvRSt9_Any_dataOT_St17integral_constantIbLb1EE
FNDA:3,_ZNSt14_Function_base13_Base_managerIZN6merkle5TreeTILm48EXadL_ZNS1_L14sha384_opensslERKNS1_5HashTILm48EEES6_RS4_EEE10retract_toEmEUlRPNS8_4NodeEbE_E9_M_createISC_EEvRSt9_Any_dataOT_St17integral_constantIbLb1EE
FNDA:0,_ZNSt14_Function_base13_Base_managerIZN6merkle5TreeTILm48EXadL_ZNS1_L14sha384_opensslERKNS1_5HashTILm48EEES6_RS4_EEE4pathEmEUlPNS8_4NodeEbE_E9_M_createIRKSB_EEvRSt9_Any_dataOT_St17integral_constantIbLb1EE
FNDA:72,_ZNSt14_Function_base13_Base_managerIZN6merkle5TreeTILm48EXadL_ZNS1_L14sha384_opensslERKNS1_5HashTILm48EEES6_RS4_EEE4pathEmEUlPNS8_4NodeEbE_E9_M_createISB_EEvRSt9_Any_dataOT_St17integral_constantIbLb1EE
FNDA:0,_ZNSt14_Function_base13_Base_managerIZN6merkle5TreeTILm48EXadL_ZNS1_L14sha384_opensslERKNS1_5HashTILm48EEES6_RS4_EEE8flush_toEmEUlRPNS8_4NodeEbE_E9_M_createIRKSC_EEvRSt9_Any_dataOT_St17integral_constantIbLb1EE
FNDA:2,_ZNSt14_Function_base13_Base_managerIZN6merkle5TreeTILm48EXadL_ZNS1_L14sha384_opensslERKNS1_5HashTILm48EEES6_RS4_EEE8flush_toEmEUlRPNS8_4NodeEbE_E9_M_createISC_EEvRSt9_Any_dataOT_St17integral_constantIbLb1EE
FNDA:0,_ZNSt14_Function_base13_Base_managerIZN6merkle5TreeTILm48EXadL_ZNS1_L14sha384_opensslERKNS1_5HashTILm48EEES6_RS4_EEE9serialiseERSt6vectorIhSaIhEEEUlRPNS8_4NodeEbE_E9_M_createIRKSG_EEvRSt9_Any_dataOT_St17integral_constantIbLb1EE
FNDA:2,_ZNSt14_Function_base13_Base_managerIZN6merkle5TreeTILm48EXadL_ZNS1_L14sha384_opensslERKNS1_5HashTILm48EEES6_RS4_EEE9serialiseERSt6vectorIhSaIhEEEUlRPNS8_4NodeEbE_E9_M_createISG_EEvRSt9_Any_dataOT_St17integral_constantIbLb1EE
FNDA:0,_ZNSt14_Function_base13_Base_managerIZN6merkle5TreeTILm64EXadL_ZNS1_L14sha512_opensslERKNS1_5HashTILm64EEES6_RS4_EEE10retract_toEmEUlRPNS8_4NodeEbE_E9_M_createIRKSC_EEvRSt9_Any_dataOT_St17integral_constantIbLb1EE
FNDA:3,_ZNSt14_Function_base13_Base_managerIZN6merkle5TreeTILm64EXadL_ZNS1_L14sha512_opensslERKNS1_5HashTILm64EEES6_RS4_EEE10retract_toEmEUlRPNS8_4NodeEbE_E9_M_createISC_EEvRSt9_Any_dataOT_St17integral_constantIbLb1EE
FNDA:0,_ZNSt14_Function_base13_Base_managerIZN6merkle5TreeTILm64EXadL_ZNS1_L14sha512_opensslERKNS1_5HashTILm64EEES6_RS4_EEE4pathEmEUlPNS8_4NodeEbE_E9_M_createIRKSB_EEvRSt9_Any_dataOT_St17integral_constantIbLb1EE
FNDA:72,_ZNSt14_Function_base13_Base_managerIZN6merkle5TreeTILm64EXadL_ZNS1_L14sha512_opensslERKNS1_5HashTILm64EEES6_RS4_EEE4pathEmEUlPNS8_4NodeEbE_E9_M_createISB_EEvRSt9_Any_dataOT_St17integral_constantIbLb1EE
FNDA:0,_ZNSt14_Function_base13_Base_managerIZN6merkle5TreeTILm64EXadL_ZNS1_L14sha512_opensslERKNS1_5HashTILm64EEES6_RS4_EEE8flush_toEmEUlRPNS8_4NodeEbE_E9_M_createIRKSC_EEvRSt9_Any_dataOT_St17integral_constantIbLb1EE
FNDA:2,_ZNSt14_Function_base13_Base_managerIZN6merkle5TreeTILm64EXadL_ZNS1_L14sha512_opensslERKNS1_5HashTILm64EEES6_RS4_EEE8flush_toEmEUlRPNS8_4NodeEbE_E9_M_createISC_EEvRSt9_Any_dataOT_St17integral_constantIbLb1EE
FNDA:0,_ZNSt14_Function_base13_Base_managerIZN6merkle5TreeTILm64EXadL_ZNS1_L14sha512_opensslERKNS1_5HashTILm64EEES6_RS4_EEE9serialiseERSt6vectorIhSaIhEEEUlRPNS8_4NodeEbE_E9_M_createIRKSG_EEvRSt9_Any_dataOT_St17integral_constantIbLb1EE
FNDA:2,_ZNSt14_Function_base13_Base_managerIZN6merkle5TreeTILm64EXadL_ZNS1_L14sha512_opensslERKNS1_5HashTILm64EEES6_RS4_EEE9serialiseERSt6vectorIhSaIhEEEUlRPNS8_4NodeEbE_E9_M_createISG_EEvRSt9_Any_dataOT_St17integral_constantIbLb1EE
FNDA:2,_ZNSt14_Function_base13_Base_managerIZN6merkle5TreeTILm32EXadL_ZNS1_L14sha256_opensslERKNS1_5HashTILm32EEES6_RS4_EEE4pathEmEUlPNS8_4NodeEbE_E10_M_destroyERSt9_Any_dataSt17integral_constantIbLb1EE
FNDA:43050,_ZNSt14_Function_base13_Base_managerIZN6merkle5TreeTILm32EXadL_ZNS1_L15sha256_compressERKNS1_5HashTILm32EEES6_RS4_EEE10retract_toEmEUlRPNS8_4NodeEbE_E10_M_destroyERSt9_Any_dataSt17integral_constantIbLb1EE
FNDA:2008,_ZNSt14_Function_base13_Base_managerIZN6merkle5TreeTILm32EXadL_ZNS1_L15sha256_compressERKNS1_5HashTILm32EEES6_RS4_EEE15serialised_sizeEmmEUlRPNS8_4NodeEbE_E10_M_destroyERSt9_Any_dataSt17integral_constantIbLb1EE
FNDA:2136,_ZNSt14_Function_base13_Base_managerIZN6merkle5TreeTILm32EXadL_ZNS1_L15sha256_compressERKNS1_5HashTILm32EEES6_RS4_EEE15serialised_sizeEvEUlRPNS8_4NodeEbE_E10_M_destroyERSt9_Any_dataSt17integral_constantIbLb1EE
FNDA:43296,_ZNSt14_Function_base13_Base_managerIZN6merkle5TreeTILm32EXadL_ZNS1_L15sha256_compressERKNS1_5HashTILm32EEES6_RS4_EEE4pathEmEUlPNS8_4NodeEbE_E10_M_destroyERSt9_Any_dataSt17integral_constantIbLb1EE
FNDA:170139,_ZNSt14_Function_base13_Base_managerIZN6merkle5TreeTILm32EXadL_ZNS1_L15sha256_compressERKNS1_5HashTILm32EEES6_RS4_EEE8flush_toEmEUlRPNS8_4NodeEbE_E10_M_destroyERSt9_Any_dataSt17integral_constantIbLb1EE
FNDA:69,_ZNSt14_Function_base13_Base_managerIZN6merkle5TreeTILm32EXadL_ZNS1_L15sha256_compressERKNS1_5HashTILm32EEES6_RS4_EEE9serialiseERSt6vectorIhSaIhEEEUlRPNS8_4NodeEbE_E10_M_destroyERSt9_Any_dataSt17integral_constantIbLb1EE
FNDA:2008,_ZNSt14_Function_base13_Base_managerIZN6merkle5TreeTILm32EXadL_ZNS1_L15sha256_compressERKNS1_5HashTILm32EEES6_RS4_EEE9serialiseEmmRSt6vectorIhSaIhEEEUlRPNS8_4NodeEbE_E10_M_destroyERSt9_Any_dataSt17integral_constantIbLb1EE
FNDA:3,_ZNSt14_Function_base13_Base_managerIZN6merkle5TreeTILm48EXadL_ZNS1_L14sha384_opensslERKNS1_5HashTILm48EEES6_RS4_EEE10retract_toEmEUlRPNS8_4NodeEbE_E10_M_destroyERSt9_Any_dataSt17integral_constantIbLb1EE
FNDA:72,_ZNSt14_Function_base13_Base_managerIZN6merkle5TreeTILm48EXadL_ZNS1_L14sha384_opensslERKNS1_5HashTILm48EEES6_RS4_EEE4pathEmEUlPNS8_4NodeEbE_E10_M_destroyERSt9_Any_dataSt17integral_constantIbLb1EE
FNDA:2,_ZNSt14_Function_base13_Base_managerIZN6merkle5TreeTILm48EXadL_ZNS1_L14sha384_opensslERKNS1_5HashTILm48EEES6_RS4_EEE8flush_toEmEUlRPNS8_4NodeEbE_E10_M_destroyERSt9_Any_dataSt17integral_constantIbLb1EE
FNDA:2,_ZNSt14_Function_base13_Base_managerIZN6merkle5TreeTILm48EXadL_ZNS1_L14sha384_opensslERKNS1_5HashTILm48EEES6_RS4_EEE9serialiseERSt6vectorIhSaIhEEEUlRPNS8_4NodeEbE_E10_M_destroyERSt9_Any_dataSt17integral_constantIbLb1EE
FNDA:3,_ZNSt14_Function_base13_Base_managerIZN6merkle5TreeTILm64EXadL_ZNS1_L14sha512_opensslERKNS1_5HashTILm64EEES6_RS4_EEE10retract_toEmEUlRPNS8_4NodeEbE_E10_M_destroyERSt9_Any_dataSt17integral_constantIbLb1EE
FNDA:72,_ZNSt14_Function_base13_Base_managerIZN6merkle5TreeTILm64EXadL_ZNS1_L14sha512_opensslERKNS1_5HashTILm64EEES6_RS4_EEE4pathEmEUlPNS8_4NodeEbE_E10_M_destroyERSt9_Any_dataSt17integral_constantIbLb1EE
FNDA:2,_ZNSt14_Function_base13_Base_managerIZN6merkle5TreeTILm64EXadL_ZNS1_L14sha512_opensslERKNS1_5HashTILm64EEES6_RS4_EEE8flush_toEmEUlRPNS8_4NodeEbE_E10_M_destroyERSt9_Any_dataSt17integral_constantIbLb1EE
FNDA:2,_ZNSt14_Function_base13_Base_managerIZN6merkle5TreeTILm64EXadL_ZNS1_L14sha512_opensslERKNS1_5HashTILm64EEES6_RS4_EEE9serialiseERSt6vectorIhSaIhEEEUlRPNS8_4NodeEbE_E10_M_destroyERSt9_Any_dataSt17integral_constantIbLb1EE
FNDA:2,_ZNSt14_Function_base13_Base_managerIZN6merkle5TreeTILm32EXadL_ZNS1_L14sha256_opensslERKNS1_5HashTILm32EEES6_RS4_EEE4pathEmEUlPNS8_4NodeEbE_E10_M_managerERSt9_Any_dataRKSD_St18_Manager_operation
FNDA:43050,_ZNSt14_Function_base13_Base_managerIZN6merkle5TreeTILm32EXadL_ZNS1_L15sha256_compressERKNS1_5HashTILm32EEES6_RS4_EEE10retract_toEmEUlRPNS8_4NodeEbE_E10_M_managerERSt9_Any_dataRKSE_St18_Manager_operation
FNDA:2008,_ZNSt14_Function_base13_Base_managerIZN6merkle5TreeTILm32EXadL_ZNS1_L15sha256_compressERKNS1_5HashTILm32EEES6_RS4_EEE15serialised_sizeEmmEUlRPNS8_4NodeEbE_E10_M_managerERSt9_Any_dataRKSE_St18_Manager_operation
FNDA:2136,_ZNSt14_Function_base13_Base_managerIZN6merkle5TreeTILm32EXadL_ZNS1_L15sha256_compressERKNS1_5HashTILm32EEES6_RS4_EEE15serialised_sizeEvEUlRPNS8_4NodeEbE_E10_M_managerERSt9_Any_dataRKSE_St18_Manager_operation
FNDA:43296,_ZNSt14_Function_base13_Base_managerIZN6merkle5TreeTILm32EXadL_ZNS1_L15sha256_compressERKNS1_5HashTILm32EEES6_RS4_EEE4pathEmEUlPNS8_4NodeEbE_E10_M_managerERSt9_Any_dataRKSD_St18_Manager_operation
FNDA:170139,_ZNSt14_Function_base13_Base_managerIZN6merkle5TreeTILm32EXadL_ZNS1_L15sha256_compressERKNS1_5HashTILm32EEES6_RS4_EEE8flush_toEmEUlRPNS8_4NodeEbE_E10_M_managerERSt9_Any_dataRKSE_St18_Manager_operation
FNDA:69,_ZNSt14_Function_base13_Base_managerIZN6merkle5TreeTILm32EXadL_ZNS1_L15sha256_compressERKNS1_5HashTILm32EEES6_RS4_EEE9serialiseERSt6vectorIhSaIhEEEUlRPNS8_4NodeEbE_E10_M_managerERSt9_Any_dataRKSI_St18_Manager_operation
FNDA:2008,_ZNSt14_Function_base13_Base_managerIZN6merkle5TreeTILm32EXadL_ZNS1_L15sha256_compressERKNS1_5HashTILm32EEES6_RS4_EEE9serialiseEmmRSt6vectorIhSaIhEEEUlRPNS8_4NodeEbE_E10_M_managerERSt9_Any_dataRKSI_St18_Manager_operation
FNDA:3,_ZNSt14_Function_base13_Base_managerIZN6merkle5TreeTILm48EXadL_ZNS1_L14sha384_opensslERKNS1_5HashTILm48EEES6_RS4_EEE10retract_toEmEUlRPNS8_4NodeEbE_E10_M_managerERSt9_Any_dataRKSE_St18_Manager_operation
FNDA:72,_ZNSt14_Function_base13_Base_managerIZN6merkle5TreeTILm48EXadL_ZNS1_L14sha384_opensslERKNS1_5HashTILm48EEES6_RS4_EEE4pathEmEUlPNS8_4NodeEbE_E10_M_managerERSt9_Any_dataRKSD_St18_Manager_operation
FNDA:2,_ZNSt14_Function_base13_Base_managerIZN6merkle5TreeTILm48EXadL_ZNS1_L14sha384_opensslERKNS1_5HashTILm48EEES6_RS4_EEE8flush_toEmEUlRPNS8_4NodeEbE_E10_M_managerERSt9_Any_dataRKSE_St18_Manager_operation
FNDA:2,_ZNSt14_Function_base13_Base_managerIZN6merkle5TreeTILm48EXadL_ZNS1_L14sha384_opensslERKNS1_5HashTILm48EEES6_RS4_EEE9serialiseERSt6vectorIhSaIhEEEUlRPNS8_4NodeEbE_E10_M_managerERSt9_Any_dataRKSI_St18_Manager_operation
FNDA:3,_ZNSt14_Function_base13_Base_managerIZN6merkle5TreeTILm64EXadL_ZNS1_L14sha512_opensslERKNS1_5HashTILm64EEES6_RS4_EEE10retract_toEmEUlRPNS8_4NodeEbE_E10_M_managerERSt9_Any_dataRKSE_St18_Manager_operation
FNDA:72,_ZNSt14_Function_base13_Base_managerIZN6merkle5TreeTILm64EXadL_ZNS1_L14sha512_opensslERKNS1_5HashTILm64EEES6_RS4_EEE4pathEmEUlPNS8_4NodeEbE_E10_M_managerERSt9_Any_dataRKSD_St18_Manager_operation
FNDA:2,_ZNSt14_Function_base13_Base_managerIZN6merkle5TreeTILm64EXadL_ZNS1_L14sha512_opensslERKNS1_5HashTILm64EEES6_RS4_EEE8flush_toEmEUlRPNS8_4NodeEbE_E10_M_managerERSt9_Any_dataRKSE_St18_Manager_operation
FNDA:2,_ZNSt14_Function_base13_Base_managerIZN6merkle5TreeTILm64EXadL_ZNS1_L14sha512_opensslERKNS1_5HashTILm64EEES6_RS4_EEE9serialiseERSt6vectorIhSaIhEEEUlRPNS8_4NodeEbE_E10_M_managerERSt9_Any_dataRKSI_St18_Manager_operation
FNDA:0,_ZNSt14_Function_base13_Base_managerIZN6merkle5TreeTILm32EXadL_ZNS1_L14sha256_opensslERKNS1_5HashTILm32EEES6_RS4_EEE4pathEmEUlPNS8_4NodeEbE_E15_M_init_functorIRKSB_EEvRSt9_Any_dataOT_
FNDA:2,_ZNSt14_Function_base13_Base_managerIZN6merkle5TreeTILm32EXadL_ZNS1_L14sha256_opensslERKNS1_5HashTILm32EEES6_RS4_EEE4pathEmEUlPNS8_4NodeEbE_E15_M_init_functorISB_EEvRSt9_Any_dataOT_
FNDA:0,_ZNSt14_Function_base13_Base_managerIZN6merkle5TreeTILm32EXadL_ZNS1_L15sha256_compressERKNS1_5HashTILm32EEES6_RS4_EEE10retract_toEmEUlRPNS8_4NodeEbE_E15_M_init_functorIRKSC_EEvRSt9_Any_dataOT_
FNDA:43050,_ZNSt14_Function_base13_Base_managerIZN6merkle5TreeTILm32EXadL_ZNS1_L15sha256_compressERKNS1_5HashTILm32EEES6_RS4_EEE10retract_toEmEUlRPNS8_4NodeEbE_E15_M_init_functorISC_EEvRSt9_Any_dataOT_
FNDA:0,_ZNSt14_Function_base13_Base_managerIZN6merkle5TreeTILm32EXadL_ZNS1_L15sha256_compressERKNS1_5HashTILm32EEES6_RS4_EEE15serialised_sizeEmmEUlRPNS8_4NodeEbE_E15_M_init_functorIRKSC_EEvRSt9_Any_dataOT_
FNDA:2008,_ZNSt14_Function_base13_Base_managerIZN6merkle5TreeTILm32EXadL_ZNS1_L15sha256_compressERKNS1_5HashTILm32EEES6_RS4_EEE15serialised_sizeEmmEUlRPNS8_4NodeEbE_E15_M_init_functorISC_EEvRSt9_Any_dataOT_
FNDA:0,_ZNSt14_Function_base13_Base_managerIZN6merkle5TreeTILm32EXadL_ZNS1_L15sha256_compressERKNS1_5HashTILm32EEES6_RS4_EEE15serialised_sizeEvEUlRPNS8_4NodeEbE_E15_M_init_functorIRKSC_EEvRSt9_Any_dataOT_
FNDA:2136,_ZNSt14_Function_base13_Base_managerIZN6merkle5TreeTILm32EXadL_ZNS1_L15sha256_compressERKNS1_5HashTILm32EEES6_RS4_EEE15serialised_sizeEvEUlRPNS8_4NodeEbE_E15_M_init_functorISC_EEvRSt9_Any_dataOT_
FNDA:0,_ZNSt14_Function_base13_Base_managerIZN6merkle5TreeTILm32EXadL_ZNS1_L15sha256_compressERKNS1_5HashTILm32EEES6_RS4_EEE4pathEmEUlPNS8_4NodeEbE_E15_M_init_functorIRKSB_EEvRSt9_Any_dataOT_
FNDA:43296,_ZNSt14_Function_base13_Base_managerIZN6merkle5TreeTILm32EXadL_ZNS1_L15sha256_compressERKNS1_5HashTILm32EEES6_RS4_EEE4pathEmEUlPNS8_4NodeEbE_E15_M_init_functorISB_EEvRSt9_Any_dataOT_
FNDA:0,_ZNSt14_Function_base13_Base_managerIZN6merkle5TreeTILm32EXadL_ZNS1_L15sha256_compressERKNS1_5HashTILm32EEES6_RS4_EEE8flush_toEmEUlRPNS8_4NodeEbE_E15_M_init_functorIRKSC_EEvRSt9_Any_dataOT_
FNDA:170139,_ZNSt14_Function_base13_Base_managerIZN6merkle5TreeTILm32EXadL_ZNS1_L15sha256_compressERKNS1_5HashTILm32EEES6_RS4_EEE8flush_toEmEUlRPNS8_4NodeEbE_E15_M_init_functorISC_EEvRSt9_Any_dataOT_
FNDA:0,_ZNSt14_Function_base13_Base_managerIZN6merkle5TreeTILm32EXadL_ZNS1_L15sha256_compressERKNS1_5HashTILm32EEES6_RS4_EEE9serialiseERSt6vectorIhSaIhEEEUlRPNS8_4NodeEbE_E15_M_init_functorIRKSG_EEvRSt9_Any_dataOT_
FNDA:69,_ZNSt14_Function_base13_Base_managerIZN6merkle5TreeTILm32EXadL_ZNS1_L15sha256_compressERKNS1_5HashTILm32EEES6_RS4_EEE9serialiseERSt6vectorIhSaIhEEEUlRPNS8_4NodeEbE_E15_M_init_functorISG_EEvRSt9_Any_dataOT_
FNDA:0,_ZNSt14_Function_base13_Base_managerIZN6merkle5TreeTILm32EXadL_ZNS1_L15sha256_compressERKNS1_5HashTILm32EEES6_RS4_EEE9serialiseEmmRSt6vectorIhSaIhEEEUlRPNS8_4NodeEbE_E15_M_init_functorIRKSG_EEvRSt9_Any_dataOT_
FNDA:2008,_ZNSt14_Function_base13_Base_managerIZN6merkle5TreeTILm32EXadL_ZNS1_L15sha256_compressERKNS1_5HashTILm32EEES6_RS4_EEE9serialiseEmmRSt6vectorIhSaIhEEEUlRPNS8_4NodeEbE_E15_M_init_functorISG_EEvRSt9_Any_dataOT_
FNDA:0,_ZNSt14_Function_base13_Base_managerIZN6merkle5TreeTILm48EXadL_ZNS1_L14sha384_opensslERKNS1_5HashTILm48EEES6_RS4_EEE10retract_toEmEUlRPNS8_4NodeEbE_E15_M_init_functorIRKSC_EEvRSt9_Any_dataOT_
FNDA:3,_ZNSt14_Function_base13_Base_managerIZN6merkle5TreeTILm48EXadL_ZNS1_L14sha384_opensslERKNS1_5HashTILm48EEES6_RS4_EEE10retract_toEmEUlRPNS8_4NodeEbE_E15_M_init_functorISC_EEvRSt9_Any_dataOT_
FNDA:0,_ZNSt14_Function_base13_Base_managerIZN6merkle5TreeTILm48EXadL_ZNS1_L14sha384_opensslERKNS1_5HashTILm48EEES6_RS4_EEE4pathEmEUlPNS8_4NodeEbE_E15_M_init_functorIRKSB_EEvRSt9_Any_dataOT_
FNDA:72,_ZNSt14_Function_base13_Base_managerIZN6merkle5TreeTILm48EXadL_ZNS1_L14sha384_opensslERKNS1_5HashTILm48EEES6_RS4_EEE4pathEmEUlPNS8_4NodeEbE_E15_M_init_functorISB_EEvRSt9_Any_dataOT_
FNDA:0,_ZNSt14_Function_base13_Base_managerIZN6merkle5TreeTILm48EXadL_ZNS1_L14sha384_opensslERKNS1_5HashTILm48EEES6_RS4_EEE8flush_toEmEUlRPNS8_4NodeEbE_E15_M_init_functorIRKSC_EEvRSt9_Any_dataOT_
FNDA:2,_ZNSt14_Function_base13_Base_managerIZN6merkle5TreeTILm48EXadL_ZNS1_L14sha384_opensslERKNS1_5HashTILm48EEES6_RS4_EEE8flush_toEmEUlRPNS8_4NodeEbE_E15_M_init_functorISC_EEvRSt9_Any_dataOT_
FNDA:0,_ZNSt14_Function_base13_Base_managerIZN6merkle5TreeTILm48EXadL_ZNS1_L14sha384_opensslERKNS1_5HashTILm48EEES6_RS4_EEE9serialiseERSt6vectorIhSaIhEEEUlRPNS8_4NodeEbE_E15_M_init_functorIRKSG_EEvRSt9_Any_dataOT_
FNDA:2,_ZNSt14_Function_base13_Base_managerIZN6merkle5TreeTILm48EXadL_ZNS1_L14sha384_opensslERKNS1_5HashTILm48EEES6_RS4_EEE9serialiseERSt6vectorIhSaIhEEEUlRPNS8_4NodeEbE_E15_M_init_functorISG_EEvRSt9_Any_dataOT_
FNDA:0,_ZNSt14_Function_base13_Base_managerIZN6merkle5TreeTILm64EXadL_ZNS1_L14sha512_opensslERKNS1_5HashTILm64EEES6_RS4_EEE10retract_toEmEUlRPNS8_4NodeEbE_E15_M_init_functorIRKSC_EEvRSt9_Any_dataOT_
FNDA:3,_ZNSt14_Function_base13_Base_managerIZN6merkle5TreeTILm64EXadL_ZNS1_L14sha512_opensslERKNS1_5HashTILm64EEES6_RS4_EEE10retract_toEmEUlRPNS8_4NodeEbE_E15_M_init_functorISC_EEvRSt9_Any_dataOT_
FNDA:0,_ZNSt14_Function_base13_Base_managerIZN6merkle5TreeTILm64EXadL_ZNS1_L14sha512_opensslERKNS1_5HashTILm64EEES6_RS4_EEE4pathEmEUlPNS8_4NodeEbE_E15_M_init_functorIRKSB_EEvRSt9_Any_dataOT_
FNDA:72,_ZNSt14_Function_base13_Base_managerIZN6merkle5TreeTILm64EXadL_ZNS1_L14sha512_opensslERKNS1_5HashTILm64EEES6_RS4_EEE4pathEmEUlPNS8_4NodeEbE_E15_M_init_functorISB_EEvRSt9_Any_dataOT_
FNDA:0,_ZNSt14_Function_base13_Base_managerIZN6merkle5TreeTILm64EXadL_ZNS1_L14sha512_opensslERKNS1_5HashTILm64EEES6_RS4_EEE8flush_toEmEUlRPNS8_4NodeEbE_E15_M_init_functorIRKSC_EEvRSt9_Any_dataOT_
FNDA:2,_ZNSt14_Function_base13_Base_managerIZN6merkle5TreeTILm64EXadL_ZNS1_L14sha512_opensslERKNS1_5HashTILm64EEES6_RS4_EEE8flush_toEmEUlRPNS8_4NodeEbE_E15_M_init_functorISC_EEvRSt9_Any_dataOT_
FNDA:0,_ZNSt14_Function_base13_Base_managerIZN6merkle5TreeTILm64EXadL_ZNS1_L14sha512_opensslERKNS1_5HashTILm64EEES6_RS4_EEE9serialiseERSt6vectorIhSaIhEEEUlRPNS8_4NodeEbE_E15_M_init_functorIRKSG_EEvRSt9_Any_dataOT_
FNDA:2,_ZNSt14_Function_base13_Base_managerIZN6merkle5TreeTILm64EXadL_ZNS1_L14sha512_opensslERKNS1_5HashTILm64EEES6_RS4_EEE9serialiseERSt6vectorIhSaIhEEEUlRPNS8_4NodeEbE_E15_M_init_functorISG_EEvRSt9_Any_dataOT_
FNDA:2,_ZNSt14_Function_base13_Base_managerIZN6merkle5TreeTILm32EXadL_ZNS1_L14sha256_opensslERKNS1_5HashTILm32EEES6_RS4_EEE4pathEmEUlPNS8_4NodeEbE_E21_M_not_empty_functionISB_EEbRKT_
FNDA:43050,_ZNSt14_Function_base13_Base_managerIZN6merkle5TreeTILm32EXadL_ZNS1_L15sha256_compressERKNS1_5HashTILm32EEES6_RS4_EEE10retract_toEmEUlRPNS8_4NodeEbE_E21_M_not_empty_functionISC_EEbRKT_
FNDA:2008,_ZNSt14_Function_base13_Base_managerIZN6merkle5TreeTILm32EXadL_ZNS1_L15sha256_compressERKNS1_5HashTILm32EEES6_RS4_EEE15serialised_sizeEmmEUlRPNS8_4NodeEbE_E21_M_not_empty_functionISC_EEbRKT_
FNDA:2136,_ZNSt14_Function_base13_Base_managerIZN6merkle5TreeTILm32EXadL_ZNS1_L15sha256_compressERKNS1_5HashTILm32EEES6_RS4_EEE15serialised_sizeEvEUlRPNS8_4NodeEbE_E21_M_not_empty_functionISC_EEbRKT_
FNDA:43296,_ZNSt14_Function_base13_Base_managerIZN6merkle5TreeTILm32EXadL_ZNS1_L15sha256_compressERKNS1_5HashTILm32EEES6_RS4_EEE4pathEmEUlPNS8_4NodeEbE_E21_M_not_empty_functionISB_EEbRKT_
FNDA:170139,_ZNSt14_Function_base13_Base_managerIZN6merkle5TreeTILm32EXadL_ZNS1_L15sha256_compressERKNS1_5HashTILm32EEES6_RS4_EEE8flush_toEmEUlRPNS8_4NodeEbE_E21_M_not_empty_functionISC_EEbRKT_
FNDA:69,_ZNSt14_Function_base13_Base_managerIZN6merkle5TreeTILm32EXadL_ZNS1_L15sha256_compressERKNS1_5HashTILm32EEES6_RS4_EEE9serialiseERSt6vectorIhSaIhEEEUlRPNS8_4NodeEbE_E21_M_not_empty_functionISG_EEbRKT_
FNDA:2008,_ZNSt14_Function_base13_Base_managerIZN6merkle5TreeTILm32EXadL_ZNS1_L15sha256_compressERKNS1_5HashTILm32EEES6_RS4_EEE9serialiseEmmRSt6vectorIhSaIhEEEUlRPNS8_4NodeEbE_E21_M_not_empty_functionISG_EEbRKT_
FNDA:3,_ZNSt14_Function_base13_Base_managerIZN6merkle5TreeTILm48EXadL_ZNS1_L14sha384_opensslERKNS1_5HashTILm48EEES6_RS4_EEE10retract_toEmEUlRPNS8_4NodeEbE_E21_M_not_empty_functionISC_EEbRKT_
FNDA:72,_ZNSt14_Function_base13_Base_managerIZN6merkle5TreeTILm48EXadL_ZNS1_L14sha384_opensslERKNS1_5HashTILm48EEES6_RS4_EEE4pathEmEUlPNS8_4NodeEbE_E21_M_not_empty_functionISB_EEbRKT_
FNDA:2,_ZNSt14_Function_base13_Base_managerIZN6merkle5TreeTILm48EXadL_ZNS1_L14sha384_opensslERKNS1_5HashTILm48EEES6_RS4_EEE8flush_toEmEUlRPNS8_4NodeEbE_E21_M_not_empty_functionISC_EEbRKT_
FNDA:2,_ZNSt14_Function_base13_Base_managerIZN6merkle5TreeTILm48EXadL_ZNS1_L14sha384_opensslERKNS1_5HashTILm48EEES6_RS4_EEE9serialiseERSt6vectorIhSaIhEEEUlRPNS8_4NodeEbE_E21_M_not_empty_functionISG_EEbRKT_
FNDA:3,_ZNSt14_Function_base13_Base_managerIZN6merkle5TreeTILm64EXadL_ZNS1_L14sha512_opensslERKNS1_5HashTILm64EEES6_RS4_EEE10retract_toEmEUlRPNS8_4NodeEbE_E21_M_not_empty_functionISC_EEbRKT_
FNDA:72,_ZNSt14_Function_base13_Base_managerIZN6merkle5TreeTILm64EXadL_ZNS1_L14sha512_opensslERKNS1_5HashTILm64EEES6_RS4_EEE4pathEmEUlPNS8_4NodeEbE_E21_M_not_empty_functionISB_EEbRKT_
FNDA:2,_ZNSt14_Function_base13_Base_managerIZN6merkle5TreeTILm64EXadL_ZNS1_L14sha512_opensslERKNS1_5HashTILm64EEES6_RS4_EEE8flush_toEmEUlRPNS8_4NodeEbE_E21_M_not_empty_functionISC_EEbRKT_
FNDA:2,_ZNSt14_Function_base13_Base_managerIZN6merkle5TreeTILm64EXadL_ZNS1_L14sha512_opensslERKNS1_5HashTILm64EEES6_RS4_EEE9serialiseERSt6vectorIhSaIhEEEUlRPNS8_4NodeEbE_E21_M_not_empty_functionISG_EEbRKT_
FNDA:262866,_ZNSt14_Function_baseC2Ev
FNDA:262866,_ZNSt14_Function_baseD2Ev
FNDA:2546771,_ZNKSt14_Function_base8_M_emptyEv
FNDA:2,_ZNSt17_Function_handlerIFbRPN6merkle5TreeTILm32EXadL_ZNS0_L14sha256_opensslERKNS0_5HashTILm32EEES5_RS3_EEE4NodeEbEZNS7_4pathEmEUlS9_bE_E10_M_managerERSt9_Any_dataRKSE_St18_Manager_operation
FNDA:43050,_ZNSt17_Function_handlerIFbRPN6merkle5TreeTILm32EXadL_ZNS0_L15sha256_compressERKNS0_5HashTILm32EEES5_RS3_EEE4NodeEbEZNS7_10retract_toEmEUlSA_bE_E10_M_managerERSt9_Any_dataRKSE_St18_Manager_operation
FNDA:2008,_ZNSt17_Function_handlerIFbRPN6merkle5TreeTILm32EXadL_ZNS0_L15sha256_compressERKNS0_5HashTILm32EEES5_RS3_EEE4NodeEbEZNS7_15serialised_sizeEmmEUlSA_bE_E10_M_managerERSt9_Any_dataRKSE_St18_Manager_operation
FNDA:2136,_ZNSt17_Function_handlerIFbRPN6merkle5TreeTILm32EXadL_ZNS0_L15sha256_compressERKNS0_5HashTILm32EEES5_RS3_EEE4NodeEbEZNS7_15serialised_sizeEvEUlSA_bE_E10_M_managerERSt9_Any_dataRKSE_St18_Manager_operation
FNDA:43296,_ZNSt17_Function_handlerIFbRPN6merkle5TreeTILm32EXadL_ZNS0_L15sha256_compressERKNS0_5HashTILm32EEES5_RS3_EEE4NodeEbEZNS7_4pathEmEUlS9_bE_E10_M_managerERSt9_Any_dataRKSE_St18_Manager_operation
FNDA:170139,_ZNSt17_Function_handlerIFbRPN6merkle5TreeTILm32EXadL_ZNS0_L15sha256_compressERKNS0_5HashTILm32EEES5_RS3_EEE4NodeEbEZNS7_8flush_toEmEUlSA_bE_E10_M_managerERSt9_Any_dataRKSE_St18_Manager_operation
FNDA:69,_ZNSt17_Function_handlerIFbRPN6merkle5TreeTILm32EXadL_ZNS0_L15sha256_compressERKNS0_5HashTILm32EEES5_RS3_EEE4NodeEbEZNS7_9serialiseERSt6vectorIhSaIhEEEUlSA_bE_E10_M_managerERSt9_Any_dataRKSI_St18_Manager_operation
FNDA:2008,_ZNSt17_Function_handlerIFbRPN6merkle5TreeTILm32EXadL_ZNS0_L15sha256_compressERKNS0_5HashTILm32EEES5_RS3_EEE4NodeEbEZNS7_9serialiseEmmRSt6vectorIhSaIhEEEUlSA_bE_E10_M_managerERSt9_Any_dataRKSI_St18_Manager_operation
FNDA:3,_ZNSt17_Function_handlerIFbRPN6merkle5TreeTILm48EXadL_ZNS0_L14sha384_opensslERKNS0_5HashTILm48EEES5_RS3_EEE4NodeEbEZNS7_10retract_toEmEUlSA_bE_E10_M_managerERSt9_Any_dataRKSE_St18_Manager_operation
FNDA:72,_ZNSt17_Function_handlerIFbRPN6merkle5TreeTILm48EXadL_ZNS0_L14sha384_opensslERKNS0_5HashTILm48EEES5_RS3_EEE4NodeEbEZNS7_4pathEmEUlS9_bE_E10_M_managerERSt9_Any_dataRKSE_St18_Manager_operation
FNDA:2,_ZNSt17_Function_handlerIFbRPN6merkle5TreeTILm48EXadL_ZNS0_L14sha384_opensslERKNS0_5HashTILm48EEES5_RS3_EEE4NodeEbEZNS7_8flush_toEmEUlSA_bE_E10_M_managerERSt9_Any_dataRKSE_St18_Manager_operation
FNDA:2,_ZNSt17_Function_handlerIFbRPN6merkle5TreeTILm48EXadL_ZNS0_L14sha384_opensslERKNS0_5HashTILm48EEES5_RS3_EEE4NodeEbEZNS7_9serialiseERSt6vectorIhSaIhEEEUlSA_bE_E10_M_managerERSt9_Any_dataRKSI_St18_Manager_operation
FNDA:3,_ZNSt17_Function_handlerIFbRPN6merkle5TreeTILm64EXadL_ZNS0_L14sha512_opensslERKNS0_5HashTILm64EEES5_RS3_EEE4NodeEbEZNS7_10retract_toEmEUlSA_bE_E10_M_managerERSt9_Any_dataRKSE_St18_Manager_operation
FNDA:72,_ZNSt17_Function_handlerIFbRPN6merkle5TreeTILm64EXadL_ZNS0_L14sha512_opensslERKNS0_5HashTILm64EEES5_RS3_EEE4NodeEbEZNS7_4pathEmEUlS9_bE_E10_M_managerERSt9_Any_dataRKSE_St18_Manager_operation
FNDA:2,_ZNSt17_Function_handlerIFbRPN6merkle5TreeTILm64EXadL_ZNS0_L14sha512_opensslERKNS0_5HashTILm64EEES5_RS3_EEE4NodeEbEZNS7_8flush_toEmEUlSA_bE_E10_M_managerERSt9_Any_dataRKSE_St18_Manager_operation
FNDA:2,_ZNSt17_Function_handlerIFbRPN6merkle5TreeTILm64EXadL_ZNS0_L14sha512_opensslERKNS0_5HashTILm64EEES5_RS3_EEE4NodeEbEZNS7_9serialiseERSt6vectorIhSaIhEEEUlSA_bE_E10_M_managerERSt9_Any_dataRKSI_St18_Manager_operation
FNDA:4,_ZNSt17_Function_handlerIFbRPN6merkle5TreeTILm32EXadL_ZNS0_L14sha256_opensslERKNS0_5HashTILm32EEES5_RS3_EEE4NodeEbEZNS7_4pathEmEUlS9_bE_E9_M_invokeERKSt9_Any_dataSA_Ob
FNDA:384165,_ZNSt17_Function_handlerIFbRPN6merkle5TreeTILm32EXadL_ZNS0_L15sha256_compressERKNS0_5HashTILm32EEES5_RS3_EEE4NodeEbEZNS7_10retract_toEmEUlSA_bE_E9_M_invokeERKSt9_Any_dataSA_Ob
FNDA:16864,_ZNSt17_Function_handlerIFbRPN6merkle5TreeTILm32EXadL_ZNS0_L15sha256_compressERKNS0_5HashTILm32EEES5_RS3_EEE4NodeEbEZNS7_15serialised_sizeEmmEUlSA_bE_E9_M_invokeERKSt9_Any_dataSA_Ob
FNDA:16688,_ZNSt17_Function_handlerIFbRPN6merkle5TreeTILm32EXadL_ZNS0_L15sha256_compressERKNS0_5HashTILm32EEES5_RS3_EEE4NodeEbEZNS7_15serialised_sizeEvEUlSA_bE_E9_M_invokeERKSt9_Any_dataSA_Ob
FNDA:498103,_ZNSt17_Function_handlerIFbRPN6merkle5TreeTILm32EXadL_ZNS0_L15sha256_compressERKNS0_5HashTILm32EEES5_RS3_EEE4NodeEbEZNS7_4pathEmEUlS9_bE_E9_M_invokeERKSt9_Any_dataSA_Ob
FNDA:1612664,_ZNSt17_Function_handlerIFbRPN6merkle5TreeTILm32EXadL_ZNS0_L15sha256_compressERKNS0_5HashTILm32EEES5_RS3_EEE4NodeEbEZNS7_8flush_toEmEUlSA_bE_E9_M_invokeERKSt9_Any_dataSA_Ob
FNDA:637,_ZNSt17_Function_handlerIFbRPN6merkle5TreeTILm32EXadL_ZNS0_L15sha256_compressERKNS0_5HashTILm32EEES5_RS3_EEE4NodeEbEZNS7_9serialiseERSt6vectorIhSaIhEEEUlSA_bE_E9_M_invokeERKSt9_Any_dataSA_Ob
FNDA:16864,_ZNSt17_Function_handlerIFbRPN6merkle5TreeTILm32EXadL_ZNS0_L15sha256_compressERKNS0_5HashTILm32EEES5_RS3_EEE4NodeEbEZNS7_9serialiseEmmRSt6vectorIhSaIhEEEUlSA_bE_E9_M_invokeERKSt9_Any_dataSA_Ob
FNDA:2,_ZNSt17_Function_handlerIFbRPN6merkle5TreeTILm48EXadL_ZNS0_L14sha384_opensslERKNS0_5HashTILm48EEES5_RS3_EEE4NodeEbEZNS7_10retract_toEmEUlSA_bE_E9_M_invokeERKSt9_Any_dataSA_Ob
FNDA:387,_ZNSt17_Function_handlerIFbRPN6merkle5TreeTILm48EXadL_ZNS0_L14sha384_opensslERKNS0_5HashTILm48EEES5_RS3_EEE4NodeEbEZNS7_4pathEmEUlS9_bE_E9_M_invokeERKSt9_Any_dataSA_Ob
FNDA:1,_ZNSt17_Function_handlerIFbRPN6merkle5TreeTILm48EXadL_ZNS0_L14sha384_opensslERKNS0_5HashTILm48EEES5_RS3_EEE4NodeEbEZNS7_8flush_toEmEUlSA_bE_E9_M_invokeERKSt9_Any_dataSA_Ob
FNDA:1,_ZNSt17_Function_handlerIFbRPN6merkle5TreeTILm48EXadL_ZNS0_L14sha384_opensslERKNS0_5HashTILm48EEES5_RS3_EEE4NodeEbEZNS7_9serialiseERSt6vectorIhSaIhEEEUlSA_bE_E9_M_invokeERKSt9_Any_dataSA_Ob
FNDA:2,_ZNSt17_Function_handlerIFbRPN6merkle5TreeTILm64EXadL_ZNS0_L14sha512_opensslERKNS0_5HashTILm64EEES5_RS3_EEE4NodeEbEZNS7_10retract_toEmEUlSA_bE_E9_M_invokeERKSt9_Any_dataSA_Ob
FNDA:387,_ZNSt17_Function_handlerIFbRPN6merkle5TreeTILm64EXadL_ZNS0_L14sha512_opensslERKNS0_5HashTILm64EEES5_RS3_EEE4NodeEbEZNS7_4pathEmEUlS9_bE_E9_M_invokeERKSt9_Any_dataSA_Ob
FNDA:1,_ZNSt17_Function_handlerIFbRPN6merkle5TreeTILm64EXadL_ZNS0_L14sha512_opensslERKNS0_5HashTILm64EEES5_RS3_EEE4NodeEbEZNS7_8flush_toEmEUlSA_bE_E9_M_invokeERKSt9_Any_dataSA_Ob
FNDA:1,_ZNSt17_Function_handlerIFbRPN6merkle5TreeTILm64EXadL_ZNS0_L14sha512_opensslERKNS0_5HashTILm64EEES5_RS3_EEE4NodeEbEZNS7_9serialiseERSt6vectorIhSaIhEEEUlSA_bE_E9_M_invokeERKSt9_Any_dataSA_Ob
FNDA:2,_ZNSt8functionIFbRPN6merkle5TreeTILm32EXadL_ZNS0_L14sha256_opensslERKNS0_5HashTILm32EEES5_RS3_EEE4NodeEbEEC2IZNS7_4pathEmEUlS9_bE_vEEOT_
FNDA:43050,_ZNSt8functionIFbRPN6merkle5TreeTILm32EXadL_ZNS0_L15sha256_compressERKNS0_5HashTILm32EEES5_RS3_EEE4NodeEbEEC2IZNS7_10retract_toEmEUlSA_bE_vEEOT_
FNDA:2008,_ZNSt8functionIFbRPN6merkle5TreeTILm32EXadL_ZNS0_L15sha256_compressERKNS0_5HashTILm32EEES5_RS3_EEE4NodeEbEEC2IZNS7_15serialised_sizeEmmEUlSA_bE_vEEOT_
FNDA:2136,_ZNSt8functionIFbRPN6merkle5TreeTILm32EXadL_ZNS0_L15sha256_compressERKNS0_5HashTILm32EEES5_RS3_EEE4NodeEbEEC2IZNS7_15serialised_sizeEvEUlSA_bE_vEEOT_
FNDA:43296,_ZNSt8functionIFbRPN6merkle5TreeTILm32EXadL_ZNS0_L15sha256_compressERKNS0_5HashTILm32EEES5_RS3_EEE4NodeEbEEC2IZNS7_4pathEmEUlS9_bE_vEEOT_
FNDA:170139,_ZNSt8functionIFbRPN6merkle5TreeTILm32EXadL_ZNS0_L15sha256_compressERKNS0_5HashTILm32EEES5_RS3_EEE4NodeEbEEC2IZNS7_8flush_toEmEUlSA_bE_vEEOT_
FNDA:69,_ZNSt8functionIFbRPN6merkle5TreeTILm32EXadL_ZNS0_L15sha256_compressERKNS0_5HashTILm32EEES5_RS3_EEE4NodeEbEEC2IZNS7_9serialiseERSt6vectorIhSaIhEEEUlSA_bE_vEEOT_
FNDA:2008,_ZNSt8functionIFbRPN6merkle5TreeTILm32EXadL_ZNS0_L15sha256_compressERKNS0_5HashTILm32EEES5_RS3_EEE4NodeEbEEC2IZNS7_9serialiseEmmRSt6vectorIhSaIhEEEUlSA_bE_vEEOT_
FNDA:3,_ZNSt8functionIFbRPN6merkle5TreeTILm48EXadL_ZNS0_L14sha384_opensslERKNS0_5HashTILm48EEES5_RS3_EEE4NodeEbEEC2IZNS7_10retract_toEmEUlSA_bE_vEEOT_
FNDA:72,_ZNSt8functionIFbRPN6merkle5TreeTILm48EXadL_ZNS0_L14sha384_opensslERKNS0_5HashTILm48EEES5_RS3_EEE4NodeEbEEC2IZNS7_4pathEmEUlS9_bE_vEEOT_
FNDA:2,_ZNSt8functionIFbRPN6merkle5TreeTILm48EXadL_ZNS0_L14sha384_opensslERKNS0_5HashTILm48EEES5_RS3_EEE4NodeEbEEC2IZNS7_8flush_toEmEUlSA_bE_vEEOT_
FNDA:2,_ZNSt8functionIFbRPN6merkle5TreeTILm48EXadL_ZNS0_L14sha384_opensslERKNS0_5HashTILm48EEES5_RS3_EEE4NodeEbEEC2IZNS7_9serialiseERSt6vectorIhSaIhEEEUlSA_bE_vEEOT_
FNDA:3,_ZNSt8functionIFbRPN6merkle5TreeTILm64EXadL_ZNS0_L14sha512_opensslERKNS0_5HashTILm64EEES5_RS3_EEE4NodeEbEEC2IZNS7_10retract_toEmEUlSA_bE_vEEOT_
FNDA:72,_ZNSt8functionIFbRPN6merkle5TreeTILm64EXadL_ZNS0_L14sha512_opensslERKNS0_5HashTILm64EEES5_RS3_EEE4NodeEbEEC2IZNS7_4pathEmEUlS9_bE_vEEOT_
FNDA:2,_ZNSt8functionIFbRPN6merkle5TreeTILm64EXadL_ZNS0_L14sha512_opensslERKNS0_5HashTILm64EEES5_RS3_EEE4NodeEbEEC2IZNS7_8flush_toEmEUlSA_bE_vEEOT_
FNDA:2,_ZNSt8functionIFbRPN6merkle5TreeTILm64EXadL_ZNS0_L14sha512_opensslERKNS0_5HashTILm64EEES5_RS3_EEE4NodeEbEEC2IZNS7_9serialiseERSt6vectorIhSaIhEEEUlSA_bE_vEEOT_
FNDA:4,_ZNKSt8functionIFbRPN6merkle5TreeTILm32EXadL_ZNS0_L14sha256_opensslERKNS0_5HashTILm32EEES5_RS3_EEE4NodeEbEEclESA_b
FNDA:2545985,_ZNKSt8functionIFbRPN6merkle5TreeTILm32EXadL_ZNS0_L15sha256_compressERKNS0_5HashTILm32EEES5_RS3_EEE4NodeEbEEclESA_b
FNDA:391,_ZNKSt8functionIFbRPN6merkle5TreeTILm48EXadL_ZNS0_L14sha384_opensslERKNS0_5HashTILm48EEES5_RS3_EEE4NodeEbEEclESA_b
FNDA:391,_ZNKSt8functionIFbRPN6merkle5TreeTILm64EXadL_ZNS0_L14sha512_opensslERKNS0_5HashTILm64EEES5_RS3_EEE4NodeEbEEclESA_b
FNDA:525732,_ZNSt9_Any_data9_M_accessEv
FNDA:2546771,_ZNKSt9_Any_data9_M_accessEv
FNDA:0,_ZNSt9_Any_data9_M_accessIPKSt9type_infoEERT_v
FNDA:0,_ZNSt9_Any_data9_M_accessIPZN6merkle5TreeTILm32EXadL_ZNS1_L14sha256_opensslERKNS1_5HashTILm32EEES6_RS4_EEE4pathEmEUlPNS8_4NodeEbE_EERT_v
FNDA:0,_ZNSt9_Any_data9_M_accessIPZN6merkle5TreeTILm32EXadL_ZNS1_L15sha256_compressERKNS1_5HashTILm32EEES6_RS4_EEE10retract_toEmEUlRPNS8_4NodeEbE_EERT_v
FNDA:0,_ZNSt9_Any_data9_M_accessIPZN6merkle5TreeTILm32EXadL_ZNS1_L15sha256_compressERKNS1_5HashTILm32EEES6_RS4_EEE15serialised_sizeEmmEUlRPNS8_4NodeEbE_EERT_v
FNDA:0,_ZNSt9_Any_data9_M_accessIPZN6merkle5TreeTILm32EXadL_ZNS1_L15sha256_compressERKNS1_5HashTILm32EEES6_RS4_EEE15serialised_sizeEvEUlRPNS8_4NodeEbE_EERT_v
FNDA:0,_ZNSt9_Any_data9_M_accessIPZN6merkle5TreeTILm32EXadL_ZNS1_L15sha256_compressERKNS1_5HashTILm32EEES6_RS4_EEE4pathEmEUlPNS8_4NodeEbE_EERT_v
FNDA:0,_ZNSt9_Any_data9_M_accessIPZN6merkle5TreeTILm32EXadL_ZNS1_L15sha256_compressERKNS1_5HashTILm32EEES6_RS4_EEE8flush_toEmEUlRPNS8_4NodeEbE_EERT_v
FNDA:0,_ZNSt9_Any_data9_M_accessIPZN6merkle5TreeTILm32EXadL_ZNS1_L15sha256_compressERKNS1_5HashTILm32EEES6_RS4_EEE9serialiseERSt6vectorIhSaIhEEEUlRPNS8_4NodeEbE_EERT_v
FNDA:0,_ZNSt9_Any_data9_M_accessIPZN6merkle5TreeTILm32EXadL_ZNS1_L15sha256_compressERKNS1_5HashTILm32EEES6_RS4_EEE9serialiseEmmRSt6vectorIhSaIhEEEUlRPNS8_4NodeEbE_EERT_v
FNDA:0,_ZNSt9_Any_data9_M_accessIPZN6merkle5TreeTILm48EXadL_ZNS1_L14sha384_opensslERKNS1_5HashTILm48EEES6_RS4_EEE10retract_toEmEUlRPNS8_4NodeEbE_EERT_v
FNDA:0,_ZNSt9_Any_data9_M_accessIPZN6merkle5TreeTILm48EXadL_ZNS1_L14sha384_opensslERKNS1_5HashTILm48EEES6_RS4_EEE4pathEmEUlPNS8_4NodeEbE_EERT_v
FNDA:0,_ZNSt9_Any_data9_M_accessIPZN6merkle5TreeTILm48EXadL_ZNS1_L14sha384_opensslERKNS1_5HashTILm48EEES6_RS4_EEE8flush_toEmEUlRPNS8_4NodeEbE_EERT_v
FNDA:0,_ZNSt9_Any_data9_M_accessIPZN6merkle5TreeTILm48EXadL_ZNS1_L14sha384_opensslERKNS1_5HashTILm48EEES6_RS4_EEE9serialiseERSt6vectorIhSaIhEEEUlRPNS8_4NodeEbE_EERT_v
FNDA:0,_ZNSt9_Any_data9_M_accessIPZN6merkle5TreeTILm64EXadL_ZNS1_L14sha512_opensslERKNS1_5HashTILm64EEES6_RS4_EEE10retract_toEmEUlRPNS8_4NodeEbE_EERT_v
FNDA:0,_ZNSt9_Any_data9_M_accessIPZN6merkle5TreeTILm64EXadL_ZNS1_L14sha512_opensslERKNS1_5HashTILm64EEES6_RS4_EEE4pathEmEUlPNS8_4NodeEbE_EERT_v
FNDA:0,_ZNSt9_Any_data9_M_accessIPZN6merkle5TreeTILm64EXadL_ZNS1_L14sha512_opensslERKNS1_5HashTILm64EEES6_RS4_EEE8flush_toEmEUlRPNS8_4NodeEbE_EERT_v
FNDA:0,_ZNSt9_Any_data9_M_accessIPZN6merkle5TreeTILm64EXadL_ZNS1_L14sha512_opensslERKNS1_5HashTILm64EEES6_RS4_EEE9serialiseERSt6vectorIhSaIhEEEUlRPNS8_4NodeEbE_EERT_v
FNDA:2,_ZNSt9_Any_data9_M_accessIZN6merkle5TreeTILm32EXadL_ZNS1_L14sha256_opensslERKNS1_5HashTILm32EEES6_RS4_EEE4pathEmEUlPNS8_4NodeEbE_EERT_v
FNDA:43050,_ZNSt9_Any_data9_M_accessIZN6merkle5TreeTILm32EXadL_ZNS1_L15sha256_compressERKNS1_5HashTILm32EEES6_RS4_EEE10retract_toEmEUlRPNS8_4NodeEbE_EERT_v
FNDA:2008,_ZNSt9_Any_data9_M_accessIZN6merkle5TreeTILm32EXadL_ZNS1_L15sha256_compressERKNS1_5HashTILm32EEES6_RS4_EEE15serialised_sizeEmmEUlRPNS8_4NodeEbE_EERT_v
FNDA:2136,_ZNSt9_Any_data9_M_accessIZN6merkle5TreeTILm32EXadL_ZNS1_L15sha256_compressERKNS1_5HashTILm32EEES6_RS4_EEE15serialised_sizeEvEUlRPNS8_4NodeEbE_EERT_v
FNDA:43296,_ZNSt9_Any_data9_M_accessIZN6merkle5TreeTILm32EXadL_ZNS1_L15sha256_compressERKNS1_5HashTILm32EEES6_RS4_EEE4pathEmEUlPNS8_4NodeEbE_EERT_v
FNDA:170139,_ZNSt9_Any_data9_M_accessIZN6merkle5TreeTILm32EXadL_ZNS1_L15sha256_compressERKNS1_5HashTILm32EEES6_RS4_EEE8flush_toEmEUlRPNS8_4NodeEbE_EERT_v
FNDA:69,_ZNSt9_Any_data9_M_accessIZN6merkle5TreeTILm32EXadL_ZNS1_L15sha256_compressERKNS1_5HashTILm32EEES6_RS4_EEE9serialiseERSt6vectorIhSaIhEEEUlRPNS8_4NodeEbE_EERT_v
FNDA:2008,_ZNSt9_Any_data9_M_accessIZN6merkle5TreeTILm32EXadL_ZNS1_L15sha256_compressERKNS1_5HashTILm32EEES6_RS4_EEE9serialiseEmmRSt6vectorIhSaIhEEEUlRPNS8_4NodeEbE_EERT_v
FNDA:3,_ZNSt9_Any_data9_M_accessIZN6merkle5TreeTILm48EXadL_ZNS1_L14sha384_opensslERKNS1_5HashTILm48EEES6_RS4_EEE10retract_toEmEUlRPNS8_4NodeEbE_EERT_v
FNDA:72,_ZNSt9_Any_data9_M_accessIZN6merkle5TreeTILm48EXadL_ZNS1_L14sha384_opensslERKNS1_5HashTILm48EEES6_RS4_EEE4pathEmEUlPNS8_4NodeEbE_EERT_v
FNDA:2,_ZNSt9_Any_data9_M_accessIZN6merkle5TreeTILm48EXadL_ZNS1_L14sha384_opensslERKNS1_5HashTILm48EEES6_RS4_EEE8flush_toEmEUlRPNS8_4NodeEbE_EERT_v
FNDA:2,_ZNSt9_Any_data9_M_accessIZN6merkle5TreeTILm48EXadL_ZNS1_L14sha384_opensslERKNS1_5HashTILm48EEES6_RS4_EEE9serialiseERSt6vectorIhSaIhEEEUlRPNS8_4NodeEbE_EERT_v
FNDA:3,_ZNSt9_Any_data9_M_accessIZN6merkle5TreeTILm64EXadL_ZNS1_L14sha512_opensslERKNS1_5HashTILm64EEES6_RS4_EEE10retract_toEmEUlRPNS8_4NodeEbE_EERT_v
FNDA:72,_ZNSt9_Any_data9_M_accessIZN6merkle5TreeTILm64EXadL_ZNS1_L14sha512_opensslERKNS1_5HashTILm64EEES6_RS4_EEE4pathEmEUlPNS8_4NodeEbE_EERT_v
FNDA:2,_ZNSt9_Any_data9_M_accessIZN6merkle5TreeTILm64EXadL_ZNS1_L14sha512_opensslERKNS1_5HashTILm64EEES6_RS4_EEE8flush_toEmEUlRPNS8_4NodeEbE_EERT_v
FNDA:2,_ZNSt9_Any_data9_M_accessIZN6merkle5TreeTILm64EXadL_ZNS1_L14sha512_opensslERKNS1_5HashTILm64EEES6_RS4_EEE9serialiseERSt6vectorIhSaIhEEEUlRPNS8_4NodeEbE_EERT_v
FNDA:4,_ZNKSt9_Any_data9_M_accessIZN6merkle5TreeTILm32EXadL_ZNS1_L14sha256_opensslERKNS1_5HashTILm32EEES6_RS4_EEE4pathEmEUlPNS8_4NodeEbE_EERKT_v
FNDA:384165,_ZNKSt9_Any_data9_M_accessIZN6merkle5TreeTILm32EXadL_ZNS1_L15sha256_compressERKNS1_5HashTILm32EEES6_RS4_EEE10retract_toEmEUlRPNS8_4NodeEbE_EERKT_v
FNDA:16864,_ZNKSt9_Any_data9_M_accessIZN6merkle5TreeTILm32EXadL_ZNS1_L15sha256_compressERKNS1_5HashTILm32EEES6_RS4_EEE15serialised_sizeEmmEUlRPNS8_4NodeEbE_EERKT_v
FNDA:16688,_ZNKSt9_Any_data9_M_accessIZN6merkle5TreeTILm32EXadL_ZNS1_L15sha256_compressERKNS1_5HashTILm32EEES6_RS4_EEE15serialised_sizeEvEUlRPNS8_4NodeEbE_EERKT_v
FNDA:498103,_ZNKSt9_Any_data9_M_accessIZN6merkle5TreeTILm32EXadL_ZNS1_L15sha256_compressERKNS1_5HashTILm32EEES6_RS4_EEE4pathEmEUlPNS8_4NodeEbE_EERKT_v
FNDA:1612664,_ZNKSt9_Any_data9_M_accessIZN6merkle5TreeTILm32EXadL_ZNS1_L15sha256_compressERKNS1_5HashTILm32EEES6_RS4_EEE8flush_toEmEUlRPNS8_4NodeEbE_EERKT_v
FNDA:637,_ZNKSt9_Any_data9_M_accessIZN6merkle5TreeTILm32EXadL_ZNS1_L15sha256_compressERKNS1_5HashTILm32EEES6_RS4_EEE9serialiseERSt6vectorIhSaIhEEEUlRPNS8_4NodeEbE_EERKT_v
FNDA:16864,_ZNKSt9_Any_data9_M_accessIZN6merkle5TreeTILm32EXadL_ZNS1_L15sha256_compressERKNS1_5HashTILm32EEES6_RS4_EEE9serialiseEmmRSt6vectorIhSaIhEEEUlRPNS8_4NodeEbE_EERKT_v
FNDA:2,_ZNKSt9_Any_data9_M_accessIZN6merkle5TreeTILm48EXadL_ZNS1_L14sha384_opensslERKNS1_5HashTILm48EEES6_RS4_EEE10retract_toEmEUlRPNS8_4NodeEbE_EERKT_v
FNDA:387,_ZNKSt9_Any_data9_M_accessIZN6merkle5TreeTILm48EXadL_ZNS1_L14sha384_opensslERKNS1_5HashTILm48EEES6_RS4_EEE4pathEmEUlPNS8_4NodeEbE_EERKT_v
FNDA:1,_ZNKSt9_Any_data9_M_accessIZN6merkle5TreeTILm48EXadL_ZNS1_L14sha384_opensslERKNS1_5HashTILm48EEES6_RS4_EEE8flush_toEmEUlRPNS8_4NodeEbE_EERKT_v
FNDA:1,_ZNKSt9_Any_data9_M_accessIZN6merkle5TreeTILm48EXadL_ZNS1_L14sha384_opensslERKNS1_5HashTILm48EEES6_RS4_EEE9serialiseERSt6vectorIhSaIhEEEUlRPNS8_4NodeEbE_EERKT_v
FNDA:2,_ZNKSt9_Any_data9_M_accessIZN6merkle5TreeTILm64EXadL_ZNS1_L14sha512_opensslERKNS1_5HashTILm64EEES6_RS4_EEE10retract_toEmEUlRPNS8_4NodeEbE_EERKT_v
FNDA:387,_ZNKSt9_Any_data9_M_accessIZN6merkle5TreeTILm64EXadL_ZNS1_L14sha512_opensslERKNS1_5HashTILm64EEES6_RS4_EEE4pathEmEUlPNS8_4NodeEbE_EERKT_v
FNDA:1,_ZNKSt9_Any_data9_M_accessIZN6merkle5TreeTILm64EXadL_ZNS1_L14sha512_opensslERKNS1_5HashTILm64EEES6_RS4_EEE8flush_toEmEUlRPNS8_4NodeEbE_EERKT_v
FNDA:1,_ZNKSt9_Any_data9_M_accessIZN6merkle5TreeTILm64EXadL_ZNS1_L14sha512_opensslERKNS1_5HashTILm64EEES6_RS4_EEE9serialiseERSt6vectorIhSaIhEEEUlRPNS8_4NodeEbE_EERKT_v
FNF:234
FNH:185
DA:85,525732
DA:86,2546771
DA:90,262866
DA:91,262866
DA:95,2546771
DA:96,2546771
DA:134,2546771
DA:138,2546771
DA:139,2546771
DA:150,262866
DA:152,262866
DA:153,262866
DA:166,262866
DA:168,262866
DA:169,262866
DA:180,262866
DA:183,262866
DA:185,0
DA:187,0
DA:191,0
DA:193,0
DA:194,0
DA:195,0
DA:197,0
DA:198,0
DA:199,0
DA:200,0
DA:202,262866
DA:203,262866
DA:204,262866
DA:206,262866
DA:211,262866
DA:215,262866
DA:216,262866
DA:235,262866
DA:236,262866
DA:239,262866
DA:241,262866
DA:243,262866
DA:244,262866
DA:245,262866
DA:247,2546771
DA:267,262866
DA:270,262866
DA:273,0
DA:274,0
DA:275,0
DA:277,0
DA:278,0
DA:279,0
DA:281,262866
DA:282,262866
DA:284,262866
DA:288,2546771
DA:290,2546771
DA:291,2546771
DA:435,262866
DA:437,262866
DA:447,262866
DA:449,262866
DA:451,262866
DA:452,262866
DA:454,262866
DA:587,2546771
DA:589,2546771
DA:590,0
DA:591,2546771
LF:67
LH:50
end_of_record
TN:
SF:/usr/include/c++/13/bits/std_mutex.h
FN:104,104,_ZNSt5mutexC2Ev
FN:111,118,_ZNSt5mutex4lockEv
FN:129,133,_ZNSt5mutex6unlockEv
FN:248,249,_ZNSt10lock_guardISt5mutexEC2ERS0_
FN:254,255,_ZNSt10lock_guardISt5mutexED2Ev
FN:67,67,_ZNSt12__mutex_baseC2Ev
FNDA:1,_ZNSt5mutexC2Ev
FNDA:0,_ZNSt5mutex4lockEv
FNDA:0,_ZNSt5mutex6unlockEv
FNDA:0,_ZNSt10lock_guardISt5mutexEC2ERS0_
FNDA:0,_ZNSt10lock_guardISt5mutexED2Ev
FNDA:1,_ZNSt12__mutex_baseC2Ev
FNF:6
FNH:2
DA:67,1
DA:104,1
DA:111,0
DA:113,0
DA:116,0
DA:117,0
DA:118,0
DA:129,0
DA:132,0
DA:133,0
DA:248,0
DA:249,0
DA:254,0
DA:255,0
LF:14
LH:2
end_of_record
TN:
SF:/usr/include/c++/13/bits/stl_algo.h
FN:1631,1639,_ZSt13__heap_selectIN9__gnu_cxx17__normal_iteratorIPPKN7doctest6detail8TestCaseESt6vectorIS6_SaIS6_EEEENS0_5__ops15_Iter_comp_iterIPFbS6_S6_EEEEvT_SH_SH_T0_
FN:1792,1806,_ZSt25__unguarded_linear_insertIN9__gnu_cxx17__normal_iteratorIPPKN7doctest6detail8TestCaseESt6vectorIS6_SaIS6_EEEENS0_5__ops14_Val_comp_iterIPFbS6_S6_EEEEvT_T0_
FN:1812,1830,_ZSt16__insertion_sortIN9__gnu_cxx17__normal_iteratorIPPKN7doctest6detail8TestCaseESt6vectorIS6_SaIS6_EEEENS0_5__ops15_Iter_comp_iterIPFbS6_S6_EEEEvT_SH_T0_
FN:1836,1842,_ZSt26__unguarded_insertion_sortIN9__gnu_cxx17__normal_iteratorIPPKN7doctest6detail8TestCaseESt6vectorIS6_SaIS6_EEEENS0_5__ops15_Iter_comp_iterIPFbS6_S6_EEEEvT_SH_T0_
FN:1854,1865,_ZSt22__final_insertion_sortIN9__gnu_cxx17__normal_iteratorIPPKN7doctest6detail8TestCaseESt6vectorIS6_SaIS6_EEEENS0_5__ops15_Iter_comp_iterIPFbS6_S6_EEEEvT_SH_T0_
FN:1871,1887,_ZSt21__unguarded_partitionIN9__gnu_cxx17__normal_iteratorIPPKN7doctest6detail8TestCaseESt6vectorIS6_SaIS6_EEEENS0_5__ops15_Iter_comp_iterIPFbS6_S6_EEEET_SH_SH_SH_T0_
FN:1893,1900,_ZSt27__unguarded_partition_pivotIN9__gnu_cxx17__normal_iteratorIPPKN7doctest6detail8TestCaseESt6vectorIS6_SaIS6_EEEENS0_5__ops15_Iter_comp_iterIPFbS6_S6_EEEET_SH_SH_T0_
FN:1905,1912,_ZSt14__partial_sortIN9__gnu_cxx17__normal_iteratorIPPKN7doctest6detail8TestCaseESt6vectorIS6_SaIS6_EEEENS0_5__ops15_Iter_comp_iterIPFbS6_S6_EEEEvT_SH_SH_T0_
FN:1918,1935,_ZSt16__introsort_loopIN9__gnu_cxx17__normal_iteratorIPPKN7doctest6detail8TestCaseESt6vectorIS6_SaIS6_EEEElNS0_5__ops15_Iter_comp_iterIPFbS6_S6_EEEEvT_SH_T0_T1_
FN:1942,1952,_ZSt6__sortIN9__gnu_cxx17__normal_iteratorIPPKN7doctest6detail8TestCaseESt6vectorIS6_SaIS6_EEEENS0_5__ops15_Iter_comp_iterIPFbS6_S6_EEEEvT_SH_T0_
FN:3889,3899,_ZSt4findIN9__gnu_cxx17__normal_iteratorIPPKN7doctest6detail20IExceptionTranslatorESt6vectorIS6_SaIS6_EEEES6_ET_SC_SC_RKT0_
FN:4882,4895,_ZSt4sortIN9__gnu_cxx17__normal_iteratorIPPKN7doctest6detail8TestCaseESt6vectorIS6_SaIS6_EEEEPFbS6_S6_EEvT_SE_T0_
FN:85,103,_ZSt22__move_median_to_firstIN9__gnu_cxx17__normal_iteratorIPPKN7doctest6detail8TestCaseESt6vectorIS6_SaIS6_EEEENS0_5__ops15_Iter_comp_iterIPFbS6_S6_EEEEvT_SH_SH_SH_T0_
FNDA:0,_ZSt13__heap_selectIN9__gnu_cxx17__normal_iteratorIPPKN7doctest6detail8TestCaseESt6vectorIS6_SaIS6_EEEENS0_5__ops15_Iter_comp_iterIPFbS6_S6_EEEEvT_SH_SH_T0_
FNDA:11,_ZSt25__unguarded_linear_insertIN9__gnu_cxx17__normal_iteratorIPPKN7doctest6detail8TestCaseESt6vectorIS6_SaIS6_EEEENS0_5__ops14_Val_comp_iterIPFbS6_S6_EEEEvT_T0_
FNDA:1,_ZSt16__insertion_sortIN9__gnu_cxx17__normal_iteratorIPPKN7doctest6detail8TestCaseESt6vectorIS6_SaIS6_EEEENS0_5__ops15_Iter_comp_iterIPFbS6_S6_EEEEvT_SH_T0_
FNDA:0,_ZSt26__unguarded_insertion_sortIN9__gnu_cxx17__normal_iteratorIPPKN7doctest6detail8TestCaseESt6vectorIS6_SaIS6_EEEENS0_5__ops15_Iter_comp_iterIPFbS6_S6_EEEEvT_SH_T0_
FNDA:1,_ZSt22__final_insertion_sortIN9__gnu_cxx17__normal_iteratorIPPKN7doctest6detail8TestCaseESt6vectorIS6_SaIS6_EEEENS0_5__ops15_Iter_comp_iterIPFbS6_S6_EEEEvT_SH_T0_
FNDA:0,_ZSt21__unguarded_partitionIN9__gnu_cxx17__normal_iteratorIPPKN7doctest6detail8TestCaseESt6vectorIS6_SaIS6_EEEENS0_5__ops15_Iter_comp_iterIPFbS6_S6_EEEET_SH_SH_SH_T0_
FNDA:0,_ZSt27__unguarded_partition_pivotIN9__gnu_cxx17__normal_iteratorIPPKN7doctest6detail8TestCaseESt6vectorIS6_SaIS6_EEEENS0_5__ops15_Iter_comp_iterIPFbS6_S6_EEEET_SH_SH_T0_
FNDA:0,_ZSt14__partial_sortIN9__gnu_cxx17__normal_iteratorIPPKN7doctest6detail8TestCaseESt6vectorIS6_SaIS6_EEEENS0_5__ops15_Iter_comp_iterIPFbS6_S6_EEEEvT_SH_SH_T0_
FNDA:1,_ZSt16__introsort_loopIN9__gnu_cxx17__normal_iteratorIPPKN7doctest6detail8TestCaseESt6vectorIS6_SaIS6_EEEElNS0_5__ops15_Iter_comp_iterIPFbS6_S6_EEEEvT_SH_T0_T1_
FNDA:1,_ZSt6__sortIN9__gnu_cxx17__normal_iteratorIPPKN7doctest6detail8TestCaseESt6vectorIS6_SaIS6_EEEENS0_5__ops15_Iter_comp_iterIPFbS6_S6_EEEEvT_SH_T0_
FNDA:0,_ZSt4findIN9__gnu_cxx17__normal_iteratorIPPKN7doctest6detail20IExceptionTranslatorESt6vectorIS6_SaIS6_EEEES6_ET_SC_SC_RKT0_
FNDA:1,_ZSt4sortIN9__gnu_cxx17__normal_iteratorIPPKN7doctest6detail8TestCaseESt6vectorIS6_SaIS6_EEEEPFbS6_S6_EEvT_SE_T0_
FNDA:0,_ZSt22__move_median_to_firstIN9__gnu_cxx17__normal_iteratorIPPKN7doctest6detail8TestCaseESt6vectorIS6_SaIS6_EEEENS0_5__ops15_Iter_comp_iterIPFbS6_S6_EEEEvT_SH_SH_SH_T0_
FNF:13
FNH:6
DA:85,0
DA:88,0
DA:90,0
DA:91,0
DA:92,0
DA:93,0
DA:95,0
DA:97,0
DA:98,0
DA:99,0
DA:100,0
DA:102,0
DA:103,0
DA:1631,0
DA:1635,0
DA:1636,0
DA:1637,0
DA:1638,0
DA:1639,0
DA:1792,11
DA:1796,11
DA:1797,11
DA:1798,11
DA:1799,11
DA:1801,0
DA:1802,0
DA:1803,0
DA:1805,11
DA:1806,11
DA:1812,1
DA:1815,1
DA:1817,12
DA:1819,11
DA:1822,0
DA:1823,0
DA:1824,0
DA:1827,11
DA:1836,0
DA:1839,0
DA:1840,0
DA:1842,0
DA:1854,1
DA:1857,1
DA:1859,0
DA:1860,0
DA:1864,1
DA:1865,1
DA:1871,0
DA:1877,0
DA:1878,0
DA:1879,0
DA:1880,0
DA:1881,0
DA:1882,0
DA:1883,0
DA:1884,0
DA:1885,0
DA:1893,0
DA:1896,0
DA:1897,0
DA:1899,0
DA:1905,0
DA:1910,0
DA:1911,0
DA:1912,0
DA:1918,1
DA:1922,1
DA:1924,0
DA:1926,0
DA:1927,0
DA:1929,0
DA:1931,0
DA:1932,0
DA:1933,0
DA:1942,1
DA:1945,1
DA:1947,1
DA:1948,1
DA:1950,1
DA:1952,1
DA:3889,0
DA:3897,0
DA:3898,0
DA:4882,1
DA:4894,1
DA:4895,1
LF:86
LH:27
end_of_record
TN:
SF:/usr/include/c++/13/bits/stl_algobase.h
FN:1000,1008,_ZSt4fillIPhiEvT_S1_RKT0_
FN:1018,1018,_ZSt17__size_to_integerm
FN:1117,1130,_ZSt10__fill_n_aIPPN6merkle5TreeTILm32EXadL_ZNS0_L15sha256_compressERKNS0_5HashTILm32EEES5_RS3_EEE4NodeEmS9_ET_SB_T0_RKT1_St26random_access_iterator_tag
FN:1117,1130,_ZSt10__fill_n_aIPPN6merkle5TreeTILm48EXadL_ZNS0_L14sha384_opensslERKNS0_5HashTILm48EEES5_RS3_EEE4NodeEmS9_ET_SB_T0_RKT1_St26random_access_iterator_tag
FN:1117,1130,_ZSt10__fill_n_aIPPN6merkle5TreeTILm64EXadL_ZNS0_L14sha512_opensslERKNS0_5HashTILm64EEES5_RS3_EEE4NodeEmS9_ET_SB_T0_RKT1_St26random_access_iterator_tag
FN:1152,1159,_ZSt6fill_nIPPN6merkle5TreeTILm32EXadL_ZNS0_L15sha256_compressERKNS0_5HashTILm32EEES5_RS3_EEE4NodeEmS9_ET_SB_T0_RKT1_
FN:1152,1159,_ZSt6fill_nIPPN6merkle5TreeTILm48EXadL_ZNS0_L14sha384_opensslERKNS0_5HashTILm48EEES5_RS3_EEE4NodeEmS9_ET_SB_T0_RKT1_
FN:1152,1159,_ZSt6fill_nIPPN6merkle5TreeTILm64EXadL_ZNS0_L14sha512_opensslERKNS0_5HashTILm64EEES5_RS3_EEE4NodeEmS9_ET_SB_T0_RKT1_
FN:1515,1528,_ZSt4__lgIlET_S0_
FN:155,187,_ZSt9iter_swapIN9__gnu_cxx17__normal_iteratorIPPKN7doctest6detail8TestCaseESt6vectorIS6_SaIS6_EEEESB_EvT_T0_
FN:2064,2110,_ZSt9__find_ifIN9__gnu_cxx17__normal_iteratorIPPKN7doctest6detail20IExceptionTranslatorESt6vectorIS6_SaIS6_EEEENS0_5__ops16_Iter_equals_valIKS6_EEET_SG_SG_T0_St26random_access_iterator_tag
FN:2115,2119,_ZSt9__find_ifIN9__gnu_cxx17__normal_iteratorIPPKN7doctest6detail20IExceptionTranslatorESt6vectorIS6_SaIS6_EEEENS0_5__ops16_Iter_equals_valIKS6_EEET_SG_SG_T0_
FN:233,241,_ZSt3minIjERKT_S2_S2_
FN:233,241,_ZSt3minImERKT_S2_S2_
FN:257,265,_ZSt3maxIdERKT_S2_S2_
FN:257,265,_ZSt3maxIhERKT_S2_S2_
FN:257,265,_ZSt3maxIjERKT_S2_S2_
FN:257,265,_ZSt3maxImERKT_S2_S2_
FN:316,318,_ZSt12__niter_baseIPKhET_S2_
FN:316,318,_ZSt12__niter_baseIPN6merkle5HashTILm32EEEET_S4_
FN:316,318,_ZSt12__niter_baseIPN6merkle5HashTILm48EEEET_S4_
FN:316,318,_ZSt12__niter_baseIPN6merkle5HashTILm64EEEET_S4_
FN:316,318,_ZSt12__niter_baseIPN6merkle5TreeTILm32EXadL_ZNS0_L14sha256_opensslERKNS0_5HashTILm32EEES5_RS3_EEEUt_EET_SA_
FN:316,318,_ZSt12__niter_baseIPN6merkle5TreeTILm32EXadL_ZNS0_L15sha256_compressERKNS0_5HashTILm32EEES5_RS3_EEEUt_EET_SA_
FN:316,318,_ZSt12__niter_baseIPN6merkle5TreeTILm48EXadL_ZNS0_L14sha384_opensslERKNS0_5HashTILm48EEES5_RS3_EEEUt_EET_SA_
FN:316,318,_ZSt12__niter_baseIPN6merkle5TreeTILm64EXadL_ZNS0_L14sha512_opensslERKNS0_5HashTILm64EEES5_RS3_EEEUt_EET_SA_
FN:316,318,_ZSt12__niter_baseIPN7doctest12_GLOBAL__N_113JUnitReporter17JUnitTestCaseData13JUnitTestCaseEET_S6_
FN:316,318,_ZSt12__niter_baseIPN7doctest12_GLOBAL__N_113JUnitReporter17JUnitTestCaseData16JUnitTestMessageEET_S6_
FN:316,318,_ZSt12__niter_baseIPN7doctest16SubcaseSignatureEET_S3_
FN:316,318,_ZSt12__niter_baseIPN7doctest6StringEET_S3_
FN:316,318,_ZSt12__niter_baseIPNSt7__cxx1112basic_stringIcSt11char_traitsIcESaIcEEEET_S7_
FN:316,318,_ZSt12__niter_baseIPPKN7doctest12TestCaseDataEET_S5_
FN:316,318,_ZSt12__niter_baseIPPKN7doctest6detail20IExceptionTranslatorEET_S6_
FN:316,318,_ZSt12__niter_baseIPPKN7doctest6detail8TestCaseEET_S6_
FN:316,318,_ZSt12__niter_baseIPPN6merkle5TreeTILm32EXadL_ZNS0_L14sha256_opensslERKNS0_5HashTILm32EEES5_RS3_EEE4NodeEET_SB_
FN:316,318,_ZSt12__niter_baseIPPN6merkle5TreeTILm32EXadL_ZNS0_L15sha256_compressERKNS0_5HashTILm32EEES5_RS3_EEE4NodeEET_SB_
FN:316,318,_ZSt12__niter_baseIPPN6merkle5TreeTILm48EXadL_ZNS0_L14sha384_opensslERKNS0_5HashTILm48EEES5_RS3_EEE4NodeEET_SB_
FN:316,318,_ZSt12__niter_baseIPPN6merkle5TreeTILm64EXadL_ZNS0_L14sha512_opensslERKNS0_5HashTILm64EEES5_RS3_EEE4NodeEET_SB_
FN:316,318,_ZSt12__niter_baseIPPN7doctest13IContextScopeEET_S4_
FN:316,318,_ZSt12__niter_baseIPPN7doctest9IReporterEET_S4_
FN:316,318,_ZSt12__niter_baseIPSt4fposI11__mbstate_tEET_S4_
FN:316,318,_ZSt12__niter_baseIPhET_S1_
FN:331,332,_ZSt12__niter_wrapIN9__gnu_cxx17__normal_iteratorIPN7doctest16SubcaseSignatureESt6vectorIS3_SaIS3_EEEES4_ET_S9_T0_
FN:331,332,_ZSt12__niter_wrapIN9__gnu_cxx17__normal_iteratorIPPKN7doctest6detail8TestCaseESt6vectorIS6_SaIS6_EEEES7_ET_SC_T0_
FN:331,332,_ZSt12__niter_wrapIN9__gnu_cxx17__normal_iteratorIPPN6merkle5TreeTILm32EXadL_ZNS2_L15sha256_compressERKNS2_5HashTILm32EEES7_RS5_EEE4NodeESt6vectorISB_SaISB_EEEESC_ET_SH_T0_
FN:331,332,_ZSt12__niter_wrapIN9__gnu_cxx17__normal_iteratorIPPN6merkle5TreeTILm48EXadL_ZNS2_L14sha384_opensslERKNS2_5HashTILm48EEES7_RS5_EEE4NodeESt6vectorISB_SaISB_EEEESC_ET_SH_T0_
FN:331,332,_ZSt12__niter_wrapIN9__gnu_cxx17__normal_iteratorIPPN6merkle5TreeTILm64EXadL_ZNS2_L14sha512_opensslERKNS2_5HashTILm64EEES7_RS5_EEE4NodeESt6vectorISB_SaISB_EEEESC_ET_SH_T0_
FN:338,339,_ZSt12__niter_wrapIPN7doctest16SubcaseSignatureEET_RKS3_S3_
FN:338,339,_ZSt12__niter_wrapIPPN6merkle5TreeTILm32EXadL_ZNS0_L15sha256_compressERKNS0_5HashTILm32EEES5_RS3_EEE4NodeEET_RKSB_SB_
FN:338,339,_ZSt12__niter_wrapIPPN6merkle5TreeTILm48EXadL_ZNS0_L14sha384_opensslERKNS0_5HashTILm48EEES5_RS3_EEE4NodeEET_RKSB_SB_
FN:338,339,_ZSt12__niter_wrapIPPN6merkle5TreeTILm64EXadL_ZNS0_L14sha512_opensslERKNS0_5HashTILm64EEES5_RS3_EEE4NodeEET_RKSB_SB_
FN:338,339,_ZSt12__niter_wrapIPPN7doctest9IReporterEET_RKS4_S4_
FN:338,339,_ZSt12__niter_wrapIPhET_RKS1_S1_
FN:383,393,_ZNSt11__copy_moveILb0ELb0ESt26random_access_iterator_tagE8__copy_mIPN7doctest16SubcaseSignatureES5_EET0_T_S7_S6_
FN:397,398,_ZNSt11__copy_moveILb0ELb0ESt26random_access_iterator_tagE12__assign_oneIPN6merkle5TreeTILm32EXadL_ZNS3_L15sha256_compressERKNS3_5HashTILm32EEES8_RS6_EEE4NodeEKSC_EEvPT_PT0_
FN:397,398,_ZNSt11__copy_moveILb0ELb0ESt26random_access_iterator_tagE12__assign_oneIPN6merkle5TreeTILm48EXadL_ZNS3_L14sha384_opensslERKNS3_5HashTILm48EEES8_RS6_EEE4NodeEKSC_EEvPT_PT0_
FN:397,398,_ZNSt11__copy_moveILb0ELb0ESt26random_access_iterator_tagE12__assign_oneIPN6merkle5TreeTILm64EXadL_ZNS3_L14sha512_opensslERKNS3_5HashTILm64EEES8_RS6_EEE4NodeEKSC_EEvPT_PT0_
FN:397,398,_ZNSt11__copy_moveILb0ELb0ESt26random_access_iterator_tagE12__assign_oneIhKhEEvPT_PT0_
FN:422,423,_ZNSt11__copy_moveILb1ELb0ESt26random_access_iterator_tagE12__assign_oneIPKN7doctest6detail8TestCaseES7_EEvPT_PT0_
FN:422,423,_ZNSt11__copy_moveILb1ELb0ESt26random_access_iterator_tagE12__assign_oneIPN6merkle5TreeTILm32EXadL_ZNS3_L15sha256_compressERKNS3_5HashTILm32EEES8_RS6_EEE4NodeESC_EEvPT_PT0_
FN:422,423,_ZNSt11__copy_moveILb1ELb0ESt26random_access_iterator_tagE12__assign_oneIPN6merkle5TreeTILm48EXadL_ZNS3_L14sha384_opensslERKNS3_5HashTILm48EEES8_RS6_EEE4NodeESC_EEvPT_PT0_
FN:422,423,_ZNSt11__copy_moveILb1ELb0ESt26random_access_iterator_tagE12__assign_oneIPN6merkle5TreeTILm64EXadL_ZNS3_L14sha512_opensslERKNS3_5HashTILm64EEES8_RS6_EEE4NodeESC_EEvPT_PT0_
FN:422,423,_ZNSt11__copy_moveILb1ELb0ESt26random_access_iterator_tagE12__assign_oneIPN7doctest9IReporterES5_EEvPT_PT0_
FN:433,442,_ZNSt11__copy_moveILb0ELb1ESt26random_access_iterator_tagE8__copy_mIKPN6merkle5TreeTILm32EXadL_ZNS3_L15sha256_compressERKNS3_5HashTILm32EEES8_RS6_EEE4NodeESC_EEPT0_PT_SH_SF_
FN:433,442,_ZNSt11__copy_moveILb0ELb1ESt26random_access_iterator_tagE8__copy_mIKPN6merkle5TreeTILm48EXadL_ZNS3_L14sha384_opensslERKNS3_5HashTILm48EEES8_RS6_EEE4NodeESC_EEPT0_PT_SH_SF_
FN:433,442,_ZNSt11__copy_moveILb0ELb1ESt26random_access_iterator_tagE8__copy_mIKPN6merkle5TreeTILm64EXadL_ZNS3_L14sha512_opensslERKNS3_5HashTILm64EEES8_RS6_EEE4NodeESC_EEPT0_PT_SH_SF_
FN:433,442,_ZNSt11__copy_moveILb0ELb1ESt26random_access_iterator_tagE8__copy_mIKhhEEPT0_PT_S7_S5_
FN:433,442,_ZNSt11__copy_moveILb1ELb1ESt26random_access_iterator_tagE8__copy_mIPN6merkle5TreeTILm32EXadL_ZNS3_L15sha256_compressERKNS3_5HashTILm32EEES8_RS6_EEE4NodeESC_EEPT0_PT_SG_SE_
FN:433,442,_ZNSt11__copy_moveILb1ELb1ESt26random_access_iterator_tagE8__copy_mIPN6merkle5TreeTILm48EXadL_ZNS3_L14sha384_opensslERKNS3_5HashTILm48EEES8_RS6_EEE4NodeESC_EEPT0_PT_SG_SE_
FN:433,442,_ZNSt11__copy_moveILb1ELb1ESt26random_access_iterator_tagE8__copy_mIPN6merkle5TreeTILm64EXadL_ZNS3_L14sha512_opensslERKNS3_5HashTILm64EEES8_RS6_EEE4NodeESC_EEPT0_PT_SG_SE_
FN:497,507,_ZSt14__copy_move_a2ILb0EPKPN6merkle5TreeTILm32EXadL_ZNS0_L15sha256_compressERKNS0_5HashTILm32EEES5_RS3_EEE4NodeEPS9_ET1_T0_SE_SD_
FN:497,507,_ZSt14__copy_move_a2ILb0EPKPN6merkle5TreeTILm48EXadL_ZNS0_L14sha384_opensslERKNS0_5HashTILm48EEES5_RS3_EEE4NodeEPS9_ET1_T0_SE_SD_
FN:497,507,_ZSt14__copy_move_a2ILb0EPKPN6merkle5TreeTILm64EXadL_ZNS0_L14sha512_opensslERKNS0_5HashTILm64EEES5_RS3_EEE4NodeEPS9_ET1_T0_SE_SD_
FN:497,507,_ZSt14__copy_move_a2ILb0EPKhPhET1_T0_S4_S3_
FN:497,507,_ZSt14__copy_move_a2ILb0EPN7doctest16SubcaseSignatureES2_ET1_T0_S4_S3_
FN:497,507,_ZSt14__copy_move_a2ILb1EPPN6merkle5TreeTILm32EXadL_ZNS0_L15sha256_compressERKNS0_5HashTILm32EEES5_RS3_EEE4NodeESA_ET1_T0_SC_SB_
FN:497,507,_ZSt14__copy_move_a2ILb1EPPN6merkle5TreeTILm48EXadL_ZNS0_L14sha384_opensslERKNS0_5HashTILm48EEES5_RS3_EEE4NodeESA_ET1_T0_SC_SB_
FN:497,507,_ZSt14__copy_move_a2ILb1EPPN6merkle5TreeTILm64EXadL_ZNS0_L14sha512_opensslERKNS0_5HashTILm64EEES5_RS3_EEE4NodeESA_ET1_T0_SC_SB_
FN:532,533,_ZSt14__copy_move_a1ILb0EPKPN6merkle5TreeTILm32EXadL_ZNS0_L15sha256_compressERKNS0_5HashTILm32EEES5_RS3_EEE4NodeEPS9_ET1_T0_SE_SD_
FN:532,533,_ZSt14__copy_move_a1ILb0EPKPN6merkle5TreeTILm48EXadL_ZNS0_L14sha384_opensslERKNS0_5HashTILm48EEES5_RS3_EEE4NodeEPS9_ET1_T0_SE_SD_
FN:532,533,_ZSt14__copy_move_a1ILb0EPKPN6merkle5TreeTILm64EXadL_ZNS0_L14sha512_opensslERKNS0_5HashTILm64EEES5_RS3_EEE4NodeEPS9_ET1_T0_SE_SD_
FN:532,533,_ZSt14__copy_move_a1ILb0EPKhPhET1_T0_S4_S3_
FN:532,533,_ZSt14__copy_move_a1ILb0EPN7doctest16SubcaseSignatureES2_ET1_T0_S4_S3_
FN:532,533,_ZSt14__copy_move_a1ILb1EPPN6merkle5TreeTILm32EXadL_ZNS0_L15sha256_compressERKNS0_5HashTILm32EEES5_RS3_EEE4NodeESA_ET1_T0_SC_SB_
FN:532,533,_ZSt14__copy_move_a1ILb1EPPN6merkle5TreeTILm48EXadL_ZNS0_L14sha384_opensslERKNS0_5HashTILm48EEES5_RS3_EEE4NodeESA_ET1_T0_SC_SB_
FN:532,533,_ZSt14__copy_move_a1ILb1EPPN6merkle5TreeTILm64EXadL_ZNS0_L14sha512_opensslERKNS0_5HashTILm64EEES5_RS3_EEE4NodeESA_ET1_T0_SC_SB_
FN:538,544,_ZSt13__copy_move_aILb0EN9__gnu_cxx17__normal_iteratorIPKPN6merkle5TreeTILm32EXadL_ZNS2_L15sha256_compressERKNS2_5HashTILm32EEES7_RS5_EEE4NodeESt6vectorISB_SaISB_EEEEPSB_ET1_T0_SK_SJ_
FN:538,544,_ZSt13__copy_move_aILb0EN9__gnu_cxx17__normal_iteratorIPKPN6merkle5TreeTILm48EXadL_ZNS2_L14sha384_opensslERKNS2_5HashTILm48EEES7_RS5_EEE4NodeESt6vectorISB_SaISB_EEEEPSB_ET1_T0_SK_SJ_
FN:538,544,_ZSt13__copy_move_aILb0EN9__gnu_cxx17__normal_iteratorIPKPN6merkle5TreeTILm64EXadL_ZNS2_L14sha512_opensslERKNS2_5HashTILm64EEES7_RS5_EEE4NodeESt6vectorISB_SaISB_EEEEPSB_ET1_T0_SK_SJ_
FN:538,544,_ZSt13__copy_move_aILb0EN9__gnu_cxx17__normal_iteratorIPN7doctest16SubcaseSignatureESt6vectorIS3_SaIS3_EEEES8_ET1_T0_SA_S9_
FN:538,544,_ZSt13__copy_move_aILb0EPKhPhET1_T0_S4_S3_
FN:538,544,_ZSt13__copy_move_aILb1EN9__gnu_cxx17__normal_iteratorIPPN6merkle5TreeTILm32EXadL_ZNS2_L15sha256_compressERKNS2_5HashTILm32EEES7_RS5_EEE4NodeESt6vectorISB_SaISB_EEEESG_ET1_T0_SI_SH_
FN:538,544,_ZSt13__copy_move_aILb1EN9__gnu_cxx17__normal_iteratorIPPN6merkle5TreeTILm48EXadL_ZNS2_L14sha384_opensslERKNS2_5HashTILm48EEES7_RS5_EEE4NodeESt6vectorISB_SaISB_EEEESG_ET1_T0_SI_SH_
FN:538,544,_ZSt13__copy_move_aILb1EN9__gnu_cxx17__normal_iteratorIPPN6merkle5TreeTILm64EXadL_ZNS2_L14sha512_opensslERKNS2_5HashTILm64EEES7_RS5_EEE4NodeESt6vectorISB_SaISB_EEEESG_ET1_T0_SI_SH_
FN:624,634,_ZSt4copyIN9__gnu_cxx17__normal_iteratorIPKPN6merkle5TreeTILm32EXadL_ZNS2_L15sha256_compressERKNS2_5HashTILm32EEES7_RS5_EEE4NodeESt6vectorISB_SaISB_EEEEPSB_ET0_T_SK_SJ_
FN:624,634,_ZSt4copyIN9__gnu_cxx17__normal_iteratorIPKPN6merkle5TreeTILm48EXadL_ZNS2_L14sha384_opensslERKNS2_5HashTILm48EEES7_RS5_EEE4NodeESt6vectorISB_SaISB_EEEEPSB_ET0_T_SK_SJ_
FN:624,634,_ZSt4copyIN9__gnu_cxx17__normal_iteratorIPKPN6merkle5TreeTILm64EXadL_ZNS2_L14sha512_opensslERKNS2_5HashTILm64EEES7_RS5_EEE4NodeESt6vectorISB_SaISB_EEEEPSB_ET0_T_SK_SJ_
FN:624,634,_ZSt4copyIN9__gnu_cxx17__normal_iteratorIPN7doctest16SubcaseSignatureESt6vectorIS3_SaIS3_EEEES8_ET0_T_SA_S9_
FN:624,634,_ZSt4copyIPKhPhET0_T_S4_S3_
FN:657,667,_ZSt4moveIN9__gnu_cxx17__normal_iteratorIPPN6merkle5TreeTILm32EXadL_ZNS2_L15sha256_compressERKNS2_5HashTILm32EEES7_RS5_EEE4NodeESt6vectorISB_SaISB_EEEESG_ET0_T_SI_SH_
FN:657,667,_ZSt4moveIN9__gnu_cxx17__normal_iteratorIPPN6merkle5TreeTILm48EXadL_ZNS2_L14sha384_opensslERKNS2_5HashTILm48EEES7_RS5_EEE4NodeESt6vectorISB_SaISB_EEEESG_ET0_T_SI_SH_
FN:657,667,_ZSt4moveIN9__gnu_cxx17__normal_iteratorIPPN6merkle5TreeTILm64EXadL_ZNS2_L14sha512_opensslERKNS2_5HashTILm64EEES7_RS5_EEE4NodeESt6vectorISB_SaISB_EEEESG_ET0_T_SI_SH_
FN:727,734,_ZNSt20__copy_move_backwardILb1ELb0ESt26random_access_iterator_tagE13__copy_move_bIPN7doctest16SubcaseSignatureES5_EET0_T_S7_S6_
FN:744,753,_ZNSt20__copy_move_backwardILb1ELb1ESt26random_access_iterator_tagE13__copy_move_bIPKN7doctest6detail8TestCaseES7_EEPT0_PT_SB_S9_
FN:744,753,_ZNSt20__copy_move_backwardILb1ELb1ESt26random_access_iterator_tagE13__copy_move_bIPN6merkle5TreeTILm32EXadL_ZNS3_L15sha256_compressERKNS3_5HashTILm32EEES8_RS6_EEE4NodeESC_EEPT0_PT_SG_SE_
FN:744,753,_ZNSt20__copy_move_backwardILb1ELb1ESt26random_access_iterator_tagE13__copy_move_bIPN6merkle5TreeTILm48EXadL_ZNS3_L14sha384_opensslERKNS3_5HashTILm48EEES8_RS6_EEE4NodeESC_EEPT0_PT_SG_SE_
FN:744,753,_ZNSt20__copy_move_backwardILb1ELb1ESt26random_access_iterator_tagE13__copy_move_bIPN6merkle5TreeTILm64EXadL_ZNS3_L14sha512_opensslERKNS3_5HashTILm64EEES8_RS6_EEE4NodeESC_EEPT0_PT_SG_SE_
FN:744,753,_ZNSt20__copy_move_backwardILb1ELb1ESt26random_access_iterator_tagE13__copy_move_bIPN7doctest9IReporterES5_EEPT0_PT_S9_S7_
FN:759,772,_ZSt23__copy_move_backward_a2ILb1EPN7doctest16SubcaseSignatureES2_ET1_T0_S4_S3_
FN:759,772,_ZSt23__copy_move_backward_a2ILb1EPPKN7doctest6detail8TestCaseES5_ET1_T0_S7_S6_
FN:759,772,_ZSt23__copy_move_backward_a2ILb1EPPN6merkle5TreeTILm32EXadL_ZNS0_L15sha256_compressERKNS0_5HashTILm32EEES5_RS3_EEE4NodeESA_ET1_T0_SC_SB_
FN:759,772,_ZSt23__copy_move_backward_a2ILb1EPPN6merkle5TreeTILm48EXadL_ZNS0_L14sha384_opensslERKNS0_5HashTILm48EEES5_RS3_EEE4NodeESA_ET1_T0_SC_SB_
FN:759,772,_ZSt23__copy_move_backward_a2ILb1EPPN6merkle5TreeTILm64EXadL_ZNS0_L14sha512_opensslERKNS0_5HashTILm64EEES5_RS3_EEE4NodeESA_ET1_T0_SC_SB_
FN:759,772,_ZSt23__copy_move_backward_a2ILb1EPPN7doctest9IReporterES3_ET1_T0_S5_S4_
FN:777,778,_ZSt23__copy_move_backward_a1ILb1EPN7doctest16SubcaseSignatureES2_ET1_T0_S4_S3_
FN:777,778,_ZSt23__copy_move_backward_a1ILb1EPPKN7doctest6detail8TestCaseES5_ET1_T0_S7_S6_
FN:777,778,_ZSt23__copy_move_backward_a1ILb1EPPN6merkle5TreeTILm32EXadL_ZNS0_L15sha256_compressERKNS0_5HashTILm32EEES5_RS3_EEE4NodeESA_ET1_T0_SC_SB_
FN:777,778,_ZSt23__copy_move_backward_a1ILb1EPPN6merkle5TreeTILm48EXadL_ZNS0_L14sha384_opensslERKNS0_5HashTILm48EEES5_RS3_EEE4NodeESA_ET1_T0_SC_SB_
FN:777,778,_ZSt23__copy_move_backward_a1ILb1EPPN6merkle5TreeTILm64EXadL_ZNS0_L14sha512_opensslERKNS0_5HashTILm64EEES5_RS3_EEE4NodeESA_ET1_T0_SC_SB_
FN:777,778,_ZSt23__copy_move_backward_a1ILb1EPPN7doctest9IReporterES3_ET1_T0_S5_S4_
FN:805,811,_ZSt22__copy_move_backward_aILb1EN9__gnu_cxx17__normal_iteratorIPPKN7doctest6detail8TestCaseESt6vectorIS6_SaIS6_EEEESB_ET1_T0_SD_SC_
FN:805,811,_ZSt22__copy_move_backward_aILb1EPN7doctest16SubcaseSignatureES2_ET1_T0_S4_S3_
FN:805,811,_ZSt22__copy_move_backward_aILb1EPPN6merkle5TreeTILm32EXadL_ZNS0_L15sha256_compressERKNS0_5HashTILm32EEES5_RS3_EEE4NodeESA_ET1_T0_SC_SB_
FN:805,811,_ZSt22__copy_move_backward_aILb1EPPN6merkle5TreeTILm48EXadL_ZNS0_L14sha384_opensslERKNS0_5HashTILm48EEES5_RS3_EEE4NodeESA_ET1_T0_SC_SB_
FN:805,811,_ZSt22__copy_move_backward_aILb1EPPN6merkle5TreeTILm64EXadL_ZNS0_L14sha512_opensslERKNS0_5HashTILm64EEES5_RS3_EEE4NodeESA_ET1_T0_SC_SB_
FN:805,811,_ZSt22__copy_move_backward_aILb1EPPN7doctest9IReporterES3_ET1_T0_S5_S4_
FN:892,904,_ZSt13move_backwardIN9__gnu_cxx17__normal_iteratorIPPKN7doctest6detail8TestCaseESt6vectorIS6_SaIS6_EEEESB_ET0_T_SD_SC_
FN:892,904,_ZSt13move_backwardIPN7doctest16SubcaseSignatureES2_ET0_T_S4_S3_
FN:892,904,_ZSt13move_backwardIPPN6merkle5TreeTILm32EXadL_ZNS0_L15sha256_compressERKNS0_5HashTILm32EEES5_RS3_EEE4NodeESA_ET0_T_SC_SB_
FN:892,904,_ZSt13move_backwardIPPN6merkle5TreeTILm48EXadL_ZNS0_L14sha384_opensslERKNS0_5HashTILm48EEES5_RS3_EEE4NodeESA_ET0_T_SC_SB_
FN:892,904,_ZSt13move_backwardIPPN6merkle5TreeTILm64EXadL_ZNS0_L14sha512_opensslERKNS0_5HashTILm64EEES5_RS3_EEE4NodeESA_ET0_T_SC_SB_
FN:892,904,_ZSt13move_backwardIPPN7doctest9IReporterES3_ET0_T_S5_S4_
FN:926,932,_ZSt9__fill_a1IPPN6merkle5TreeTILm32EXadL_ZNS0_L15sha256_compressERKNS0_5HashTILm32EEES5_RS3_EEE4NodeES9_EN9__gnu_cxx11__enable_ifIXsrSt11__is_scalarIT0_E7__valueEvE6__typeET_SI_RKSE_
FN:926,932,_ZSt9__fill_a1IPPN6merkle5TreeTILm48EXadL_ZNS0_L14sha384_opensslERKNS0_5HashTILm48EEES5_RS3_EEE4NodeES9_EN9__gnu_cxx11__enable_ifIXsrSt11__is_scalarIT0_E7__valueEvE6__typeET_SI_RKSE_
FN:926,932,_ZSt9__fill_a1IPPN6merkle5TreeTILm64EXadL_ZNS0_L14sha512_opensslERKNS0_5HashTILm64EEES5_RS3_EEE4NodeES9_EN9__gnu_cxx11__enable_ifIXsrSt11__is_scalarIT0_E7__valueEvE6__typeET_SI_RKSE_
FN:926,932,_ZSt9__fill_a1IPhiEN9__gnu_cxx11__enable_ifIXsrSt11__is_scalarIT0_E7__valueEvE6__typeET_S8_RKS4_
FN:976,977,_ZSt8__fill_aIPPN6merkle5TreeTILm32EXadL_ZNS0_L15sha256_compressERKNS0_5HashTILm32EEES5_RS3_EEE4NodeES9_EvT_SB_RKT0_
FN:976,977,_ZSt8__fill_aIPPN6merkle5TreeTILm48EXadL_ZNS0_L14sha384_opensslERKNS0_5HashTILm48EEES5_RS3_EEE4NodeES9_EvT_SB_RKT0_
FN:976,977,_ZSt8__fill_aIPPN6merkle5TreeTILm64EXadL_ZNS0_L14sha512_opensslERKNS0_5HashTILm64EEES5_RS3_EEE4NodeES9_EvT_SB_RKT0_
FN:976,977,_ZSt8__fill_aIPhiEvT_S1_RKT0_
FNDA:71192798,_ZSt4fillIPhiEvT_S1_RKT0_
FNDA:0,_ZSt17__size_to_integerm
FNDA:0,_ZSt10__fill_n_aIPPN6merkle5TreeTILm32EXadL_ZNS0_L15sha256_compressERKNS0_5HashTILm32EEES5_RS3_EEE4NodeEmS9_ET_SB_T0_RKT1_St26random_access_iterator_tag
FNDA:0,_ZSt10__fill_n_aIPPN6merkle5TreeTILm48EXadL_ZNS0_L14sha384_opensslERKNS0_5HashTILm48EEES5_RS3_EEE4NodeEmS9_ET_SB_T0_RKT1_St26random_access_iterator_tag
FNDA:0,_ZSt10__fill_n_aIPPN6merkle5TreeTILm64EXadL_ZNS0_L14sha512_opensslERKNS0_5HashTILm64EEES5_RS3_EEE4NodeEmS9_ET_SB_T0_RKT1_St26random_access_iterator_tag
FNDA:0,_ZSt6fill_nIPPN6merkle5TreeTILm32EXadL_ZNS0_L15sha256_compressERKNS0_5HashTILm32EEES5_RS3_EEE4NodeEmS9_ET_SB_T0_RKT1_
FNDA:0,_ZSt6fill_nIPPN6merkle5TreeTILm48EXadL_ZNS0_L14sha384_opensslERKNS0_5HashTILm48EEES5_RS3_EEE4NodeEmS9_ET_SB_T0_RKT1_
FNDA:0,_ZSt6fill_nIPPN6merkle5TreeTILm64EXadL_ZNS0_L14sha512_opensslERKNS0_5HashTILm64EEES5_RS3_EEE4NodeEmS9_ET_SB_T0_RKT1_
FNDA:1,_ZSt4__lgIlET_S0_
FNDA:0,_ZSt9iter_swapIN9__gnu_cxx17__normal_iteratorIPPKN7doctest6detail8TestCaseESt6vectorIS6_SaIS6_EEEESB_EvT_T0_
FNDA:0,_ZSt9__find_ifIN9__gnu_cxx17__normal_iteratorIPPKN7doctest6detail20IExceptionTranslatorESt6vectorIS6_SaIS6_EEEENS0_5__ops16_Iter_equals_valIKS6_EEET_SG_SG_T0_St26random_access_iterator_tag
FNDA:0,_ZSt9__find_ifIN9__gnu_cxx17__normal_iteratorIPPKN7doctest6detail20IExceptionTranslatorESt6vectorIS6_SaIS6_EEEENS0_5__ops16_Iter_equals_valIKS6_EEET_SG_SG_T0_
FNDA:0,_ZSt3minIjERKT_S2_S2_
FNDA:637559,_ZSt3minImERKT_S2_S2_
FNDA:12,_ZSt3maxIdERKT_S2_S2_
FNDA:40271723,_ZSt3maxIhERKT_S2_S2_
FNDA:3,_ZSt3maxIjERKT_S2_S2_
FNDA:183202,_ZSt3maxImERKT_S2_S2_
FNDA:120477882,_ZSt12__niter_baseIPKhET_S2_
FNDA:197304,_ZSt12__niter_baseIPN6merkle5HashTILm32EEEET_S4_
FNDA:474,_ZSt12__niter_baseIPN6merkle5HashTILm48EEEET_S4_
FNDA:474,_ZSt12__niter_baseIPN6merkle5HashTILm64EEEET_S4_
FNDA:108,_ZSt12__niter_baseIPN6merkle5TreeTILm32EXadL_ZNS0_L14sha256_opensslERKNS0_5HashTILm32EEES5_RS3_EEEUt_EET_SA_
FNDA:27204,_ZSt12__niter_baseIPN6merkle5TreeTILm32EXadL_ZNS0_L15sha256_compressERKNS0_5HashTILm32EEES5_RS3_EEEUt_EET_SA_
FNDA:180,_ZSt12__niter_baseIPN6merkle5TreeTILm48EXadL_ZNS0_L14sha384_opensslERKNS0_5HashTILm48EEES5_RS3_EEEUt_EET_SA_
FNDA:180,_ZSt12__niter_baseIPN6merkle5TreeTILm64EXadL_ZNS0_L14sha512_opensslERKNS0_5HashTILm64EEES5_RS3_EEEUt_EET_SA_
FNDA:0,_ZSt12__niter_baseIPN7doctest12_GLOBAL__N_113JUnitReporter17JUnitTestCaseData13JUnitTestCaseEET_S6_
FNDA:0,_ZSt12__niter_baseIPN7doctest12_GLOBAL__N_113JUnitReporter17JUnitTestCaseData16JUnitTestMessageEET_S6_
FNDA:0,_ZSt12__niter_baseIPN7doctest16SubcaseSignatureEET_S3_
FNDA:6,_ZSt12__niter_baseIPN7doctest6StringEET_S3_
FNDA:0,_ZSt12__niter_baseIPNSt7__cxx1112basic_stringIcSt11char_traitsIcESaIcEEEET_S7_
FNDA:0,_ZSt12__niter_baseIPPKN7doctest12TestCaseDataEET_S5_
FNDA:0,_ZSt12__niter_baseIPPKN7doctest6detail20IExceptionTranslatorEET_S6_
FNDA:30,_ZSt12__niter_baseIPPKN7doctest6detail8TestCaseEET_S6_
FNDA:498,_ZSt12__niter_baseIPPN6merkle5TreeTILm32EXadL_ZNS0_L14sha256_opensslERKNS0_5HashTILm32EEES5_RS3_EEE4NodeEET_SB_
FNDA:730965,_ZSt12__niter_baseIPPN6merkle5TreeTILm32EXadL_ZNS0_L15sha256_compressERKNS0_5HashTILm32EEES5_RS3_EEE4NodeEET_SB_
FNDA:942,_ZSt12__niter_baseIPPN6merkle5TreeTILm48EXadL_ZNS0_L14sha384_opensslERKNS0_5HashTILm48EEES5_RS3_EEE4NodeEET_SB_
FNDA:942,_ZSt12__niter_baseIPPN6merkle5TreeTILm64EXadL_ZNS0_L14sha512_opensslERKNS0_5HashTILm64EEES5_RS3_EEE4NodeEET_SB_
FNDA:0,_ZSt12__niter_baseIPPN7doctest13IContextScopeEET_S4_
FNDA:6,_ZSt12__niter_baseIPPN7doctest9IReporterEET_S4_
FNDA:0,_ZSt12__niter_baseIPSt4fposI11__mbstate_tEET_S4_
FNDA:60479277,_ZSt12__niter_baseIPhET_S1_
FNDA:0,_ZSt12__niter_wrapIN9__gnu_cxx17__normal_iteratorIPN7doctest16SubcaseSignatureESt6vectorIS3_SaIS3_EEEES4_ET_S9_T0_
FNDA:0,_ZSt12__niter_wrapIN9__gnu_cxx17__normal_iteratorIPPKN7doctest6detail8TestCaseESt6vectorIS6_SaIS6_EEEES7_ET_SC_T0_
FNDA:170138,_ZSt12__niter_wrapIN9__gnu_cxx17__normal_iteratorIPPN6merkle5TreeTILm32EXadL_ZNS2_L15sha256_compressERKNS2_5HashTILm32EEES7_RS5_EEE4NodeESt6vectorISB_SaISB_EEEESC_ET_SH_T0_
FNDA:1,_ZSt12__niter_wrapIN9__gnu_cxx17__normal_iteratorIPPN6merkle5TreeTILm48EXadL_ZNS2_L14sha384_opensslERKNS2_5HashTILm48EEES7_RS5_EEE4NodeESt6vectorISB_SaISB_EEEESC_ET_SH_T0_
FNDA:1,_ZSt12__niter_wrapIN9__gnu_cxx17__normal_iteratorIPPN6merkle5TreeTILm64EXadL_ZNS2_L14sha512_opensslERKNS2_5HashTILm64EEES7_RS5_EEE4NodeESt6vectorISB_SaISB_EEEESC_ET_SH_T0_
FNDA:0,_ZSt12__niter_wrapIPN7doctest16SubcaseSignatureEET_RKS3_S3_
FNDA:12277,_ZSt12__niter_wrapIPPN6merkle5TreeTILm32EXadL_ZNS0_L15sha256_compressERKNS0_5HashTILm32EEES5_RS3_EEE4NodeEET_RKSB_SB_
FNDA:3,_ZSt12__niter_wrapIPPN6merkle5TreeTILm48EXadL_ZNS0_L14sha384_opensslERKNS0_5HashTILm48EEES5_RS3_EEE4NodeEET_RKSB_SB_
FNDA:3,_ZSt12__niter_wrapIPPN6merkle5TreeTILm64EXadL_ZNS0_L14sha512_opensslERKNS0_5HashTILm64EEES5_RS3_EEE4NodeEET_RKSB_SB_
FNDA:0,_ZSt12__niter_wrapIPPN7doctest9IReporterEET_RKS4_S4_
FNDA:60238941,_ZSt12__niter_wrapIPhET_RKS1_S1_
FNDA:0,_ZNSt11__copy_moveILb0ELb0ESt26random_access_iterator_tagE8__copy_mIPN7doctest16SubcaseSignatureES5_EET0_T_S7_S6_
FNDA:213,_ZNSt11__copy_moveILb0ELb0ESt26random_access_iterator_tagE12__assign_oneIPN6merkle5TreeTILm32EXadL_ZNS3_L15sha256_compressERKNS3_5HashTILm32EEES8_RS6_EEE4NodeEKSC_EEvPT_PT0_
FNDA:1,_ZNSt11__copy_moveILb0ELb0ESt26random_access_iterator_tagE12__assign_oneIPN6merkle5TreeTILm48EXadL_ZNS3_L14sha384_opensslERKNS3_5HashTILm48EEES8_RS6_EEE4NodeEKSC_EEvPT_PT0_
FNDA:1,_ZNSt11__copy_moveILb0ELb0ESt26random_access_iterator_tagE12__assign_oneIPN6merkle5TreeTILm64EXadL_ZNS3_L14sha512_opensslERKNS3_5HashTILm64EEES8_RS6_EEE4NodeEKSC_EEvPT_PT0_
FNDA:0,_ZNSt11__copy_moveILb0ELb0ESt26random_access_iterator_tagE12__assign_oneIhKhEEvPT_PT0_
FNDA:0,_ZNSt11__copy_moveILb1ELb0ESt26random_access_iterator_tagE12__assign_oneIPKN7doctest6detail8TestCaseES7_EEvPT_PT0_
FNDA:1591,_ZNSt11__copy_moveILb1ELb0ESt26random_access_iterator_tagE12__assign_oneIPN6merkle5TreeTILm32EXadL_ZNS3_L15sha256_compressERKNS3_5HashTILm32EEES8_RS6_EEE4NodeESC_EEvPT_PT0_
FNDA:1,_ZNSt11__copy_moveILb1ELb0ESt26random_access_iterator_tagE12__assign_oneIPN6merkle5TreeTILm48EXadL_ZNS3_L14sha384_opensslERKNS3_5HashTILm48EEES8_RS6_EEE4NodeESC_EEvPT_PT0_
FNDA:1,_ZNSt11__copy_moveILb1ELb0ESt26random_access_iterator_tagE12__assign_oneIPN6merkle5TreeTILm64EXadL_ZNS3_L14sha512_opensslERKNS3_5HashTILm64EEES8_RS6_EEE4NodeESC_EEvPT_PT0_
FNDA:0,_ZNSt11__copy_moveILb1ELb0ESt26random_access_iterator_tagE12__assign_oneIPN7doctest9IReporterES5_EEvPT_PT0_
FNDA:2079,_ZNSt11__copy_moveILb0ELb1ESt26random_access_iterator_tagE8__copy_mIKPN6merkle5TreeTILm32EXadL_ZNS3_L15sha256_compressERKNS3_5HashTILm32EEES8_RS6_EEE4NodeESC_EEPT0_PT_SH_SF_
FNDA:3,_ZNSt11__copy_moveILb0ELb1ESt26random_access_iterator_tagE8__copy_mIKPN6merkle5TreeTILm48EXadL_ZNS3_L14sha384_opensslERKNS3_5HashTILm48EEES8_RS6_EEE4NodeESC_EEPT0_PT_SH_SF_
FNDA:3,_ZNSt11__copy_moveILb0ELb1ESt26random_access_iterator_tagE8__copy_mIKPN6merkle5TreeTILm64EXadL_ZNS3_L14sha512_opensslERKNS3_5HashTILm64EEES8_RS6_EEE4NodeESC_EEPT0_PT_SH_SF_
FNDA:60238941,_ZNSt11__copy_moveILb0ELb1ESt26random_access_iterator_tagE8__copy_mIKhhEEPT0_PT_S7_S5_
FNDA:170138,_ZNSt11__copy_moveILb1ELb1ESt26random_access_iterator_tagE8__copy_mIPN6merkle5TreeTILm32EXadL_ZNS3_L15sha256_compressERKNS3_5HashTILm32EEES8_RS6_EEE4NodeESC_EEPT0_PT_SG_SE_
FNDA:1,_ZNSt11__copy_moveILb1ELb1ESt26random_access_iterator_tagE8__copy_mIPN6merkle5TreeTILm48EXadL_ZNS3_L14sha384_opensslERKNS3_5HashTILm48EEES8_RS6_EEE4NodeESC_EEPT0_PT_SG_SE_
FNDA:1,_ZNSt11__copy_moveILb1ELb1ESt26random_access_iterator_tagE8__copy_mIPN6merkle5TreeTILm64EXadL_ZNS3_L14sha512_opensslERKNS3_5HashTILm64EEES8_RS6_EEE4NodeESC_EEPT0_PT_SG_SE_
FNDA:2079,_ZSt14__copy_move_a2ILb0EPKPN6merkle5TreeTILm32EXadL_ZNS0_L15sha256_compressERKNS0_5HashTILm32EEES5_RS3_EEE4NodeEPS9_ET1_T0_SE_SD_
FNDA:3,_ZSt14__copy_move_a2ILb0EPKPN6merkle5TreeTILm48EXadL_ZNS0_L14sha384_opensslERKNS0_5HashTILm48EEES5_RS3_EEE4NodeEPS9_ET1_T0_SE_SD_
FNDA:3,_ZSt14__copy_move_a2ILb0EPKPN6merkle5TreeTILm64EXadL_ZNS0_L14sha512_opensslERKNS0_5HashTILm64EEES5_RS3_EEE4NodeEPS9_ET1_T0_SE_SD_
FNDA:60238941,_ZSt14__copy_move_a2ILb0EPKhPhET1_T0_S4_S3_
FNDA:0,_ZSt14__copy_move_a2ILb0EPN7doctest16SubcaseSignatureES2_ET1_T0_S4_S3_
FNDA:170138,_ZSt14__copy_move_a2ILb1EPPN6merkle5TreeTILm32EXadL_ZNS0_L15sha256_compressERKNS0_5HashTILm32EEES5_RS3_EEE4NodeESA_ET1_T0_SC_SB_
FNDA:1,_ZSt14__copy_move_a2ILb1EPPN6merkle5TreeTILm48EXadL_ZNS0_L14sha384_opensslERKNS0_5HashTILm48EEES5_RS3_EEE4NodeESA_ET1_T0_SC_SB_
FNDA:1,_ZSt14__copy_move_a2ILb1EPPN6merkle5TreeTILm64EXadL_ZNS0_L14sha512_opensslERKNS0_5HashTILm64EEES5_RS3_EEE4NodeESA_ET1_T0_SC_SB_
FNDA:2079,_ZSt14__copy_move_a1ILb0EPKPN6merkle5TreeTILm32EXadL_ZNS0_L15sha256_compressERKNS0_5HashTILm32EEES5_RS3_EEE4NodeEPS9_ET1_T0_SE_SD_
FNDA:3,_ZSt14__copy_move_a1ILb0EPKPN6merkle5TreeTILm48EXadL_ZNS0_L14sha384_opensslERKNS0_5HashTILm48EEES5_RS3_EEE4NodeEPS9_ET1_T0_SE_SD_
FNDA:3,_ZSt14__copy_move_a1ILb0EPKPN6merkle5TreeTILm64EXadL_ZNS0_L14sha512_opensslERKNS0_5HashTILm64EEES5_RS3_EEE4NodeEPS9_ET1_T0_SE_SD_
FNDA:60238941,_ZSt14__copy_move_a1ILb0EPKhPhET1_T0_S4_S3_
FNDA:0,_ZSt14__copy_move_a1ILb0EPN7doctest16SubcaseSignatureES2_ET1_T0_S4_S3_
FNDA:170138,_ZSt14__copy_move_a1ILb1EPPN6merkle5TreeTILm32EXadL_ZNS0_L15sha256_compressERKNS0_5HashTILm32EEES5_RS3_EEE4NodeESA_ET1_T0_SC_SB_
FNDA:1,_ZSt14__copy_move_a1ILb1EPPN6merkle5TreeTILm48EXadL_ZNS0_L14sha384_opensslERKNS0_5HashTILm48EEES5_RS3_EEE4NodeESA_ET1_T0_SC_SB_
FNDA:1,_ZSt14__copy_move_a1ILb1EPPN6merkle5TreeTILm64EXadL_ZNS0_L14sha512_opensslERKNS0_5HashTILm64EEES5_RS3_EEE4NodeESA_ET1_T0_SC_SB_
FNDA:2079,_ZSt13__copy_move_aILb0EN9__gnu_cxx17__normal_iteratorIPKPN6merkle5TreeTILm32EXadL_ZNS2_L15sha256_compressERKNS2_5HashTILm32EEES7_RS5_EEE4NodeESt6vectorISB_SaISB_EEEEPSB_ET1_T0_SK_SJ_
FNDA:3,_ZSt13__copy_move_aILb0EN9__gnu_cxx17__normal_iteratorIPKPN6merkle5TreeTILm48EXadL_ZNS2_L14sha384_opensslERKNS2_5HashTILm48EEES7_RS5_EEE4NodeESt6vectorISB_SaISB_EEEEPSB_ET1_T0_SK_SJ_
FNDA:3,_ZSt13__copy_move_aILb0EN9__gnu_cxx17__normal_iteratorIPKPN6merkle5TreeTILm64EXadL_ZNS2_L14sha512_opensslERKNS2_5HashTILm64EEES7_RS5_EEE4NodeESt6vectorISB_SaISB_EEEEPSB_ET1_T0_SK_SJ_
FNDA:0,_ZSt13__copy_move_aILb0EN9__gnu_cxx17__normal_iteratorIPN7doctest16SubcaseSignatureESt6vectorIS3_SaIS3_EEEES8_ET1_T0_SA_S9_
FNDA:60238941,_ZSt13__copy_move_aILb0EPKhPhET1_T0_S4_S3_
FNDA:170138,_ZSt13__copy_move_aILb1EN9__gnu_cxx17__normal_iteratorIPPN6merkle5TreeTILm32EXadL_ZNS2_L15sha256_compressERKNS2_5HashTILm32EEES7_RS5_EEE4NodeESt6vectorISB_SaISB_EEEESG_ET1_T0_SI_SH_
FNDA:1,_ZSt13__copy_move_aILb1EN9__gnu_cxx17__normal_iteratorIPPN6merkle5TreeTILm48EXadL_ZNS2_L14sha384_opensslERKNS2_5HashTILm48EEES7_RS5_EEE4NodeESt6vectorISB_SaISB_EEEESG_ET1_T0_SI_SH_
FNDA:1,_ZSt13__copy_move_aILb1EN9__gnu_cxx17__normal_iteratorIPPN6merkle5TreeTILm64EXadL_ZNS2_L14sha512_opensslERKNS2_5HashTILm64EEES7_RS5_EEE4NodeESt6vectorISB_SaISB_EEEESG_ET1_T0_SI_SH_
FNDA:2079,_ZSt4copyIN9__gnu_cxx17__normal_iteratorIPKPN6merkle5TreeTILm32EXadL_ZNS2_L15sha256_compressERKNS2_5HashTILm32EEES7_RS5_EEE4NodeESt6vectorISB_SaISB_EEEEPSB_ET0_T_SK_SJ_
FNDA:3,_ZSt4copyIN9__gnu_cxx17__normal_iteratorIPKPN6merkle5TreeTILm48EXadL_ZNS2_L14sha384_opensslERKNS2_5HashTILm48EEES7_RS5_EEE4NodeESt6vectorISB_SaISB_EEEEPSB_ET0_T_SK_SJ_
FNDA:3,_ZSt4copyIN9__gnu_cxx17__normal_iteratorIPKPN6merkle5TreeTILm64EXadL_ZNS2_L14sha512_opensslERKNS2_5HashTILm64EEES7_RS5_EEE4NodeESt6vectorISB_SaISB_EEEEPSB_ET0_T_SK_SJ_
FNDA:0,_ZSt4copyIN9__gnu_cxx17__normal_iteratorIPN7doctest16SubcaseSignatureESt6vectorIS3_SaIS3_EEEES8_ET0_T_SA_S9_
FNDA:60238941,_ZSt4copyIPKhPhET0_T_S4_S3_
FNDA:170138,_ZSt4moveIN9__gnu_cxx17__normal_iteratorIPPN6merkle5TreeTILm32EXadL_ZNS2_L15sha256_compressERKNS2_5HashTILm32EEES7_RS5_EEE4NodeESt6vectorISB_SaISB_EEEESG_ET0_T_SI_SH_
FNDA:1,_ZSt4moveIN9__gnu_cxx17__normal_iteratorIPPN6merkle5TreeTILm48EXadL_ZNS2_L14sha384_opensslERKNS2_5HashTILm48EEES7_RS5_EEE4NodeESt6vectorISB_SaISB_EEEESG_ET0_T_SI_SH_
FNDA:1,_ZSt4moveIN9__gnu_cxx17__normal_iteratorIPPN6merkle5TreeTILm64EXadL_ZNS2_L14sha512_opensslERKNS2_5HashTILm64EEES7_RS5_EEE4NodeESt6vectorISB_SaISB_EEEESG_ET0_T_SI_SH_
FNDA:0,_ZNSt20__copy_move_backwardILb1ELb0ESt26random_access_iterator_tagE13__copy_move_bIPN7doctest16SubcaseSignatureES5_EET0_T_S7_S6_
FNDA:0,_ZNSt20__copy_move_backwardILb1ELb1ESt26random_access_iterator_tagE13__copy_move_bIPKN7doctest6detail8TestCaseES7_EEPT0_PT_SB_S9_
FNDA:10198,_ZNSt20__copy_move_backwardILb1ELb1ESt26random_access_iterator_tagE13__copy_move_bIPN6merkle5TreeTILm32EXadL_ZNS3_L15sha256_compressERKNS3_5HashTILm32EEES8_RS6_EEE4NodeESC_EEPT0_PT_SG_SE_
FNDA:0,_ZNSt20__copy_move_backwardILb1ELb1ESt26random_access_iterator_tagE13__copy_move_bIPN6merkle5TreeTILm48EXadL_ZNS3_L14sha384_opensslERKNS3_5HashTILm48EEES8_RS6_EEE4NodeESC_EEPT0_PT_SG_SE_
FNDA:0,_ZNSt20__copy_move_backwardILb1ELb1ESt26random_access_iterator_tagE13__copy_move_bIPN6merkle5TreeTILm64EXadL_ZNS3_L14sha512_opensslERKNS3_5HashTILm64EEES8_RS6_EEE4NodeESC_EEPT0_PT_SG_SE_
FNDA:0,_ZNSt20__copy_move_backwardILb1ELb1ESt26random_access_iterator_tagE13__copy_move_bIPN7doctest9IReporterES5_EEPT0_PT_S9_S7_
FNDA:0,_ZSt23__copy_move_backward_a2ILb1EPN7doctest16SubcaseSignatureES2_ET1_T0_S4_S3_
FNDA:0,_ZSt23__copy_move_backward_a2ILb1EPPKN7doctest6detail8TestCaseES5_ET1_T0_S7_S6_
FNDA:10198,_ZSt23__copy_move_backward_a2ILb1EPPN6merkle5TreeTILm32EXadL_ZNS0_L15sha256_compressERKNS0_5HashTILm32EEES5_RS3_EEE4NodeESA_ET1_T0_SC_SB_
FNDA:0,_ZSt23__copy_move_backward_a2ILb1EPPN6merkle5TreeTILm48EXadL_ZNS0_L14sha384_opensslERKNS0_5HashTILm48EEES5_RS3_EEE4NodeESA_ET1_T0_SC_SB_
FNDA:0,_ZSt23__copy_move_backward_a2ILb1EPPN6merkle5TreeTILm64EXadL_ZNS0_L14sha512_opensslERKNS0_5HashTILm64EEES5_RS3_EEE4NodeESA_ET1_T0_SC_SB_
FNDA:0,_ZSt23__copy_move_backward_a2ILb1EPPN7doctest9IReporterES3_ET1_T0_S5_S4_
FNDA:0,_ZSt23__copy_move_backward_a1ILb1EPN7doctest16SubcaseSignatureES2_ET1_T0_S4_S3_
FNDA:0,_ZSt23__copy_move_backward_a1ILb1EPPKN7doctest6detail8TestCaseES5_ET1_T0_S7_S6_
FNDA:10198,_ZSt23__copy_move_backward_a1ILb1EPPN6merkle5TreeTILm32EXadL_ZNS0_L15sha256_compressERKNS0_5HashTILm32EEES5_RS3_EEE4NodeESA_ET1_T0_SC_SB_
FNDA:0,_ZSt23__copy_move_backward_a1ILb1EPPN6merkle5TreeTILm48EXadL_ZNS0_L14sha384_opensslERKNS0_5HashTILm48EEES5_RS3_EEE4NodeESA_ET1_T0_SC_SB_
FNDA:0,_ZSt23__copy_move_backward_a1ILb1EPPN6merkle5TreeTILm64EXadL_ZNS0_L14sha512_opensslERKNS0_5HashTILm64EEES5_RS3_EEE4NodeESA_ET1_T0_SC_SB_
FNDA:0,_ZSt23__copy_move_backward_a1ILb1EPPN7doctest9IReporterES3_ET1_T0_S5_S4_
FNDA:0,_ZSt22__copy_move_backward_aILb1EN9__gnu_cxx17__normal_iteratorIPPKN7doctest6detail8TestCaseESt6vectorIS6_SaIS6_EEEESB_ET1_T0_SD_SC_
FNDA:0,_ZSt22__copy_move_backward_aILb1EPN7doctest16SubcaseSignatureES2_ET1_T0_S4_S3_
FNDA:10198,_ZSt22__copy_move_backward_aILb1EPPN6merkle5TreeTILm32EXadL_ZNS0_L15sha256_compressERKNS0_5HashTILm32EEES5_RS3_EEE4NodeESA_ET1_T0_SC_SB_
FNDA:0,_ZSt22__copy_move_backward_aILb1EPPN6merkle5TreeTILm48EXadL_ZNS0_L14sha384_opensslERKNS0_5HashTILm48EEES5_RS3_EEE4NodeESA_ET1_T0_SC_SB_
FNDA:0,_ZSt22__copy_move_backward_aILb1EPPN6merkle5TreeTILm64EXadL_ZNS0_L14sha512_opensslERKNS0_5HashTILm64EEES5_RS3_EEE4NodeESA_ET1_T0_SC_SB_
FNDA:0,_ZSt22__copy_move_backward_aILb1EPPN7doctest9IReporterES3_ET1_T0_S5_S4_
FNDA:0,_ZSt13move_backwardIN9__gnu_cxx17__normal_iteratorIPPKN7doctest6detail8TestCaseESt6vectorIS6_SaIS6_EEEESB_ET0_T_SD_SC_
FNDA:0,_ZSt13move_backwardIPN7doctest16SubcaseSignatureES2_ET0_T_S4_S3_
FNDA:10198,_ZSt13move_backwardIPPN6merkle5TreeTILm32EXadL_ZNS0_L15sha256_compressERKNS0_5HashTILm32EEES5_RS3_EEE4NodeESA_ET0_T_SC_SB_
FNDA:0,_ZSt13move_backwardIPPN6merkle5TreeTILm48EXadL_ZNS0_L14sha384_opensslERKNS0_5HashTILm48EEES5_RS3_EEE4NodeESA_ET0_T_SC_SB_
FNDA:0,_ZSt13move_backwardIPPN6merkle5TreeTILm64EXadL_ZNS0_L14sha512_opensslERKNS0_5HashTILm64EEES5_RS3_EEE4NodeESA_ET0_T_SC_SB_
FNDA:0,_ZSt13move_backwardIPPN7doctest9IReporterES3_ET0_T_S5_S4_
FNDA:0,_ZSt9__fill_a1IPPN6merkle5TreeTILm32EXadL_ZNS0_L15sha256_compressERKNS0_5HashTILm32EEES5_RS3_EEE4NodeES9_EN9__gnu_cxx11__enable_ifIXsrSt11__is_scalarIT0_E7__valueEvE6__typeET_SI_RKSE_
FNDA:0,_ZSt9__fill_a1IPPN6merkle5TreeTILm48EXadL_ZNS0_L14sha384_opensslERKNS0_5HashTILm48EEES5_RS3_EEE4NodeES9_EN9__gnu_cxx11__enable_ifIXsrSt11__is_scalarIT0_E7__valueEvE6__typeET_SI_RKSE_
FNDA:0,_ZSt9__fill_a1IPPN6merkle5TreeTILm64EXadL_ZNS0_L14sha512_opensslERKNS0_5HashTILm64EEES5_RS3_EEE4NodeES9_EN9__gnu_cxx11__enable_ifIXsrSt11__is_scalarIT0_E7__valueEvE6__typeET_SI_RKSE_
FNDA:71192798,_ZSt9__fill_a1IPhiEN9__gnu_cxx11__enable_ifIXsrSt11__is_scalarIT0_E7__valueEvE6__typeET_S8_RKS4_
FNDA:0,_ZSt8__fill_aIPPN6merkle5TreeTILm32EXadL_ZNS0_L15sha256_compressERKNS0_5HashTILm32EEES5_RS3_EEE4NodeES9_EvT_SB_RKT0_
FNDA:0,_ZSt8__fill_aIPPN6merkle5TreeTILm48EXadL_ZNS0_L14sha384_opensslERKNS0_5HashTILm48EEES5_RS3_EEE4NodeES9_EvT_SB_RKT0_
FNDA:0,_ZSt8__fill_aIPPN6merkle5TreeTILm64EXadL_ZNS0_L14sha512_opensslERKNS0_5HashTILm64EEES5_RS3_EEE4NodeES9_EvT_SB_RKT0_
FNDA:71192798,_ZSt8__fill_aIPhiEvT_S1_RKT0_
FNF:140
FNH:78
DA:155,0
DA:185,0
DA:187,0
DA:233,637559
DA:238,637559
DA:239,0
DA:240,637559
DA:257,40454940
DA:262,40454940
DA:263,20352
DA:264,40434588
DA:316,181916472
DA:318,181916472
DA:331,170140
DA:332,170140
DA:338,60251224
DA:339,60251224
DA:383,0
DA:386,0
DA:388,0
DA:389,0
DA:390,0
DA:392,0
DA:397,215
DA:398,215
DA:422,1593
DA:423,1593
DA:433,60411166
DA:435,60411166
DA:436,60411166
DA:437,60410943
DA:438,223
DA:440,220
DA:441,60411166
DA:497,60411166
DA:506,60411166
DA:532,60411166
DA:533,60411166
DA:538,60411166
DA:540,60411166
DA:543,60411166
DA:624,60241026
DA:633,60241026
DA:657,170140
DA:665,170140
DA:666,170140
DA:727,0
DA:730,0
DA:731,0
DA:732,0
DA:733,0
DA:744,10198
DA:746,10198
DA:747,10198
DA:748,1020
DA:749,9178
DA:751,1588
DA:752,10198
DA:759,10198
DA:769,10198
DA:771,10198
DA:777,10198
DA:778,10198
DA:805,10198
DA:807,10198
DA:810,10198
DA:892,10198
DA:901,10198
DA:903,10198
DA:926,71192798
DA:929,71192798
DA:930,2399719758
DA:931,2328526960
DA:932,71192798
DA:976,71192798
DA:977,71192798
DA:1000,71192798
DA:1007,71192798
DA:1008,71192798
DA:1018,0
DA:1117,0
DA:1123,0
DA:1124,0
DA:1128,0
DA:1129,0
DA:1152,0
DA:1157,0
DA:1158,0
DA:1515,1
DA:1518,1
DA:2064,0
DA:2068,0
DA:2070,0
DA:2072,0
DA:2073,0
DA:2074,0
DA:2076,0
DA:2077,0
DA:2078,0
DA:2080,0
DA:2081,0
DA:2082,0
DA:2084,0
DA:2085,0
DA:2086,0
DA:2089,0
DA:2091,0
DA:2092,0
DA:2093,0
DA:2094,0
DA:2096,0
DA:2097,0
DA:2098,0
DA:2099,0
DA:2101,0
DA:2102,0
DA:2103,0
DA:2104,0
DA:2106,0
DA:2108,0
DA:2115,0
DA:2117,0
DA:2118,0
LF:123
LH:66
end_of_record
TN:
SF:/usr/include/c++/13/bits/stl_construct.h
FN:109,120,_ZSt10_ConstructIN6merkle5HashTILm32EEEJRKS2_EEvPT_DpOT0_
FN:109,120,_ZSt10_ConstructIN6merkle5HashTILm48EEEJRKS2_EEvPT_DpOT0_
FN:109,120,_ZSt10_ConstructIN6merkle5HashTILm64EEEJRKS2_EEvPT_DpOT0_
FN:109,120,_ZSt10_ConstructIN6merkle5PathTILm32EXadL_ZNS0_L14sha256_opensslERKNS0_5HashTILm32EEES5_RS3_EEEEJS5_RmNSt7__cxx114listINS7_Ut0_ESaISB_EEEmEEvPT_DpOT0_
FN:109,120,_ZSt10_ConstructIN6merkle5PathTILm32EXadL_ZNS0_L15sha256_compressERKNS0_5HashTILm32EEES5_RS3_EEEEJS5_RmNSt7__cxx114listINS7_Ut0_ESaISB_EEES8_EEvPT_DpOT0_
FN:109,120,_ZSt10_ConstructIN6merkle5PathTILm32EXadL_ZNS0_L15sha256_compressERKNS0_5HashTILm32EEES5_RS3_EEEEJS5_RmNSt7__cxx114listINS7_Ut0_ESaISB_EEEmEEvPT_DpOT0_
FN:109,120,_ZSt10_ConstructIN6merkle5PathTILm48EXadL_ZNS0_L14sha384_opensslERKNS0_5HashTILm48EEES5_RS3_EEEEJS5_RmNSt7__cxx114listINS7_Ut0_ESaISB_EEES8_EEvPT_DpOT0_
FN:109,120,_ZSt10_ConstructIN6merkle5PathTILm48EXadL_ZNS0_L14sha384_opensslERKNS0_5HashTILm48EEES5_RS3_EEEEJS5_RmNSt7__cxx114listINS7_Ut0_ESaISB_EEEmEEvPT_DpOT0_
FN:109,120,_ZSt10_ConstructIN6merkle5PathTILm64EXadL_ZNS0_L14sha512_opensslERKNS0_5HashTILm64EEES5_RS3_EEEEJS5_RmNSt7__cxx114listINS7_Ut0_ESaISB_EEES8_EEvPT_DpOT0_
FN:109,120,_ZSt10_ConstructIN6merkle5PathTILm64EXadL_ZNS0_L14sha512_opensslERKNS0_5HashTILm64EEES5_RS3_EEEEJS5_RmNSt7__cxx114listINS7_Ut0_ESaISB_EEEmEEvPT_DpOT0_
FN:109,120,_ZSt10_ConstructIN7doctest16SubcaseSignatureEJRS1_EEvPT_DpOT0_
FN:109,120,_ZSt10_ConstructIN7doctest16SubcaseSignatureEJS1_EEvPT_DpOT0_
FN:109,120,_ZSt10_ConstructIN7doctest6StringEJRKS1_EEvPT_DpOT0_
FN:109,120,_ZSt10_ConstructIPN6merkle5TreeTILm32EXadL_ZNS0_L15sha256_compressERKNS0_5HashTILm32EEES5_RS3_EEE4NodeEJEEvPT_DpOT0_
FN:109,120,_ZSt10_ConstructIPN6merkle5TreeTILm48EXadL_ZNS0_L14sha384_opensslERKNS0_5HashTILm48EEES5_RS3_EEE4NodeEJEEvPT_DpOT0_
FN:109,120,_ZSt10_ConstructIPN6merkle5TreeTILm64EXadL_ZNS0_L14sha512_opensslERKNS0_5HashTILm64EEES5_RS3_EEE4NodeEJEEvPT_DpOT0_
FN:109,120,_ZSt10_ConstructISt6vectorIN7doctest6StringESaIS2_EEJEEvPT_DpOT0_
FN:146,153,_ZSt8_DestroyIN6merkle5HashTILm32EEEEvPT_
FN:146,153,_ZSt8_DestroyIN6merkle5HashTILm48EEEEvPT_
FN:146,153,_ZSt8_DestroyIN6merkle5HashTILm64EEEEvPT_
FN:146,153,_ZSt8_DestroyIN6merkle5PathTILm32EXadL_ZNS0_L14sha256_opensslERKNS0_5HashTILm32EEES5_RS3_EEEEEvPT_
FN:146,153,_ZSt8_DestroyIN6merkle5PathTILm32EXadL_ZNS0_L15sha256_compressERKNS0_5HashTILm32EEES5_RS3_EEEEEvPT_
FN:146,153,_ZSt8_DestroyIN6merkle5PathTILm48EXadL_ZNS0_L14sha384_opensslERKNS0_5HashTILm48EEES5_RS3_EEEEEvPT_
FN:146,153,_ZSt8_DestroyIN6merkle5PathTILm64EXadL_ZNS0_L14sha512_opensslERKNS0_5HashTILm64EEES5_RS3_EEEEEvPT_
FN:146,153,_ZSt8_DestroyIN7doctest12_GLOBAL__N_113JUnitReporter17JUnitTestCaseData13JUnitTestCaseEEvPT_
FN:146,153,_ZSt8_DestroyIN7doctest12_GLOBAL__N_113JUnitReporter17JUnitTestCaseData16JUnitTestMessageEEvPT_
FN:146,153,_ZSt8_DestroyIN7doctest16SubcaseSignatureEEvPT_
FN:146,153,_ZSt8_DestroyIN7doctest6StringEEvPT_
FN:146,153,_ZSt8_DestroyINSt7__cxx1112basic_stringIcSt11char_traitsIcESaIcEEEEvPT_
FN:146,153,_ZSt8_DestroyISt6vectorIN7doctest6StringESaIS2_EEEvPT_
FN:160,164,_ZNSt12_Destroy_auxILb0EE9__destroyIPN7doctest12_GLOBAL__N_113JUnitReporter17JUnitTestCaseData13JUnitTestCaseEEEvT_S8_
FN:160,164,_ZNSt12_Destroy_auxILb0EE9__destroyIPN7doctest12_GLOBAL__N_113JUnitReporter17JUnitTestCaseData16JUnitTestMessageEEEvT_S8_
FN:160,164,_ZNSt12_Destroy_auxILb0EE9__destroyIPN7doctest16SubcaseSignatureEEEvT_S5_
FN:160,164,_ZNSt12_Destroy_auxILb0EE9__destroyIPN7doctest6StringEEEvT_S5_
FN:160,164,_ZNSt12_Destroy_auxILb0EE9__destroyIPNSt7__cxx1112basic_stringIcSt11char_traitsIcESaIcEEEEEvT_S9_
FN:160,164,_ZNSt12_Destroy_auxILb0EE9__destroyIPSt6vectorIN7doctest6StringESaIS4_EEEEvT_S8_
FN:172,172,_ZNSt12_Destroy_auxILb1EE9__destroyIPN6merkle5HashTILm32EEEEEvT_S6_
FN:172,172,_ZNSt12_Destroy_auxILb1EE9__destroyIPN6merkle5HashTILm48EEEEEvT_S6_
FN:172,172,_ZNSt12_Destroy_auxILb1EE9__destroyIPN6merkle5HashTILm64EEEEEvT_S6_
FN:172,172,_ZNSt12_Destroy_auxILb1EE9__destroyIPN6merkle5TreeTILm32EXadL_ZNS2_L14sha256_opensslERKNS2_5HashTILm32EEES7_RS5_EEEUt_EEEvT_SC_
FN:172,172,_ZNSt12_Destroy_auxILb1EE9__destroyIPN6merkle5TreeTILm32EXadL_ZNS2_L15sha256_compressERKNS2_5HashTILm32EEES7_RS5_EEEUt_EEEvT_SC_
FN:172,172,_ZNSt12_Destroy_auxILb1EE9__destroyIPN6merkle5TreeTILm48EXadL_ZNS2_L14sha384_opensslERKNS2_5HashTILm48EEES7_RS5_EEEUt_EEEvT_SC_
FN:172,172,_ZNSt12_Destroy_auxILb1EE9__destroyIPN6merkle5TreeTILm64EXadL_ZNS2_L14sha512_opensslERKNS2_5HashTILm64EEES7_RS5_EEEUt_EEEvT_SC_
FN:172,172,_ZNSt12_Destroy_auxILb1EE9__destroyIPPKN7doctest12TestCaseDataEEEvT_S7_
FN:172,172,_ZNSt12_Destroy_auxILb1EE9__destroyIPPKN7doctest6detail20IExceptionTranslatorEEEvT_S8_
FN:172,172,_ZNSt12_Destroy_auxILb1EE9__destroyIPPKN7doctest6detail8TestCaseEEEvT_S8_
FN:172,172,_ZNSt12_Destroy_auxILb1EE9__destroyIPPN6merkle5TreeTILm32EXadL_ZNS2_L14sha256_opensslERKNS2_5HashTILm32EEES7_RS5_EEE4NodeEEEvT_SD_
FN:172,172,_ZNSt12_Destroy_auxILb1EE9__destroyIPPN6merkle5TreeTILm32EXadL_ZNS2_L15sha256_compressERKNS2_5HashTILm32EEES7_RS5_EEE4NodeEEEvT_SD_
FN:172,172,_ZNSt12_Destroy_auxILb1EE9__destroyIPPN6merkle5TreeTILm48EXadL_ZNS2_L14sha384_opensslERKNS2_5HashTILm48EEES7_RS5_EEE4NodeEEEvT_SD_
FN:172,172,_ZNSt12_Destroy_auxILb1EE9__destroyIPPN6merkle5TreeTILm64EXadL_ZNS2_L14sha512_opensslERKNS2_5HashTILm64EEES7_RS5_EEE4NodeEEEvT_SD_
FN:172,172,_ZNSt12_Destroy_auxILb1EE9__destroyIPPN7doctest13IContextScopeEEEvT_S6_
FN:172,172,_ZNSt12_Destroy_auxILb1EE9__destroyIPPN7doctest9IReporterEEEvT_S6_
FN:172,172,_ZNSt12_Destroy_auxILb1EE9__destroyIPSt4fposI11__mbstate_tEEEvT_S6_
FN:172,172,_ZNSt12_Destroy_auxILb1EE9__destroyIPhEEvT_S3_
FN:182,197,_ZSt8_DestroyIPN6merkle5HashTILm32EEEEvT_S4_
FN:182,197,_ZSt8_DestroyIPN6merkle5HashTILm48EEEEvT_S4_
FN:182,197,_ZSt8_DestroyIPN6merkle5HashTILm64EEEEvT_S4_
FN:182,197,_ZSt8_DestroyIPN6merkle5TreeTILm32EXadL_ZNS0_L14sha256_opensslERKNS0_5HashTILm32EEES5_RS3_EEEUt_EEvT_SA_
FN:182,197,_ZSt8_DestroyIPN6merkle5TreeTILm32EXadL_ZNS0_L15sha256_compressERKNS0_5HashTILm32EEES5_RS3_EEEUt_EEvT_SA_
FN:182,197,_ZSt8_DestroyIPN6merkle5TreeTILm48EXadL_ZNS0_L14sha384_opensslERKNS0_5HashTILm48EEES5_RS3_EEEUt_EEvT_SA_
FN:182,197,_ZSt8_DestroyIPN6merkle5TreeTILm64EXadL_ZNS0_L14sha512_opensslERKNS0_5HashTILm64EEES5_RS3_EEEUt_EEvT_SA_
FN:182,197,_ZSt8_DestroyIPN7doctest12_GLOBAL__N_113JUnitReporter17JUnitTestCaseData13JUnitTestCaseEEvT_S6_
FN:182,197,_ZSt8_DestroyIPN7doctest12_GLOBAL__N_113JUnitReporter17JUnitTestCaseData16JUnitTestMessageEEvT_S6_
FN:182,197,_ZSt8_DestroyIPN7doctest16SubcaseSignatureEEvT_S3_
FN:182,197,_ZSt8_DestroyIPN7doctest6StringEEvT_S3_
FN:182,197,_ZSt8_DestroyIPNSt7__cxx1112basic_stringIcSt11char_traitsIcESaIcEEEEvT_S7_
FN:182,197,_ZSt8_DestroyIPPKN7doctest12TestCaseDataEEvT_S5_
FN:182,197,_ZSt8_DestroyIPPKN7doctest6detail20IExceptionTranslatorEEvT_S6_
FN:182,197,_ZSt8_DestroyIPPKN7doctest6detail8TestCaseEEvT_S6_
FN:182,197,_ZSt8_DestroyIPPN6merkle5TreeTILm32EXadL_ZNS0_L14sha256_opensslERKNS0_5HashTILm32EEES5_RS3_EEE4NodeEEvT_SB_
FN:182,197,_ZSt8_DestroyIPPN6merkle5TreeTILm32EXadL_ZNS0_L15sha256_compressERKNS0_5HashTILm32EEES5_RS3_EEE4NodeEEvT_SB_
FN:182,197,_ZSt8_DestroyIPPN6merkle5TreeTILm48EXadL_ZNS0_L14sha384_opensslERKNS0_5HashTILm48EEES5_RS3_EEE4NodeEEvT_SB_
FN:182,197,_ZSt8_DestroyIPPN6merkle5TreeTILm64EXadL_ZNS0_L14sha512_opensslERKNS0_5HashTILm64EEES5_RS3_EEE4NodeEEvT_SB_
FN:182,197,_ZSt8_DestroyIPPN7doctest13IContextScopeEEvT_S4_
FN:182,197,_ZSt8_DestroyIPPN7doctest9IReporterEEvT_S4_
FN:182,197,_ZSt8_DestroyIPSt4fposI11__mbstate_tEEvT_S4_
FN:182,197,_ZSt8_DestroyIPSt6vectorIN7doctest6StringESaIS2_EEEvT_S6_
FN:182,197,_ZSt8_DestroyIPhEvT_S1_
FNDA:51359,_ZSt10_ConstructIN6merkle5HashTILm32EEEJRKS2_EEvPT_DpOT0_
FNDA:72,_ZSt10_ConstructIN6merkle5HashTILm48EEEJRKS2_EEvPT_DpOT0_
FNDA:72,_ZSt10_ConstructIN6merkle5HashTILm64EEEJRKS2_EEvPT_DpOT0_
FNDA:2,_ZSt10_ConstructIN6merkle5PathTILm32EXadL_ZNS0_L14sha256_opensslERKNS0_5HashTILm32EEES5_RS3_EEEEJS5_RmNSt7__cxx114listINS7_Ut0_ESaISB_EEEmEEvPT_DpOT0_
FNDA:4698,_ZSt10_ConstructIN6merkle5PathTILm32EXadL_ZNS0_L15sha256_compressERKNS0_5HashTILm32EEES5_RS3_EEEEJS5_RmNSt7__cxx114listINS7_Ut0_ESaISB_EEES8_EEvPT_DpOT0_
FNDA:43293,_ZSt10_ConstructIN6merkle5PathTILm32EXadL_ZNS0_L15sha256_compressERKNS0_5HashTILm32EEES5_RS3_EEEEJS5_RmNSt7__cxx114listINS7_Ut0_ESaISB_EEEmEEvPT_DpOT0_
FNDA:3,_ZSt10_ConstructIN6merkle5PathTILm48EXadL_ZNS0_L14sha384_opensslERKNS0_5HashTILm48EEES5_RS3_EEEEJS5_RmNSt7__cxx114listINS7_Ut0_ESaISB_EEES8_EEvPT_DpOT0_
FNDA:69,_ZSt10_ConstructIN6merkle5PathTILm48EXadL_ZNS0_L14sha384_opensslERKNS0_5HashTILm48EEES5_RS3_EEEEJS5_RmNSt7__cxx114listINS7_Ut0_ESaISB_EEEmEEvPT_DpOT0_
FNDA:3,_ZSt10_ConstructIN6merkle5PathTILm64EXadL_ZNS0_L14sha512_opensslERKNS0_5HashTILm64EEES5_RS3_EEEEJS5_RmNSt7__cxx114listINS7_Ut0_ESaISB_EEES8_EEvPT_DpOT0_
FNDA:69,_ZSt10_ConstructIN6merkle5PathTILm64EXadL_ZNS0_L14sha512_opensslERKNS0_5HashTILm64EEES5_RS3_EEEEJS5_RmNSt7__cxx114listINS7_Ut0_ESaISB_EEEmEEvPT_DpOT0_
FNDA:0,_ZSt10_ConstructIN7doctest16SubcaseSignatureEJRS1_EEvPT_DpOT0_
FNDA:0,_ZSt10_ConstructIN7doctest16SubcaseSignatureEJS1_EEvPT_DpOT0_
FNDA:0,_ZSt10_ConstructIN7doctest6StringEJRKS1_EEvPT_DpOT0_
FNDA:0,_ZSt10_ConstructIPN6merkle5TreeTILm32EXadL_ZNS0_L15sha256_compressERKNS0_5HashTILm32EEES5_RS3_EEE4NodeEJEEvPT_DpOT0_
FNDA:0,_ZSt10_ConstructIPN6merkle5TreeTILm48EXadL_ZNS0_L14sha384_opensslERKNS0_5HashTILm48EEES5_RS3_EEE4NodeEJEEvPT_DpOT0_
FNDA:0,_ZSt10_ConstructIPN6merkle5TreeTILm64EXadL_ZNS0_L14sha512_opensslERKNS0_5HashTILm64EEES5_RS3_EEE4NodeEJEEvPT_DpOT0_
FNDA:9,_ZSt10_ConstructISt6vectorIN7doctest6StringESaIS2_EEJEEvPT_DpOT0_
FNDA:51359,_ZSt8_DestroyIN6merkle5HashTILm32EEEEvPT_
FNDA:72,_ZSt8_DestroyIN6merkle5HashTILm48EEEEvPT_
FNDA:72,_ZSt8_DestroyIN6merkle5HashTILm64EEEEvPT_
FNDA:2,_ZSt8_DestroyIN6merkle5PathTILm32EXadL_ZNS0_L14sha256_opensslERKNS0_5HashTILm32EEES5_RS3_EEEEEvPT_
FNDA:47991,_ZSt8_DestroyIN6merkle5PathTILm32EXadL_ZNS0_L15sha256_compressERKNS0_5HashTILm32EEES5_RS3_EEEEEvPT_
FNDA:72,_ZSt8_DestroyIN6merkle5PathTILm48EXadL_ZNS0_L14sha384_opensslERKNS0_5HashTILm48EEES5_RS3_EEEEEvPT_
FNDA:72,_ZSt8_DestroyIN6merkle5PathTILm64EXadL_ZNS0_L14sha512_opensslERKNS0_5HashTILm64EEES5_RS3_EEEEEvPT_
FNDA:0,_ZSt8_DestroyIN7doctest12_GLOBAL__N_113JUnitReporter17JUnitTestCaseData13JUnitTestCaseEEvPT_
FNDA:0,_ZSt8_DestroyIN7doctest12_GLOBAL__N_113JUnitReporter17JUnitTestCaseData16JUnitTestMessageEEvPT_
FNDA:0,_ZSt8_DestroyIN7doctest16SubcaseSignatureEEvPT_
FNDA:1,_ZSt8_DestroyIN7doctest6StringEEvPT_
FNDA:0,_ZSt8_DestroyINSt7__cxx1112basic_stringIcSt11char_traitsIcESaIcEEEEvPT_
FNDA:9,_ZSt8_DestroyISt6vectorIN7doctest6StringESaIS2_EEEvPT_
FNDA:0,_ZNSt12_Destroy_auxILb0EE9__destroyIPN7doctest12_GLOBAL__N_113JUnitReporter17JUnitTestCaseData13JUnitTestCaseEEEvT_S8_
FNDA:0,_ZNSt12_Destroy_auxILb0EE9__destroyIPN7doctest12_GLOBAL__N_113JUnitReporter17JUnitTestCaseData16JUnitTestMessageEEEvT_S8_
FNDA:3,_ZNSt12_Destroy_auxILb0EE9__destroyIPN7doctest16SubcaseSignatureEEEvT_S5_
FNDA:10,_ZNSt12_Destroy_auxILb0EE9__destroyIPN7doctest6StringEEEvT_S5_
FNDA:0,_ZNSt12_Destroy_auxILb0EE9__destroyIPNSt7__cxx1112basic_stringIcSt11char_traitsIcESaIcEEEEEvT_S9_
FNDA:1,_ZNSt12_Destroy_auxILb0EE9__destroyIPSt6vectorIN7doctest6StringESaIS4_EEEEvT_S8_
FNDA:2954,_ZNSt12_Destroy_auxILb1EE9__destroyIPN6merkle5HashTILm32EEEEEvT_S6_
FNDA:5,_ZNSt12_Destroy_auxILb1EE9__destroyIPN6merkle5HashTILm48EEEEEvT_S6_
FNDA:5,_ZNSt12_Destroy_auxILb1EE9__destroyIPN6merkle5HashTILm64EEEEEvT_S6_
FNDA:4,_ZNSt12_Destroy_auxILb1EE9__destroyIPN6merkle5TreeTILm32EXadL_ZNS2_L14sha256_opensslERKNS2_5HashTILm32EEES7_RS5_EEEUt_EEEvT_SC_
FNDA:8023,_ZNSt12_Destroy_auxILb1EE9__destroyIPN6merkle5TreeTILm32EXadL_ZNS2_L15sha256_compressERKNS2_5HashTILm32EEES7_RS5_EEEUt_EEEvT_SC_
FNDA:13,_ZNSt12_Destroy_auxILb1EE9__destroyIPN6merkle5TreeTILm48EXadL_ZNS2_L14sha384_opensslERKNS2_5HashTILm48EEES7_RS5_EEEUt_EEEvT_SC_
FNDA:13,_ZNSt12_Destroy_auxILb1EE9__destroyIPN6merkle5TreeTILm64EXadL_ZNS2_L14sha512_opensslERKNS2_5HashTILm64EEES7_RS5_EEEUt_EEEvT_SC_
FNDA:1,_ZNSt12_Destroy_auxILb1EE9__destroyIPPKN7doctest12TestCaseDataEEEvT_S7_
FNDA:1,_ZNSt12_Destroy_auxILb1EE9__destroyIPPKN7doctest6detail20IExceptionTranslatorEEEvT_S8_
FNDA:1,_ZNSt12_Destroy_auxILb1EE9__destroyIPPKN7doctest6detail8TestCaseEEEvT_S8_
FNDA:2068,_ZNSt12_Destroy_auxILb1EE9__destroyIPPN6merkle5TreeTILm32EXadL_ZNS2_L14sha256_opensslERKNS2_5HashTILm32EEES7_RS5_EEE4NodeEEEvT_SD_
FNDA:517241,_ZNSt12_Destroy_auxILb1EE9__destroyIPPN6merkle5TreeTILm32EXadL_ZNS2_L15sha256_compressERKNS2_5HashTILm32EEES7_RS5_EEE4NodeEEEvT_SD_
FNDA:4167,_ZNSt12_Destroy_auxILb1EE9__destroyIPPN6merkle5TreeTILm48EXadL_ZNS2_L14sha384_opensslERKNS2_5HashTILm48EEES7_RS5_EEE4NodeEEEvT_SD_
FNDA:4167,_ZNSt12_Destroy_auxILb1EE9__destroyIPPN6merkle5TreeTILm64EXadL_ZNS2_L14sha512_opensslERKNS2_5HashTILm64EEES7_RS5_EEE4NodeEEEvT_SD_
FNDA:0,_ZNSt12_Destroy_auxILb1EE9__destroyIPPN7doctest13IContextScopeEEEvT_S6_
FNDA:2,_ZNSt12_Destroy_auxILb1EE9__destroyIPPN7doctest9IReporterEEEvT_S6_
FNDA:0,_ZNSt12_Destroy_auxILb1EE9__destroyIPSt4fposI11__mbstate_tEEEvT_S6_
FNDA:4478,_ZNSt12_Destroy_auxILb1EE9__destroyIPhEEvT_S3_
FNDA:2954,_ZSt8_DestroyIPN6merkle5HashTILm32EEEEvT_S4_
FNDA:5,_ZSt8_DestroyIPN6merkle5HashTILm48EEEEvT_S4_
FNDA:5,_ZSt8_DestroyIPN6merkle5HashTILm64EEEEvT_S4_
FNDA:4,_ZSt8_DestroyIPN6merkle5TreeTILm32EXadL_ZNS0_L14sha256_opensslERKNS0_5HashTILm32EEES5_RS3_EEEUt_EEvT_SA_
FNDA:8023,_ZSt8_DestroyIPN6merkle5TreeTILm32EXadL_ZNS0_L15sha256_compressERKNS0_5HashTILm32EEES5_RS3_EEEUt_EEvT_SA_
FNDA:13,_ZSt8_DestroyIPN6merkle5TreeTILm48EXadL_ZNS0_L14sha384_opensslERKNS0_5HashTILm48EEES5_RS3_EEEUt_EEvT_SA_
FNDA:13,_ZSt8_DestroyIPN6merkle5TreeTILm64EXadL_ZNS0_L14sha512_opensslERKNS0_5HashTILm64EEES5_RS3_EEEUt_EEvT_SA_
FNDA:0,_ZSt8_DestroyIPN7doctest12_GLOBAL__N_113JUnitReporter17JUnitTestCaseData13JUnitTestCaseEEvT_S6_
FNDA:0,_ZSt8_DestroyIPN7doctest12_GLOBAL__N_113JUnitReporter17JUnitTestCaseData16JUnitTestMessageEEvT_S6_
FNDA:3,_ZSt8_DestroyIPN7doctest16SubcaseSignatureEEvT_S3_
FNDA:10,_ZSt8_DestroyIPN7doctest6StringEEvT_S3_
FNDA:0,_ZSt8_DestroyIPNSt7__cxx1112basic_stringIcSt11char_traitsIcESaIcEEEEvT_S7_
FNDA:1,_ZSt8_DestroyIPPKN7doctest12TestCaseDataEEvT_S5_
FNDA:1,_ZSt8_DestroyIPPKN7doctest6detail20IExceptionTranslatorEEvT_S6_
FNDA:1,_ZSt8_DestroyIPPKN7doctest6detail8TestCaseEEvT_S6_
FNDA:2068,_ZSt8_DestroyIPPN6merkle5TreeTILm32EXadL_ZNS0_L14sha256_opensslERKNS0_5HashTILm32EEES5_RS3_EEE4NodeEEvT_SB_
FNDA:517241,_ZSt8_DestroyIPPN6merkle5TreeTILm32EXadL_ZNS0_L15sha256_compressERKNS0_5HashTILm32EEES5_RS3_EEE4NodeEEvT_SB_
FNDA:4167,_ZSt8_DestroyIPPN6merkle5TreeTILm48EXadL_ZNS0_L14sha384_opensslERKNS0_5HashTILm48EEES5_RS3_EEE4NodeEEvT_SB_
FNDA:4167,_ZSt8_DestroyIPPN6merkle5TreeTILm64EXadL_ZNS0_L14sha512_opensslERKNS0_5HashTILm64EEES5_RS3_EEE4NodeEEvT_SB_
FNDA:0,_ZSt8_DestroyIPPN7doctest13IContextScopeEEvT_S4_
FNDA:2,_ZSt8_DestroyIPPN7doctest9IReporterEEvT_S4_
FNDA:0,_ZSt8_DestroyIPSt4fposI11__mbstate_tEEvT_S4_
FNDA:1,_ZSt8_DestroyIPSt6vectorIN7doctest6StringESaIS2_EEEvT_S6_
FNDA:4478,_ZSt8_DestroyIPhEvT_S1_
FNF:78
FNH:58
DA:109,99649
DA:119,99649
DA:120,99649
DA:146,99650
DA:151,99650
DA:153,99650
DA:160,14
DA:162,24
DA:163,10
DA:164,14
DA:172,543143
DA:182,543157
DA:196,543157
DA:197,543157
LF:14
LH:14
end_of_record
TN:
SF:/usr/include/c++/13/bits/stl_function.h
FN:1162,1163,_ZNKSt9_IdentityIN7doctest6StringEEclERS1_
FN:1166,1167,_ZNKSt9_IdentityIN7doctest6StringEEclERKS1_
FN:1166,1167,_ZNKSt9_IdentityIN7doctest6detail8TestCaseEEclERKS2_
FN:1178,1179,_ZNKSt10_Select1stISt4pairIKS0_IiN7doctest6StringEEPFPNS1_9IReporterERKNS1_14ContextOptionsEEEEclERSC_
FN:1182,1183,_ZNKSt10_Select1stISt4pairIKS0_IiN7doctest6StringEEPFPNS1_9IReporterERKNS1_14ContextOptionsEEEEclERKSC_
FN:1182,1183,_ZNKSt10_Select1stISt4pairIKmN6merkle5HashTILm32EEEEEclERKS5_
FN:377,378,_ZNKSt8equal_toIyEclERKyS2_
FN:407,408,_ZNKSt4lessIN7doctest6StringEEclERKS1_S4_
FN:407,408,_ZNKSt4lessIN7doctest6detail8TestCaseEEclERKS2_S5_
FN:407,408,_ZNKSt4lessISt4pairIiN7doctest6StringEEEclERKS3_S6_
FN:407,408,_ZNKSt4lessImEclERKmS2_
FNDA:0,_ZNKSt9_IdentityIN7doctest6StringEEclERS1_
FNDA:0,_ZNKSt9_IdentityIN7doctest6StringEEclERKS1_
FNDA:82,_ZNKSt9_IdentityIN7doctest6detail8TestCaseEEclERKS2_
FNDA:5,_ZNKSt10_Select1stISt4pairIKS0_IiN7doctest6StringEEPFPNS1_9IReporterERKNS1_14ContextOptionsEEEEclERSC_
FNDA:5,_ZNKSt10_Select1stISt4pairIKS0_IiN7doctest6StringEEPFPNS1_9IReporterERKNS1_14ContextOptionsEEEEclERKSC_
FNDA:441056,_ZNKSt10_Select1stISt4pairIKmN6merkle5HashTILm32EEEEEclERKS5_
FNDA:0,_ZNKSt8equal_toIyEclERKyS2_
FNDA:0,_ZNKSt4lessIN7doctest6StringEEclERKS1_S4_
FNDA:59,_ZNKSt4lessIN7doctest6detail8TestCaseEEclERKS2_S5_
FNDA:5,_ZNKSt4lessISt4pairIiN7doctest6StringEEEclERKS3_S6_
FNDA:378046,_ZNKSt4lessImEclERKmS2_
FNF:11
FNH:7
DA:377,0
DA:378,0
DA:407,378110
DA:408,378110
DA:1162,0
DA:1163,0
DA:1166,82
DA:1167,82
DA:1178,5
DA:1179,5
DA:1182,441061
DA:1183,441061
LF:12
LH:8
end_of_record
TN:
SF:/usr/include/c++/13/bits/stl_heap.h
FN:135,147,_ZSt11__push_heapIN9__gnu_cxx17__normal_iteratorIPPKN7doctest6detail8TestCaseESt6vectorIS6_SaIS6_EEEElS6_NS0_5__ops14_Iter_comp_valIPFbS6_S6_EEEEvT_T0_SI_T1_RT2_
FN:224,249,_ZSt13__adjust_heapIN9__gnu_cxx17__normal_iteratorIPPKN7doctest6detail8TestCaseESt6vectorIS6_SaIS6_EEEElS6_NS0_5__ops15_Iter_comp_iterIPFbS6_S6_EEEEvT_T0_SI_T1_T2_
FN:254,267,_ZSt10__pop_heapIN9__gnu_cxx17__normal_iteratorIPPKN7doctest6detail8TestCaseESt6vectorIS6_SaIS6_EEEENS0_5__ops15_Iter_comp_iterIPFbS6_S6_EEEEvT_SH_SH_RT0_
FN:340,362,_ZSt11__make_heapIN9__gnu_cxx17__normal_iteratorIPPKN7doctest6detail8TestCaseESt6vectorIS6_SaIS6_EEEENS0_5__ops15_Iter_comp_iterIPFbS6_S6_EEEEvT_SH_RT0_
FN:419,427,_ZSt11__sort_heapIN9__gnu_cxx17__normal_iteratorIPPKN7doctest6detail8TestCaseESt6vectorIS6_SaIS6_EEEENS0_5__ops15_Iter_comp_iterIPFbS6_S6_EEEEvT_SH_RT0_
FNDA:0,_ZSt11__push_heapIN9__gnu_cxx17__normal_iteratorIPPKN7doctest6detail8TestCaseESt6vectorIS6_SaIS6_EEEElS6_NS0_5__ops14_Iter_comp_valIPFbS6_S6_EEEEvT_T0_SI_T1_RT2_
FNDA:0,_ZSt13__adjust_heapIN9__gnu_cxx17__normal_iteratorIPPKN7doctest6detail8TestCaseESt6vectorIS6_SaIS6_EEEElS6_NS0_5__ops15_Iter_comp_iterIPFbS6_S6_EEEEvT_T0_SI_T1_T2_
FNDA:0,_ZSt10__pop_heapIN9__gnu_cxx17__normal_iteratorIPPKN7doctest6detail8TestCaseESt6vectorIS6_SaIS6_EEEENS0_5__ops15_Iter_comp_iterIPFbS6_S6_EEEEvT_SH_SH_RT0_
FNDA:0,_ZSt11__make_heapIN9__gnu_cxx17__normal_iteratorIPPKN7doctest6detail8TestCaseESt6vectorIS6_SaIS6_EEEENS0_5__ops15_Iter_comp_iterIPFbS6_S6_EEEEvT_SH_RT0_
FNDA:0,_ZSt11__sort_heapIN9__gnu_cxx17__normal_iteratorIPPKN7doctest6detail8TestCaseESt6vectorIS6_SaIS6_EEEENS0_5__ops15_Iter_comp_iterIPFbS6_S6_EEEEvT_SH_RT0_
FNF:5
FNH:0
DA:135,0
DA:139,0
DA:140,0
DA:142,0
DA:143,0
DA:144,0
DA:146,0
DA:147,0
DA:224,0
DA:227,0
DA:228,0
DA:229,0
DA:231,0
DA:232,0
DA:234,0
DA:235,0
DA:236,0
DA:238,0
DA:240,0
DA:241,0
DA:243,0
DA:246,0
DA:247,0
DA:248,0
DA:249,0
DA:254,0
DA:262,0
DA:263,0
DA:264,0
DA:265,0
DA:266,0
DA:267,0
DA:340,0
DA:348,0
DA:349,0
DA:351,0
DA:352,0
DA:353,0
DA:355,0
DA:356,0
DA:358,0
DA:359,0
DA:360,0
DA:419,0
DA:422,0
DA:424,0
DA:425,0
DA:427,0
LF:48
LH:0
end_of_record
TN:
SF:/usr/include/c++/13/bits/stl_iterator.h
FN:1072,1073,_ZN9__gnu_cxx17__normal_iteratorIPKPN6merkle5TreeTILm32EXadL_ZNS1_L15sha256_compressERKNS1_5HashTILm32EEES6_RS4_EEE4NodeESt6vectorISA_SaISA_EEEC2Ev
FN:1072,1073,_ZN9__gnu_cxx17__normal_iteratorIPKPN6merkle5TreeTILm48EXadL_ZNS1_L14sha384_opensslERKNS1_5HashTILm48EEES6_RS4_EEE4NodeESt6vectorISA_SaISA_EEEC2Ev
FN:1072,1073,_ZN9__gnu_cxx17__normal_iteratorIPKPN6merkle5TreeTILm64EXadL_ZNS1_L14sha512_opensslERKNS1_5HashTILm64EEES6_RS4_EEE4NodeESt6vectorISA_SaISA_EEEC2Ev
FN:1076,1077,_ZN9__gnu_cxx17__normal_iteratorIPKN6merkle5HashTILm32EEESt6vectorIS3_SaIS3_EEEC2ERKS5_
FN:1076,1077,_ZN9__gnu_cxx17__normal_iteratorIPKN6merkle5HashTILm48EEESt6vectorIS3_SaIS3_EEEC2ERKS5_
FN:1076,1077,_ZN9__gnu_cxx17__normal_iteratorIPKN6merkle5HashTILm64EEESt6vectorIS3_SaIS3_EEEC2ERKS5_
FN:1076,1077,_ZN9__gnu_cxx17__normal_iteratorIPKN6merkle5TreeTILm32EXadL_ZNS1_L14sha256_opensslERKNS1_5HashTILm32EEES6_RS4_EEEUt_ESt6vectorIS9_SaIS9_EEEC2ERKSB_
FN:1076,1077,_ZN9__gnu_cxx17__normal_iteratorIPKN6merkle5TreeTILm32EXadL_ZNS1_L15sha256_compressERKNS1_5HashTILm32EEES6_RS4_EEEUt_ESt6vectorIS9_SaIS9_EEEC2ERKSB_
FN:1076,1077,_ZN9__gnu_cxx17__normal_iteratorIPKN6merkle5TreeTILm48EXadL_ZNS1_L14sha384_opensslERKNS1_5HashTILm48EEES6_RS4_EEEUt_ESt6vectorIS9_SaIS9_EEEC2ERKSB_
FN:1076,1077,_ZN9__gnu_cxx17__normal_iteratorIPKN6merkle5TreeTILm64EXadL_ZNS1_L14sha512_opensslERKNS1_5HashTILm64EEES6_RS4_EEEUt_ESt6vectorIS9_SaIS9_EEEC2ERKSB_
FN:1076,1077,_ZN9__gnu_cxx17__normal_iteratorIPKN7doctest12_GLOBAL__N_113JUnitReporter17JUnitTestCaseData16JUnitTestMessageESt6vectorIS5_SaIS5_EEEC2ERKS7_
FN:1076,1077,_ZN9__gnu_cxx17__normal_iteratorIPKN7doctest16SubcaseSignatureESt6vectorIS2_SaIS2_EEEC2ERKS4_
FN:1076,1077,_ZN9__gnu_cxx17__normal_iteratorIPKN7doctest6StringESt6vectorIS2_SaIS2_EEEC2ERKS4_
FN:1076,1077,_ZN9__gnu_cxx17__normal_iteratorIPKNSt7__cxx1112basic_stringIcSt11char_traitsIcESaIcEEESt6vectorIS6_SaIS6_EEEC2ERKS8_
FN:1076,1077,_ZN9__gnu_cxx17__normal_iteratorIPKPKN7doctest6detail8TestCaseESt6vectorIS5_SaIS5_EEEC2ERKS7_
FN:1076,1077,_ZN9__gnu_cxx17__normal_iteratorIPKPN6merkle5TreeTILm32EXadL_ZNS1_L14sha256_opensslERKNS1_5HashTILm32EEES6_RS4_EEE4NodeESt6vectorISA_SaISA_EEEC2ERKSC_
FN:1076,1077,_ZN9__gnu_cxx17__normal_iteratorIPKPN6merkle5TreeTILm32EXadL_ZNS1_L15sha256_compressERKNS1_5HashTILm32EEES6_RS4_EEE4NodeESt6vectorISA_SaISA_EEEC2ERKSC_
FN:1076,1077,_ZN9__gnu_cxx17__normal_iteratorIPKPN6merkle5TreeTILm48EXadL_ZNS1_L14sha384_opensslERKNS1_5HashTILm48EEES6_RS4_EEE4NodeESt6vectorISA_SaISA_EEEC2ERKSC_
FN:1076,1077,_ZN9__gnu_cxx17__normal_iteratorIPKPN6merkle5TreeTILm64EXadL_ZNS1_L14sha512_opensslERKNS1_5HashTILm64EEES6_RS4_EEE4NodeESt6vectorISA_SaISA_EEEC2ERKSC_
FN:1076,1077,_ZN9__gnu_cxx17__normal_iteratorIPKPN7doctest9IReporterESt6vectorIS3_SaIS3_EEEC2ERKS5_
FN:1076,1077,_ZN9__gnu_cxx17__normal_iteratorIPKSt4fposI11__mbstate_tESt6vectorIS3_SaIS3_EEEC2ERKS5_
FN:1076,1077,_ZN9__gnu_cxx17__normal_iteratorIPN6merkle5HashTILm32EEESt6vectorIS3_SaIS3_EEEC2ERKS4_
FN:1076,1077,_ZN9__gnu_cxx17__normal_iteratorIPN6merkle5HashTILm48EEESt6vectorIS3_SaIS3_EEEC2ERKS4_
FN:1076,1077,_ZN9__gnu_cxx17__normal_iteratorIPN6merkle5HashTILm64EEESt6vectorIS3_SaIS3_EEEC2ERKS4_
FN:1076,1077,_ZN9__gnu_cxx17__normal_iteratorIPN6merkle5TreeTILm32EXadL_ZNS1_L14sha256_opensslERKNS1_5HashTILm32EEES6_RS4_EEEUt_ESt6vectorIS9_SaIS9_EEEC2ERKSA_
FN:1076,1077,_ZN9__gnu_cxx17__normal_iteratorIPN6merkle5TreeTILm32EXadL_ZNS1_L15sha256_compressERKNS1_5HashTILm32EEES6_RS4_EEEUt_ESt6vectorIS9_SaIS9_EEEC2ERKSA_
FN:1076,1077,_ZN9__gnu_cxx17__normal_iteratorIPN6merkle5TreeTILm48EXadL_ZNS1_L14sha384_opensslERKNS1_5HashTILm48EEES6_RS4_EEEUt_ESt6vectorIS9_SaIS9_EEEC2ERKSA_
FN:1076,1077,_ZN9__gnu_cxx17__normal_iteratorIPN6merkle5TreeTILm64EXadL_ZNS1_L14sha512_opensslERKNS1_5HashTILm64EEES6_RS4_EEEUt_ESt6vectorIS9_SaIS9_EEEC2ERKSA_
FN:1076,1077,_ZN9__gnu_cxx17__normal_iteratorIPN7doctest12_GLOBAL__N_113JUnitReporter17JUnitTestCaseData13JUnitTestCaseESt6vectorIS5_SaIS5_EEEC2ERKS6_
FN:1076,1077,_ZN9__gnu_cxx17__normal_iteratorIPN7doctest12_GLOBAL__N_113JUnitReporter17JUnitTestCaseData16JUnitTestMessageESt6vectorIS5_SaIS5_EEEC2ERKS6_
FN:1076,1077,_ZN9__gnu_cxx17__normal_iteratorIPN7doctest16SubcaseSignatureESt6vectorIS2_SaIS2_EEEC2ERKS3_
FN:1076,1077,_ZN9__gnu_cxx17__normal_iteratorIPN7doctest6StringESt6vectorIS2_SaIS2_EEEC2ERKS3_
FN:1076,1077,_ZN9__gnu_cxx17__normal_iteratorIPNSt7__cxx1112basic_stringIcSt11char_traitsIcESaIcEEESt6vectorIS6_SaIS6_EEEC2ERKS7_
FN:1076,1077,_ZN9__gnu_cxx17__normal_iteratorIPPKN7doctest12TestCaseDataESt6vectorIS4_SaIS4_EEEC2ERKS5_
FN:1076,1077,_ZN9__gnu_cxx17__normal_iteratorIPPKN7doctest6detail20IExceptionTranslatorESt6vectorIS5_SaIS5_EEEC2ERKS6_
FN:1076,1077,_ZN9__gnu_cxx17__normal_iteratorIPPKN7doctest6detail8TestCaseESt6vectorIS5_SaIS5_EEEC2ERKS6_
FN:1076,1077,_ZN9__gnu_cxx17__normal_iteratorIPPN6merkle5TreeTILm32EXadL_ZNS1_L14sha256_opensslERKNS1_5HashTILm32EEES6_RS4_EEE4NodeESt6vectorISA_SaISA_EEEC2ERKSB_
FN:1076,1077,_ZN9__gnu_cxx17__normal_iteratorIPPN6merkle5TreeTILm32EXadL_ZNS1_L15sha256_compressERKNS1_5HashTILm32EEES6_RS4_EEE4NodeESt6vectorISA_SaISA_EEEC2ERKSB_
FN:1076,1077,_ZN9__gnu_cxx17__normal_iteratorIPPN6merkle5TreeTILm48EXadL_ZNS1_L14sha384_opensslERKNS1_5HashTILm48EEES6_RS4_EEE4NodeESt6vectorISA_SaISA_EEEC2ERKSB_
FN:1076,1077,_ZN9__gnu_cxx17__normal_iteratorIPPN6merkle5TreeTILm64EXadL_ZNS1_L14sha512_opensslERKNS1_5HashTILm64EEES6_RS4_EEE4NodeESt6vectorISA_SaISA_EEEC2ERKSB_
FN:1076,1077,_ZN9__gnu_cxx17__normal_iteratorIPPN7doctest13IContextScopeESt6vectorIS3_SaIS3_EEEC2ERKS4_
FN:1076,1077,_ZN9__gnu_cxx17__normal_iteratorIPPN7doctest9IReporterESt6vectorIS3_SaIS3_EEEC2ERKS4_
FN:1076,1077,_ZN9__gnu_cxx17__normal_iteratorIPSt4fposI11__mbstate_tESt6vectorIS3_SaIS3_EEEC2ERKS4_
FN:1076,1077,_ZN9__gnu_cxx17__normal_iteratorIPSt6vectorIN7doctest6StringESaIS3_EES1_IS5_SaIS5_EEEC2ERKS6_
FN:1076,1077,_ZN9__gnu_cxx17__normal_iteratorIPhSt6vectorIhSaIhEEEC2ERKS1_
FN:1083,1094,_ZN9__gnu_cxx17__normal_iteratorIPKN7doctest16SubcaseSignatureESt6vectorIS2_SaIS2_EEEC2IPS2_vEERKNS0_IT_S7_EE
FN:1083,1094,_ZN9__gnu_cxx17__normal_iteratorIPKPN6merkle5TreeTILm32EXadL_ZNS1_L15sha256_compressERKNS1_5HashTILm32EEES6_RS4_EEE4NodeESt6vectorISA_SaISA_EEEC2IPSA_vEERKNS0_IT_SF_EE
FN:1083,1094,_ZN9__gnu_cxx17__normal_iteratorIPKPN6merkle5TreeTILm48EXadL_ZNS1_L14sha384_opensslERKNS1_5HashTILm48EEES6_RS4_EEE4NodeESt6vectorISA_SaISA_EEEC2IPSA_vEERKNS0_IT_SF_EE
FN:1083,1094,_ZN9__gnu_cxx17__normal_iteratorIPKPN6merkle5TreeTILm64EXadL_ZNS1_L14sha512_opensslERKNS1_5HashTILm64EEES6_RS4_EEE4NodeESt6vectorISA_SaISA_EEEC2IPSA_vEERKNS0_IT_SF_EE
FN:1083,1094,_ZN9__gnu_cxx17__normal_iteratorIPKPN7doctest9IReporterESt6vectorIS3_SaIS3_EEEC2IPS3_vEERKNS0_IT_S8_EE
FN:1099,1100,_ZNK9__gnu_cxx17__normal_iteratorIPKN6merkle5HashTILm32EEESt6vectorIS3_SaIS3_EEEdeEv
FN:1099,1100,_ZNK9__gnu_cxx17__normal_iteratorIPKN6merkle5HashTILm48EEESt6vectorIS3_SaIS3_EEEdeEv
FN:1099,1100,_ZNK9__gnu_cxx17__normal_iteratorIPKN6merkle5HashTILm64EEESt6vectorIS3_SaIS3_EEEdeEv
FN:1099,1100,_ZNK9__gnu_cxx17__normal_iteratorIPKN7doctest12_GLOBAL__N_113JUnitReporter17JUnitTestCaseData16JUnitTestMessageESt6vectorIS5_SaIS5_EEEdeEv
FN:1099,1100,_ZNK9__gnu_cxx17__normal_iteratorIPKN7doctest16SubcaseSignatureESt6vectorIS2_SaIS2_EEEdeEv
FN:1099,1100,_ZNK9__gnu_cxx17__normal_iteratorIPKN7doctest6StringESt6vectorIS2_SaIS2_EEEdeEv
FN:1099,1100,_ZNK9__gnu_cxx17__normal_iteratorIPKPN6merkle5TreeTILm32EXadL_ZNS1_L15sha256_compressERKNS1_5HashTILm32EEES6_RS4_EEE4NodeESt6vectorISA_SaISA_EEEdeEv
FN:1099,1100,_ZNK9__gnu_cxx17__normal_iteratorIPKPN6merkle5TreeTILm48EXadL_ZNS1_L14sha384_opensslERKNS1_5HashTILm48EEES6_RS4_EEE4NodeESt6vectorISA_SaISA_EEEdeEv
FN:1099,1100,_ZNK9__gnu_cxx17__normal_iteratorIPKPN6merkle5TreeTILm64EXadL_ZNS1_L14sha512_opensslERKNS1_5HashTILm64EEES6_RS4_EEE4NodeESt6vectorISA_SaISA_EEEdeEv
FN:1099,1100,_ZNK9__gnu_cxx17__normal_iteratorIPN6merkle5HashTILm32EEESt6vectorIS3_SaIS3_EEEdeEv
FN:1099,1100,_ZNK9__gnu_cxx17__normal_iteratorIPN6merkle5HashTILm48EEESt6vectorIS3_SaIS3_EEEdeEv
FN:1099,1100,_ZNK9__gnu_cxx17__normal_iteratorIPN6merkle5HashTILm64EEESt6vectorIS3_SaIS3_EEEdeEv
FN:1099,1100,_ZNK9__gnu_cxx17__normal_iteratorIPN6merkle5TreeTILm32EXadL_ZNS1_L14sha256_opensslERKNS1_5HashTILm32EEES6_RS4_EEEUt_ESt6vectorIS9_SaIS9_EEEdeEv
FN:1099,1100,_ZNK9__gnu_cxx17__normal_iteratorIPN6merkle5TreeTILm32EXadL_ZNS1_L15sha256_compressERKNS1_5HashTILm32EEES6_RS4_EEEUt_ESt6vectorIS9_SaIS9_EEEdeEv
FN:1099,1100,_ZNK9__gnu_cxx17__normal_iteratorIPN6merkle5TreeTILm48EXadL_ZNS1_L14sha384_opensslERKNS1_5HashTILm48EEES6_RS4_EEEUt_ESt6vectorIS9_SaIS9_EEEdeEv
FN:1099,1100,_ZNK9__gnu_cxx17__normal_iteratorIPN6merkle5TreeTILm64EXadL_ZNS1_L14sha512_opensslERKNS1_5HashTILm64EEES6_RS4_EEEUt_ESt6vectorIS9_SaIS9_EEEdeEv
FN:1099,1100,_ZNK9__gnu_cxx17__normal_iteratorIPN7doctest12_GLOBAL__N_113JUnitReporter17JUnitTestCaseData13JUnitTestCaseESt6vectorIS5_SaIS5_EEEdeEv
FN:1099,1100,_ZNK9__gnu_cxx17__normal_iteratorIPN7doctest12_GLOBAL__N_113JUnitReporter17JUnitTestCaseData16JUnitTestMessageESt6vectorIS5_SaIS5_EEEdeEv
FN:1099,1100,_ZNK9__gnu_cxx17__normal_iteratorIPN7doctest16SubcaseSignatureESt6vectorIS2_SaIS2_EEEdeEv
FN:1099,1100,_ZNK9__gnu_cxx17__normal_iteratorIPN7doctest6StringESt6vectorIS2_SaIS2_EEEdeEv
FN:1099,1100,_ZNK9__gnu_cxx17__normal_iteratorIPNSt7__cxx1112basic_stringIcSt11char_traitsIcESaIcEEESt6vectorIS6_SaIS6_EEEdeEv
FN:1099,1100,_ZNK9__gnu_cxx17__normal_iteratorIPPKN7doctest12TestCaseDataESt6vectorIS4_SaIS4_EEEdeEv
FN:1099,1100,_ZNK9__gnu_cxx17__normal_iteratorIPPKN7doctest6detail20IExceptionTranslatorESt6vectorIS5_SaIS5_EEEdeEv
FN:1099,1100,_ZNK9__gnu_cxx17__normal_iteratorIPPKN7doctest6detail8TestCaseESt6vectorIS5_SaIS5_EEEdeEv
FN:1099,1100,_ZNK9__gnu_cxx17__normal_iteratorIPPN6merkle5TreeTILm32EXadL_ZNS1_L14sha256_opensslERKNS1_5HashTILm32EEES6_RS4_EEE4NodeESt6vectorISA_SaISA_EEEdeEv
FN:1099,1100,_ZNK9__gnu_cxx17__normal_iteratorIPPN6merkle5TreeTILm32EXadL_ZNS1_L15sha256_compressERKNS1_5HashTILm32EEES6_RS4_EEE4NodeESt6vectorISA_SaISA_EEEdeEv
FN:1099,1100,_ZNK9__gnu_cxx17__normal_iteratorIPPN6merkle5TreeTILm48EXadL_ZNS1_L14sha384_opensslERKNS1_5HashTILm48EEES6_RS4_EEE4NodeESt6vectorISA_SaISA_EEEdeEv
FN:1099,1100,_ZNK9__gnu_cxx17__normal_iteratorIPPN6merkle5TreeTILm64EXadL_ZNS1_L14sha512_opensslERKNS1_5HashTILm64EEES6_RS4_EEE4NodeESt6vectorISA_SaISA_EEEdeEv
FN:1099,1100,_ZNK9__gnu_cxx17__normal_iteratorIPPN7doctest13IContextScopeESt6vectorIS3_SaIS3_EEEdeEv
FN:1099,1100,_ZNK9__gnu_cxx17__normal_iteratorIPPN7doctest9IReporterESt6vectorIS3_SaIS3_EEEdeEv
FN:1099,1100,_ZNK9__gnu_cxx17__normal_iteratorIPSt4fposI11__mbstate_tESt6vectorIS3_SaIS3_EEEdeEv
FN:1099,1100,_ZNK9__gnu_cxx17__normal_iteratorIPSt6vectorIN7doctest6StringESaIS3_EES1_IS5_SaIS5_EEEdeEv
FN:1099,1100,_ZNK9__gnu_cxx17__normal_iteratorIPhSt6vectorIhSaIhEEEdeEv
FN:1109,1113,_ZN9__gnu_cxx17__normal_iteratorIPKN6merkle5HashTILm32EEESt6vectorIS3_SaIS3_EEEppEv
FN:1109,1113,_ZN9__gnu_cxx17__normal_iteratorIPKN6merkle5HashTILm48EEESt6vectorIS3_SaIS3_EEEppEv
FN:1109,1113,_ZN9__gnu_cxx17__normal_iteratorIPKN6merkle5HashTILm64EEESt6vectorIS3_SaIS3_EEEppEv
FN:1109,1113,_ZN9__gnu_cxx17__normal_iteratorIPKN7doctest12_GLOBAL__N_113JUnitReporter17JUnitTestCaseData16JUnitTestMessageESt6vectorIS5_SaIS5_EEEppEv
FN:1109,1113,_ZN9__gnu_cxx17__normal_iteratorIPKN7doctest16SubcaseSignatureESt6vectorIS2_SaIS2_EEEppEv
FN:1109,1113,_ZN9__gnu_cxx17__normal_iteratorIPKN7doctest6StringESt6vectorIS2_SaIS2_EEEppEv
FN:1109,1113,_ZN9__gnu_cxx17__normal_iteratorIPKPN6merkle5TreeTILm32EXadL_ZNS1_L15sha256_compressERKNS1_5HashTILm32EEES6_RS4_EEE4NodeESt6vectorISA_SaISA_EEEppEv
FN:1109,1113,_ZN9__gnu_cxx17__normal_iteratorIPKPN6merkle5TreeTILm48EXadL_ZNS1_L14sha384_opensslERKNS1_5HashTILm48EEES6_RS4_EEE4NodeESt6vectorISA_SaISA_EEEppEv
FN:1109,1113,_ZN9__gnu_cxx17__normal_iteratorIPKPN6merkle5TreeTILm64EXadL_ZNS1_L14sha512_opensslERKNS1_5HashTILm64EEES6_RS4_EEE4NodeESt6vectorISA_SaISA_EEEppEv
FN:1109,1113,_ZN9__gnu_cxx17__normal_iteratorIPN6merkle5HashTILm32EEESt6vectorIS3_SaIS3_EEEppEv
FN:1109,1113,_ZN9__gnu_cxx17__normal_iteratorIPN6merkle5HashTILm48EEESt6vectorIS3_SaIS3_EEEppEv
FN:1109,1113,_ZN9__gnu_cxx17__normal_iteratorIPN6merkle5HashTILm64EEESt6vectorIS3_SaIS3_EEEppEv
FN:1109,1113,_ZN9__gnu_cxx17__normal_iteratorIPN7doctest12_GLOBAL__N_113JUnitReporter17JUnitTestCaseData13JUnitTestCaseESt6vectorIS5_SaIS5_EEEppEv
FN:1109,1113,_ZN9__gnu_cxx17__normal_iteratorIPN7doctest16SubcaseSignatureESt6vectorIS2_SaIS2_EEEppEv
FN:1109,1113,_ZN9__gnu_cxx17__normal_iteratorIPN7doctest6StringESt6vectorIS2_SaIS2_EEEppEv
FN:1109,1113,_ZN9__gnu_cxx17__normal_iteratorIPPKN7doctest6detail20IExceptionTranslatorESt6vectorIS5_SaIS5_EEEppEv
FN:1109,1113,_ZN9__gnu_cxx17__normal_iteratorIPPKN7doctest6detail8TestCaseESt6vectorIS5_SaIS5_EEEppEv
FN:1109,1113,_ZN9__gnu_cxx17__normal_iteratorIPPN6merkle5TreeTILm32EXadL_ZNS1_L14sha256_opensslERKNS1_5HashTILm32EEES6_RS4_EEE4NodeESt6vectorISA_SaISA_EEEppEv
FN:1109,1113,_ZN9__gnu_cxx17__normal_iteratorIPPN6merkle5TreeTILm32EXadL_ZNS1_L15sha256_compressERKNS1_5HashTILm32EEES6_RS4_EEE4NodeESt6vectorISA_SaISA_EEEppEv
FN:1109,1113,_ZN9__gnu_cxx17__normal_iteratorIPPN6merkle5TreeTILm48EXadL_ZNS1_L14sha384_opensslERKNS1_5HashTILm48EEES6_RS4_EEE4NodeESt6vectorISA_SaISA_EEEppEv
FN:1109,1113,_ZN9__gnu_cxx17__normal_iteratorIPPN6merkle5TreeTILm64EXadL_ZNS1_L14sha512_opensslERKNS1_5HashTILm64EEES6_RS4_EEE4NodeESt6vectorISA_SaISA_EEEppEv
FN:1109,1113,_ZN9__gnu_cxx17__normal_iteratorIPPN7doctest9IReporterESt6vectorIS3_SaIS3_EEEppEv
FN:1109,1113,_ZN9__gnu_cxx17__normal_iteratorIPSt6vectorIN7doctest6StringESaIS3_EES1_IS5_SaIS5_EEEppEv
FN:1109,1113,_ZN9__gnu_cxx17__normal_iteratorIPhSt6vectorIhSaIhEEEppEv
FN:1117,1118,_ZN9__gnu_cxx17__normal_iteratorIPKN7doctest16SubcaseSignatureESt6vectorIS2_SaIS2_EEEppEi
FN:1123,1127,_ZN9__gnu_cxx17__normal_iteratorIPPKN7doctest6detail8TestCaseESt6vectorIS5_SaIS5_EEEmmEv
FN:1142,1143,_ZN9__gnu_cxx17__normal_iteratorIPN7doctest16SubcaseSignatureESt6vectorIS2_SaIS2_EEEpLEl
FN:1147,1148,_ZNK9__gnu_cxx17__normal_iteratorIPKN7doctest16SubcaseSignatureESt6vectorIS2_SaIS2_EEEplEl
FN:1147,1148,_ZNK9__gnu_cxx17__normal_iteratorIPN7doctest16SubcaseSignatureESt6vectorIS2_SaIS2_EEEplEl
FN:1147,1148,_ZNK9__gnu_cxx17__normal_iteratorIPPKN7doctest6detail8TestCaseESt6vectorIS5_SaIS5_EEEplEl
FN:1147,1148,_ZNK9__gnu_cxx17__normal_iteratorIPPN6merkle5TreeTILm32EXadL_ZNS1_L15sha256_compressERKNS1_5HashTILm32EEES6_RS4_EEE4NodeESt6vectorISA_SaISA_EEEplEl
FN:1147,1148,_ZNK9__gnu_cxx17__normal_iteratorIPPN6merkle5TreeTILm48EXadL_ZNS1_L14sha384_opensslERKNS1_5HashTILm48EEES6_RS4_EEE4NodeESt6vectorISA_SaISA_EEEplEl
FN:1147,1148,_ZNK9__gnu_cxx17__normal_iteratorIPPN6merkle5TreeTILm64EXadL_ZNS1_L14sha512_opensslERKNS1_5HashTILm64EEES6_RS4_EEE4NodeESt6vectorISA_SaISA_EEEplEl
FN:1147,1148,_ZNK9__gnu_cxx17__normal_iteratorIPPN7doctest9IReporterESt6vectorIS3_SaIS3_EEEplEl
FN:1157,1158,_ZNK9__gnu_cxx17__normal_iteratorIPN6merkle5TreeTILm32EXadL_ZNS1_L14sha256_opensslERKNS1_5HashTILm32EEES6_RS4_EEEUt_ESt6vectorIS9_SaIS9_EEEmiEl
FN:1157,1158,_ZNK9__gnu_cxx17__normal_iteratorIPN6merkle5TreeTILm32EXadL_ZNS1_L15sha256_compressERKNS1_5HashTILm32EEES6_RS4_EEEUt_ESt6vectorIS9_SaIS9_EEEmiEl
FN:1157,1158,_ZNK9__gnu_cxx17__normal_iteratorIPN6merkle5TreeTILm48EXadL_ZNS1_L14sha384_opensslERKNS1_5HashTILm48EEES6_RS4_EEEUt_ESt6vectorIS9_SaIS9_EEEmiEl
FN:1157,1158,_ZNK9__gnu_cxx17__normal_iteratorIPN6merkle5TreeTILm64EXadL_ZNS1_L14sha512_opensslERKNS1_5HashTILm64EEES6_RS4_EEEUt_ESt6vectorIS9_SaIS9_EEEmiEl
FN:1157,1158,_ZNK9__gnu_cxx17__normal_iteratorIPN7doctest12_GLOBAL__N_113JUnitReporter17JUnitTestCaseData13JUnitTestCaseESt6vectorIS5_SaIS5_EEEmiEl
FN:1157,1158,_ZNK9__gnu_cxx17__normal_iteratorIPN7doctest12_GLOBAL__N_113JUnitReporter17JUnitTestCaseData16JUnitTestMessageESt6vectorIS5_SaIS5_EEEmiEl
FN:1157,1158,_ZNK9__gnu_cxx17__normal_iteratorIPN7doctest6StringESt6vectorIS2_SaIS2_EEEmiEl
FN:1157,1158,_ZNK9__gnu_cxx17__normal_iteratorIPNSt7__cxx1112basic_stringIcSt11char_traitsIcESaIcEEESt6vectorIS6_SaIS6_EEEmiEl
FN:1157,1158,_ZNK9__gnu_cxx17__normal_iteratorIPPKN7doctest12TestCaseDataESt6vectorIS4_SaIS4_EEEmiEl
FN:1157,1158,_ZNK9__gnu_cxx17__normal_iteratorIPPKN7doctest6detail8TestCaseESt6vectorIS5_SaIS5_EEEmiEl
FN:1157,1158,_ZNK9__gnu_cxx17__normal_iteratorIPPN6merkle5TreeTILm32EXadL_ZNS1_L14sha256_opensslERKNS1_5HashTILm32EEES6_RS4_EEE4NodeESt6vectorISA_SaISA_EEEmiEl
FN:1157,1158,_ZNK9__gnu_cxx17__normal_iteratorIPPN6merkle5TreeTILm32EXadL_ZNS1_L15sha256_compressERKNS1_5HashTILm32EEES6_RS4_EEE4NodeESt6vectorISA_SaISA_EEEmiEl
FN:1157,1158,_ZNK9__gnu_cxx17__normal_iteratorIPPN6merkle5TreeTILm48EXadL_ZNS1_L14sha384_opensslERKNS1_5HashTILm48EEES6_RS4_EEE4NodeESt6vectorISA_SaISA_EEEmiEl
FN:1157,1158,_ZNK9__gnu_cxx17__normal_iteratorIPPN6merkle5TreeTILm64EXadL_ZNS1_L14sha512_opensslERKNS1_5HashTILm64EEES6_RS4_EEE4NodeESt6vectorISA_SaISA_EEEmiEl
FN:1157,1158,_ZNK9__gnu_cxx17__normal_iteratorIPPN7doctest13IContextScopeESt6vectorIS3_SaIS3_EEEmiEl
FN:1157,1158,_ZNK9__gnu_cxx17__normal_iteratorIPPN7doctest9IReporterESt6vectorIS3_SaIS3_EEEmiEl
FN:1157,1158,_ZNK9__gnu_cxx17__normal_iteratorIPSt4fposI11__mbstate_tESt6vectorIS3_SaIS3_EEEmiEl
FN:1157,1158,_ZNK9__gnu_cxx17__normal_iteratorIPhSt6vectorIhSaIhEEEmiEl
FN:1162,1163,_ZNK9__gnu_cxx17__normal_iteratorIPKN6merkle5HashTILm32EEESt6vectorIS3_SaIS3_EEE4baseEv
FN:1162,1163,_ZNK9__gnu_cxx17__normal_iteratorIPKN6merkle5HashTILm48EEESt6vectorIS3_SaIS3_EEE4baseEv
FN:1162,1163,_ZNK9__gnu_cxx17__normal_iteratorIPKN6merkle5HashTILm64EEESt6vectorIS3_SaIS3_EEE4baseEv
FN:1162,1163,_ZNK9__gnu_cxx17__normal_iteratorIPKN6merkle5TreeTILm32EXadL_ZNS1_L14sha256_opensslERKNS1_5HashTILm32EEES6_RS4_EEEUt_ESt6vectorIS9_SaIS9_EEE4baseEv
FN:1162,1163,_ZNK9__gnu_cxx17__normal_iteratorIPKN6merkle5TreeTILm32EXadL_ZNS1_L15sha256_compressERKNS1_5HashTILm32EEES6_RS4_EEEUt_ESt6vectorIS9_SaIS9_EEE4baseEv
FN:1162,1163,_ZNK9__gnu_cxx17__normal_iteratorIPKN6merkle5TreeTILm48EXadL_ZNS1_L14sha384_opensslERKNS1_5HashTILm48EEES6_RS4_EEEUt_ESt6vectorIS9_SaIS9_EEE4baseEv
FN:1162,1163,_ZNK9__gnu_cxx17__normal_iteratorIPKN6merkle5TreeTILm64EXadL_ZNS1_L14sha512_opensslERKNS1_5HashTILm64EEES6_RS4_EEEUt_ESt6vectorIS9_SaIS9_EEE4baseEv
FN:1162,1163,_ZNK9__gnu_cxx17__normal_iteratorIPKN7doctest12_GLOBAL__N_113JUnitReporter17JUnitTestCaseData16JUnitTestMessageESt6vectorIS5_SaIS5_EEE4baseEv
FN:1162,1163,_ZNK9__gnu_cxx17__normal_iteratorIPKN7doctest16SubcaseSignatureESt6vectorIS2_SaIS2_EEE4baseEv
FN:1162,1163,_ZNK9__gnu_cxx17__normal_iteratorIPKN7doctest6StringESt6vectorIS2_SaIS2_EEE4baseEv
FN:1162,1163,_ZNK9__gnu_cxx17__normal_iteratorIPKNSt7__cxx1112basic_stringIcSt11char_traitsIcESaIcEEESt6vectorIS6_SaIS6_EEE4baseEv
FN:1162,1163,_ZNK9__gnu_cxx17__normal_iteratorIPKPKN7doctest6detail8TestCaseESt6vectorIS5_SaIS5_EEE4baseEv
FN:1162,1163,_ZNK9__gnu_cxx17__normal_iteratorIPKPN6merkle5TreeTILm32EXadL_ZNS1_L14sha256_opensslERKNS1_5HashTILm32EEES6_RS4_EEE4NodeESt6vectorISA_SaISA_EEE4baseEv
FN:1162,1163,_ZNK9__gnu_cxx17__normal_iteratorIPKPN6merkle5TreeTILm32EXadL_ZNS1_L15sha256_compressERKNS1_5HashTILm32EEES6_RS4_EEE4NodeESt6vectorISA_SaISA_EEE4baseEv
FN:1162,1163,_ZNK9__gnu_cxx17__normal_iteratorIPKPN6merkle5TreeTILm48EXadL_ZNS1_L14sha384_opensslERKNS1_5HashTILm48EEES6_RS4_EEE4NodeESt6vectorISA_SaISA_EEE4baseEv
FN:1162,1163,_ZNK9__gnu_cxx17__normal_iteratorIPKPN6merkle5TreeTILm64EXadL_ZNS1_L14sha512_opensslERKNS1_5HashTILm64EEES6_RS4_EEE4NodeESt6vectorISA_SaISA_EEE4baseEv
FN:1162,1163,_ZNK9__gnu_cxx17__normal_iteratorIPKPN7doctest9IReporterESt6vectorIS3_SaIS3_EEE4baseEv
FN:1162,1163,_ZNK9__gnu_cxx17__normal_iteratorIPKSt4fposI11__mbstate_tESt6vectorIS3_SaIS3_EEE4baseEv
FN:1162,1163,_ZNK9__gnu_cxx17__normal_iteratorIPN6merkle5HashTILm32EEESt6vectorIS3_SaIS3_EEE4baseEv
FN:1162,1163,_ZNK9__gnu_cxx17__normal_iteratorIPN6merkle5HashTILm48EEESt6vectorIS3_SaIS3_EEE4baseEv
FN:1162,1163,_ZNK9__gnu_cxx17__normal_iteratorIPN6merkle5HashTILm64EEESt6vectorIS3_SaIS3_EEE4baseEv
FN:1162,1163,_ZNK9__gnu_cxx17__normal_iteratorIPN6merkle5TreeTILm32EXadL_ZNS1_L14sha256_opensslERKNS1_5HashTILm32EEES6_RS4_EEEUt_ESt6vectorIS9_SaIS9_EEE4baseEv
FN:1162,1163,_ZNK9__gnu_cxx17__normal_iteratorIPN6merkle5TreeTILm32EXadL_ZNS1_L15sha256_compressERKNS1_5HashTILm32EEES6_RS4_EEEUt_ESt6vectorIS9_SaIS9_EEE4baseEv
FN:1162,1163,_ZNK9__gnu_cxx17__normal_iteratorIPN6merkle5TreeTILm48EXadL_ZNS1_L14sha384_opensslERKNS1_5HashTILm48EEES6_RS4_EEEUt_ESt6vectorIS9_SaIS9_EEE4baseEv
FN:1162,1163,_ZNK9__gnu_cxx17__normal_iteratorIPN6merkle5TreeTILm64EXadL_ZNS1_L14sha512_opensslERKNS1_5HashTILm64EEES6_RS4_EEEUt_ESt6vectorIS9_SaIS9_EEE4baseEv
FN:1162,1163,_ZNK9__gnu_cxx17__normal_iteratorIPN7doctest12_GLOBAL__N_113JUnitReporter17JUnitTestCaseData13JUnitTestCaseESt6vectorIS5_SaIS5_EEE4baseEv
FN:1162,1163,_ZNK9__gnu_cxx17__normal_iteratorIPN7doctest12_GLOBAL__N_113JUnitReporter17JUnitTestCaseData16JUnitTestMessageESt6vectorIS5_SaIS5_EEE4baseEv
FN:1162,1163,_ZNK9__gnu_cxx17__normal_iteratorIPN7doctest16SubcaseSignatureESt6vectorIS2_SaIS2_EEE4baseEv
FN:1162,1163,_ZNK9__gnu_cxx17__normal_iteratorIPN7doctest6StringESt6vectorIS2_SaIS2_EEE4baseEv
FN:1162,1163,_ZNK9__gnu_cxx17__normal_iteratorIPNSt7__cxx1112basic_stringIcSt11char_traitsIcESaIcEEESt6vectorIS6_SaIS6_EEE4baseEv
FN:1162,1163,_ZNK9__gnu_cxx17__normal_iteratorIPPKN7doctest12TestCaseDataESt6vectorIS4_SaIS4_EEE4baseEv
FN:1162,1163,_ZNK9__gnu_cxx17__normal_iteratorIPPKN7doctest6detail20IExceptionTranslatorESt6vectorIS5_SaIS5_EEE4baseEv
FN:1162,1163,_ZNK9__gnu_cxx17__normal_iteratorIPPKN7doctest6detail8TestCaseESt6vectorIS5_SaIS5_EEE4baseEv
FN:1162,1163,_ZNK9__gnu_cxx17__normal_iteratorIPPN6merkle5TreeTILm32EXadL_ZNS1_L14sha256_opensslERKNS1_5HashTILm32EEES6_RS4_EEE4NodeESt6vectorISA_SaISA_EEE4baseEv
FN:1162,1163,_ZNK9__gnu_cxx17__normal_iteratorIPPN6merkle5TreeTILm32EXadL_ZNS1_L15sha256_compressERKNS1_5HashTILm32EEES6_RS4_EEE4NodeESt6vectorISA_SaISA_EEE4baseEv
FN:1162,1163,_ZNK9__gnu_cxx17__normal_iteratorIPPN6merkle5TreeTILm48EXadL_ZNS1_L14sha384_opensslERKNS1_5HashTILm48EEES6_RS4_EEE4NodeESt6vectorISA_SaISA_EEE4baseEv
FN:1162,1163,_ZNK9__gnu_cxx17__normal_iteratorIPPN6merkle5TreeTILm64EXadL_ZNS1_L14sha512_opensslERKNS1_5HashTILm64EEES6_RS4_EEE4NodeESt6vectorISA_SaISA_EEE4baseEv
FN:1162,1163,_ZNK9__gnu_cxx17__normal_iteratorIPPN7doctest13IContextScopeESt6vectorIS3_SaIS3_EEE4baseEv
FN:1162,1163,_ZNK9__gnu_cxx17__normal_iteratorIPPN7doctest9IReporterESt6vectorIS3_SaIS3_EEE4baseEv
FN:1162,1163,_ZNK9__gnu_cxx17__normal_iteratorIPSt4fposI11__mbstate_tESt6vectorIS3_SaIS3_EEE4baseEv
FN:1162,1163,_ZNK9__gnu_cxx17__normal_iteratorIPSt6vectorIN7doctest6StringESaIS3_EES1_IS5_SaIS5_EEE4baseEv
FN:1162,1163,_ZNK9__gnu_cxx17__normal_iteratorIPhSt6vectorIhSaIhEEE4baseEv
FN:1217,1220,_ZN9__gnu_cxxeqIPKPN6merkle5TreeTILm32EXadL_ZNS1_L15sha256_compressERKNS1_5HashTILm32EEES6_RS4_EEE4NodeEPSA_St6vectorISA_SaISA_EEEEbRKNS_17__normal_iteratorIT_T1_EERKNSH_IT0_SJ_EE
FN:1217,1220,_ZN9__gnu_cxxeqIPKPN6merkle5TreeTILm48EXadL_ZNS1_L14sha384_opensslERKNS1_5HashTILm48EEES6_RS4_EEE4NodeEPSA_St6vectorISA_SaISA_EEEEbRKNS_17__normal_iteratorIT_T1_EERKNSH_IT0_SJ_EE
FN:1217,1220,_ZN9__gnu_cxxeqIPKPN6merkle5TreeTILm64EXadL_ZNS1_L14sha512_opensslERKNS1_5HashTILm64EEES6_RS4_EEE4NodeEPSA_St6vectorISA_SaISA_EEEEbRKNS_17__normal_iteratorIT_T1_EERKNSH_IT0_SJ_EE
FN:1225,1228,_ZN9__gnu_cxxeqIPKN6merkle5TreeTILm32EXadL_ZNS1_L14sha256_opensslERKNS1_5HashTILm32EEES6_RS4_EEEUt_ESt6vectorIS9_SaIS9_EEEEbRKNS_17__normal_iteratorIT_T0_EESK_
FN:1225,1228,_ZN9__gnu_cxxeqIPKN6merkle5TreeTILm32EXadL_ZNS1_L15sha256_compressERKNS1_5HashTILm32EEES6_RS4_EEEUt_ESt6vectorIS9_SaIS9_EEEEbRKNS_17__normal_iteratorIT_T0_EESK_
FN:1225,1228,_ZN9__gnu_cxxeqIPKN6merkle5TreeTILm48EXadL_ZNS1_L14sha384_opensslERKNS1_5HashTILm48EEES6_RS4_EEEUt_ESt6vectorIS9_SaIS9_EEEEbRKNS_17__normal_iteratorIT_T0_EESK_
FN:1225,1228,_ZN9__gnu_cxxeqIPKN6merkle5TreeTILm64EXadL_ZNS1_L14sha512_opensslERKNS1_5HashTILm64EEES6_RS4_EEEUt_ESt6vectorIS9_SaIS9_EEEEbRKNS_17__normal_iteratorIT_T0_EESK_
FN:1225,1228,_ZN9__gnu_cxxeqIPKN7doctest16SubcaseSignatureESt6vectorIS2_SaIS2_EEEEbRKNS_17__normal_iteratorIT_T0_EESD_
FN:1225,1228,_ZN9__gnu_cxxeqIPKN7doctest6StringESt6vectorIS2_SaIS2_EEEEbRKNS_17__normal_iteratorIT_T0_EESD_
FN:1225,1228,_ZN9__gnu_cxxeqIPKNSt7__cxx1112basic_stringIcSt11char_traitsIcESaIcEEESt6vectorIS6_SaIS6_EEEEbRKNS_17__normal_iteratorIT_T0_EESH_
FN:1225,1228,_ZN9__gnu_cxxeqIPKPKN7doctest6detail8TestCaseESt6vectorIS5_SaIS5_EEEEbRKNS_17__normal_iteratorIT_T0_EESG_
FN:1225,1228,_ZN9__gnu_cxxeqIPKPN6merkle5TreeTILm32EXadL_ZNS1_L14sha256_opensslERKNS1_5HashTILm32EEES6_RS4_EEE4NodeESt6vectorISA_SaISA_EEEEbRKNS_17__normal_iteratorIT_T0_EESL_
FN:1225,1228,_ZN9__gnu_cxxeqIPKPN6merkle5TreeTILm32EXadL_ZNS1_L15sha256_compressERKNS1_5HashTILm32EEES6_RS4_EEE4NodeESt6vectorISA_SaISA_EEEEbRKNS_17__normal_iteratorIT_T0_EESL_
FN:1225,1228,_ZN9__gnu_cxxeqIPKPN6merkle5TreeTILm48EXadL_ZNS1_L14sha384_opensslERKNS1_5HashTILm48EEES6_RS4_EEE4NodeESt6vectorISA_SaISA_EEEEbRKNS_17__normal_iteratorIT_T0_EESL_
FN:1225,1228,_ZN9__gnu_cxxeqIPKPN6merkle5TreeTILm64EXadL_ZNS1_L14sha512_opensslERKNS1_5HashTILm64EEES6_RS4_EEE4NodeESt6vectorISA_SaISA_EEEEbRKNS_17__normal_iteratorIT_T0_EESL_
FN:1225,1228,_ZN9__gnu_cxxeqIPKPN7doctest9IReporterESt6vectorIS3_SaIS3_EEEEbRKNS_17__normal_iteratorIT_T0_EESE_
FN:1225,1228,_ZN9__gnu_cxxeqIPKSt4fposI11__mbstate_tESt6vectorIS3_SaIS3_EEEEbRKNS_17__normal_iteratorIT_T0_EESE_
FN:1225,1228,_ZN9__gnu_cxxeqIPPKN7doctest6detail20IExceptionTranslatorESt6vectorIS5_SaIS5_EEEEbRKNS_17__normal_iteratorIT_T0_EESF_
FN:1225,1228,_ZN9__gnu_cxxeqIPPKN7doctest6detail8TestCaseESt6vectorIS5_SaIS5_EEEEbRKNS_17__normal_iteratorIT_T0_EESF_
FN:1241,1244,_ZN9__gnu_cxxneIPKN6merkle5HashTILm32EEESt6vectorIS3_SaIS3_EEEEbRKNS_17__normal_iteratorIT_T0_EESE_
FN:1241,1244,_ZN9__gnu_cxxneIPKN6merkle5HashTILm48EEESt6vectorIS3_SaIS3_EEEEbRKNS_17__normal_iteratorIT_T0_EESE_
FN:1241,1244,_ZN9__gnu_cxxneIPKN6merkle5HashTILm64EEESt6vectorIS3_SaIS3_EEEEbRKNS_17__normal_iteratorIT_T0_EESE_
FN:1241,1244,_ZN9__gnu_cxxneIPKN7doctest12_GLOBAL__N_113JUnitReporter17JUnitTestCaseData16JUnitTestMessageESt6vectorIS5_SaIS5_EEEEbRKNS_17__normal_iteratorIT_T0_EESG_
FN:1241,1244,_ZN9__gnu_cxxneIPKN7doctest16SubcaseSignatureESt6vectorIS2_SaIS2_EEEEbRKNS_17__normal_iteratorIT_T0_EESD_
FN:1241,1244,_ZN9__gnu_cxxneIPKN7doctest6StringESt6vectorIS2_SaIS2_EEEEbRKNS_17__normal_iteratorIT_T0_EESD_
FN:1241,1244,_ZN9__gnu_cxxneIPKPN6merkle5TreeTILm32EXadL_ZNS1_L15sha256_compressERKNS1_5HashTILm32EEES6_RS4_EEE4NodeESt6vectorISA_SaISA_EEEEbRKNS_17__normal_iteratorIT_T0_EESL_
FN:1241,1244,_ZN9__gnu_cxxneIPKPN6merkle5TreeTILm48EXadL_ZNS1_L14sha384_opensslERKNS1_5HashTILm48EEES6_RS4_EEE4NodeESt6vectorISA_SaISA_EEEEbRKNS_17__normal_iteratorIT_T0_EESL_
FN:1241,1244,_ZN9__gnu_cxxneIPKPN6merkle5TreeTILm64EXadL_ZNS1_L14sha512_opensslERKNS1_5HashTILm64EEES6_RS4_EEE4NodeESt6vectorISA_SaISA_EEEEbRKNS_17__normal_iteratorIT_T0_EESL_
FN:1241,1244,_ZN9__gnu_cxxneIPN6merkle5HashTILm32EEESt6vectorIS3_SaIS3_EEEEbRKNS_17__normal_iteratorIT_T0_EESD_
FN:1241,1244,_ZN9__gnu_cxxneIPN6merkle5HashTILm48EEESt6vectorIS3_SaIS3_EEEEbRKNS_17__normal_iteratorIT_T0_EESD_
FN:1241,1244,_ZN9__gnu_cxxneIPN6merkle5HashTILm64EEESt6vectorIS3_SaIS3_EEEEbRKNS_17__normal_iteratorIT_T0_EESD_
FN:1241,1244,_ZN9__gnu_cxxneIPN7doctest12_GLOBAL__N_113JUnitReporter17JUnitTestCaseData13JUnitTestCaseESt6vectorIS5_SaIS5_EEEEbRKNS_17__normal_iteratorIT_T0_EESF_
FN:1241,1244,_ZN9__gnu_cxxneIPN7doctest16SubcaseSignatureESt6vectorIS2_SaIS2_EEEEbRKNS_17__normal_iteratorIT_T0_EESC_
FN:1241,1244,_ZN9__gnu_cxxneIPN7doctest6StringESt6vectorIS2_SaIS2_EEEEbRKNS_17__normal_iteratorIT_T0_EESC_
FN:1241,1244,_ZN9__gnu_cxxneIPPKN7doctest6detail20IExceptionTranslatorESt6vectorIS5_SaIS5_EEEEbRKNS_17__normal_iteratorIT_T0_EESF_
FN:1241,1244,_ZN9__gnu_cxxneIPPKN7doctest6detail8TestCaseESt6vectorIS5_SaIS5_EEEEbRKNS_17__normal_iteratorIT_T0_EESF_
FN:1241,1244,_ZN9__gnu_cxxneIPPN6merkle5TreeTILm32EXadL_ZNS1_L14sha256_opensslERKNS1_5HashTILm32EEES6_RS4_EEE4NodeESt6vectorISA_SaISA_EEEEbRKNS_17__normal_iteratorIT_T0_EESK_
FN:1241,1244,_ZN9__gnu_cxxneIPPN6merkle5TreeTILm32EXadL_ZNS1_L15sha256_compressERKNS1_5HashTILm32EEES6_RS4_EEE4NodeESt6vectorISA_SaISA_EEEEbRKNS_17__normal_iteratorIT_T0_EESK_
FN:1241,1244,_ZN9__gnu_cxxneIPPN6merkle5TreeTILm48EXadL_ZNS1_L14sha384_opensslERKNS1_5HashTILm48EEES6_RS4_EEE4NodeESt6vectorISA_SaISA_EEEEbRKNS_17__normal_iteratorIT_T0_EESK_
FN:1241,1244,_ZN9__gnu_cxxneIPPN6merkle5TreeTILm64EXadL_ZNS1_L14sha512_opensslERKNS1_5HashTILm64EEES6_RS4_EEE4NodeESt6vectorISA_SaISA_EEEEbRKNS_17__normal_iteratorIT_T0_EESK_
FN:1241,1244,_ZN9__gnu_cxxneIPPN7doctest9IReporterESt6vectorIS3_SaIS3_EEEEbRKNS_17__normal_iteratorIT_T0_EESD_
FN:1241,1244,_ZN9__gnu_cxxneIPSt6vectorIN7doctest6StringESaIS3_EES1_IS5_SaIS5_EEEEbRKNS_17__normal_iteratorIT_T0_EESE_
FN:1241,1244,_ZN9__gnu_cxxneIPhSt6vectorIhSaIhEEEEbRKNS_17__normal_iteratorIT_T0_EESA_
FN:1258,1261,_ZN9__gnu_cxxltIPPKN7doctest6detail8TestCaseESt6vectorIS5_SaIS5_EEEEbRKNS_17__normal_iteratorIT_T0_EESF_
FN:1321,1329,_ZN9__gnu_cxxmiIPKPN6merkle5TreeTILm32EXadL_ZNS1_L15sha256_compressERKNS1_5HashTILm32EEES6_RS4_EEE4NodeEPSA_St6vectorISA_SaISA_EEEEDTmicldtfp_4baseEcldtfp0_4baseEERKNS_17__normal_iteratorIT_T1_EERKNSI_IT0_SK_EE
FN:1321,1329,_ZN9__gnu_cxxmiIPKPN6merkle5TreeTILm48EXadL_ZNS1_L14sha384_opensslERKNS1_5HashTILm48EEES6_RS4_EEE4NodeEPSA_St6vectorISA_SaISA_EEEEDTmicldtfp_4baseEcldtfp0_4baseEERKNS_17__normal_iteratorIT_T1_EERKNSI_IT0_SK_EE
FN:1321,1329,_ZN9__gnu_cxxmiIPKPN6merkle5TreeTILm64EXadL_ZNS1_L14sha512_opensslERKNS1_5HashTILm64EEES6_RS4_EEE4NodeEPSA_St6vectorISA_SaISA_EEEEDTmicldtfp_4baseEcldtfp0_4baseEERKNS_17__normal_iteratorIT_T1_EERKNSI_IT0_SK_EE
FN:1334,1337,_ZN9__gnu_cxxmiIPKN7doctest16SubcaseSignatureESt6vectorIS2_SaIS2_EEEENS_17__normal_iteratorIT_T0_E15difference_typeERKSB_SE_
FN:1334,1337,_ZN9__gnu_cxxmiIPKPN6merkle5TreeTILm32EXadL_ZNS1_L15sha256_compressERKNS1_5HashTILm32EEES6_RS4_EEE4NodeESt6vectorISA_SaISA_EEEENS_17__normal_iteratorIT_T0_E15difference_typeERKSJ_SM_
FN:1334,1337,_ZN9__gnu_cxxmiIPKPN6merkle5TreeTILm48EXadL_ZNS1_L14sha384_opensslERKNS1_5HashTILm48EEES6_RS4_EEE4NodeESt6vectorISA_SaISA_EEEENS_17__normal_iteratorIT_T0_E15difference_typeERKSJ_SM_
FN:1334,1337,_ZN9__gnu_cxxmiIPKPN6merkle5TreeTILm64EXadL_ZNS1_L14sha512_opensslERKNS1_5HashTILm64EEES6_RS4_EEE4NodeESt6vectorISA_SaISA_EEEENS_17__normal_iteratorIT_T0_E15difference_typeERKSJ_SM_
FN:1334,1337,_ZN9__gnu_cxxmiIPKPN7doctest9IReporterESt6vectorIS3_SaIS3_EEEENS_17__normal_iteratorIT_T0_E15difference_typeERKSC_SF_
FN:1334,1337,_ZN9__gnu_cxxmiIPN6merkle5HashTILm32EEESt6vectorIS3_SaIS3_EEEENS_17__normal_iteratorIT_T0_E15difference_typeERKSB_SE_
FN:1334,1337,_ZN9__gnu_cxxmiIPN6merkle5HashTILm48EEESt6vectorIS3_SaIS3_EEEENS_17__normal_iteratorIT_T0_E15difference_typeERKSB_SE_
FN:1334,1337,_ZN9__gnu_cxxmiIPN6merkle5HashTILm64EEESt6vectorIS3_SaIS3_EEEENS_17__normal_iteratorIT_T0_E15difference_typeERKSB_SE_
FN:1334,1337,_ZN9__gnu_cxxmiIPN6merkle5TreeTILm32EXadL_ZNS1_L14sha256_opensslERKNS1_5HashTILm32EEES6_RS4_EEEUt_ESt6vectorIS9_SaIS9_EEEENS_17__normal_iteratorIT_T0_E15difference_typeERKSH_SK_
FN:1334,1337,_ZN9__gnu_cxxmiIPN6merkle5TreeTILm32EXadL_ZNS1_L15sha256_compressERKNS1_5HashTILm32EEES6_RS4_EEEUt_ESt6vectorIS9_SaIS9_EEEENS_17__normal_iteratorIT_T0_E15difference_typeERKSH_SK_
FN:1334,1337,_ZN9__gnu_cxxmiIPN6merkle5TreeTILm48EXadL_ZNS1_L14sha384_opensslERKNS1_5HashTILm48EEES6_RS4_EEEUt_ESt6vectorIS9_SaIS9_EEEENS_17__normal_iteratorIT_T0_E15difference_typeERKSH_SK_
FN:1334,1337,_ZN9__gnu_cxxmiIPN6merkle5TreeTILm64EXadL_ZNS1_L14sha512_opensslERKNS1_5HashTILm64EEES6_RS4_EEEUt_ESt6vectorIS9_SaIS9_EEEENS_17__normal_iteratorIT_T0_E15difference_typeERKSH_SK_
FN:1334,1337,_ZN9__gnu_cxxmiIPN7doctest12_GLOBAL__N_113JUnitReporter17JUnitTestCaseData13JUnitTestCaseESt6vectorIS5_SaIS5_EEEENS_17__normal_iteratorIT_T0_E15difference_typeERKSD_SG_
FN:1334,1337,_ZN9__gnu_cxxmiIPN7doctest12_GLOBAL__N_113JUnitReporter17JUnitTestCaseData16JUnitTestMessageESt6vectorIS5_SaIS5_EEEENS_17__normal_iteratorIT_T0_E15difference_typeERKSD_SG_
FN:1334,1337,_ZN9__gnu_cxxmiIPN7doctest16SubcaseSignatureESt6vectorIS2_SaIS2_EEEENS_17__normal_iteratorIT_T0_E15difference_typeERKSA_SD_
FN:1334,1337,_ZN9__gnu_cxxmiIPN7doctest6StringESt6vectorIS2_SaIS2_EEEENS_17__normal_iteratorIT_T0_E15difference_typeERKSA_SD_
FN:1334,1337,_ZN9__gnu_cxxmiIPNSt7__cxx1112basic_stringIcSt11char_traitsIcESaIcEEESt6vectorIS6_SaIS6_EEEENS_17__normal_iteratorIT_T0_E15difference_typeERKSE_SH_
FN:1334,1337,_ZN9__gnu_cxxmiIPPKN7doctest12TestCaseDataESt6vectorIS4_SaIS4_EEEENS_17__normal_iteratorIT_T0_E15difference_typeERKSC_SF_
FN:1334,1337,_ZN9__gnu_cxxmiIPPKN7doctest6detail20IExceptionTranslatorESt6vectorIS5_SaIS5_EEEENS_17__normal_iteratorIT_T0_E15difference_typeERKSD_SG_
FN:1334,1337,_ZN9__gnu_cxxmiIPPKN7doctest6detail8TestCaseESt6vectorIS5_SaIS5_EEEENS_17__normal_iteratorIT_T0_E15difference_typeERKSD_SG_
FN:1334,1337,_ZN9__gnu_cxxmiIPPN6merkle5TreeTILm32EXadL_ZNS1_L14sha256_opensslERKNS1_5HashTILm32EEES6_RS4_EEE4NodeESt6vectorISA_SaISA_EEEENS_17__normal_iteratorIT_T0_E15difference_typeERKSI_SL_
FN:1334,1337,_ZN9__gnu_cxxmiIPPN6merkle5TreeTILm32EXadL_ZNS1_L15sha256_compressERKNS1_5HashTILm32EEES6_RS4_EEE4NodeESt6vectorISA_SaISA_EEEENS_17__normal_iteratorIT_T0_E15difference_typeERKSI_SL_
FN:1334,1337,_ZN9__gnu_cxxmiIPPN6merkle5TreeTILm48EXadL_ZNS1_L14sha384_opensslERKNS1_5HashTILm48EEES6_RS4_EEE4NodeESt6vectorISA_SaISA_EEEENS_17__normal_iteratorIT_T0_E15difference_typeERKSI_SL_
FN:1334,1337,_ZN9__gnu_cxxmiIPPN6merkle5TreeTILm64EXadL_ZNS1_L14sha512_opensslERKNS1_5HashTILm64EEES6_RS4_EEE4NodeESt6vectorISA_SaISA_EEEENS_17__normal_iteratorIT_T0_E15difference_typeERKSI_SL_
FN:1334,1337,_ZN9__gnu_cxxmiIPPN7doctest13IContextScopeESt6vectorIS3_SaIS3_EEEENS_17__normal_iteratorIT_T0_E15difference_typeERKSB_SE_
FN:1334,1337,_ZN9__gnu_cxxmiIPPN7doctest9IReporterESt6vectorIS3_SaIS3_EEEENS_17__normal_iteratorIT_T0_E15difference_typeERKSB_SE_
FN:1334,1337,_ZN9__gnu_cxxmiIPSt4fposI11__mbstate_tESt6vectorIS3_SaIS3_EEEENS_17__normal_iteratorIT_T0_E15difference_typeERKSB_SE_
FN:1334,1337,_ZN9__gnu_cxxmiIPhSt6vectorIhSaIhEEEENS_17__normal_iteratorIT_T0_E15difference_typeERKS8_SB_
FN:1357,1359,_ZSt12__niter_baseIPKPN6merkle5TreeTILm32EXadL_ZNS0_L15sha256_compressERKNS0_5HashTILm32EEES5_RS3_EEE4NodeESt6vectorIS9_SaIS9_EEET_N9__gnu_cxx17__normal_iteratorISF_T0_EE
FN:1357,1359,_ZSt12__niter_baseIPKPN6merkle5TreeTILm48EXadL_ZNS0_L14sha384_opensslERKNS0_5HashTILm48EEES5_RS3_EEE4NodeESt6vectorIS9_SaIS9_EEET_N9__gnu_cxx17__normal_iteratorISF_T0_EE
FN:1357,1359,_ZSt12__niter_baseIPKPN6merkle5TreeTILm64EXadL_ZNS0_L14sha512_opensslERKNS0_5HashTILm64EEES5_RS3_EEE4NodeESt6vectorIS9_SaIS9_EEET_N9__gnu_cxx17__normal_iteratorISF_T0_EE
FN:1357,1359,_ZSt12__niter_baseIPN7doctest16SubcaseSignatureESt6vectorIS1_SaIS1_EEET_N9__gnu_cxx17__normal_iteratorIS6_T0_EE
FN:1357,1359,_ZSt12__niter_baseIPPKN7doctest6detail8TestCaseESt6vectorIS4_SaIS4_EEET_N9__gnu_cxx17__normal_iteratorIS9_T0_EE
FN:1357,1359,_ZSt12__niter_baseIPPN6merkle5TreeTILm32EXadL_ZNS0_L15sha256_compressERKNS0_5HashTILm32EEES5_RS3_EEE4NodeESt6vectorIS9_SaIS9_EEET_N9__gnu_cxx17__normal_iteratorISE_T0_EE
FN:1357,1359,_ZSt12__niter_baseIPPN6merkle5TreeTILm48EXadL_ZNS0_L14sha384_opensslERKNS0_5HashTILm48EEES5_RS3_EEE4NodeESt6vectorIS9_SaIS9_EEET_N9__gnu_cxx17__normal_iteratorISE_T0_EE
FN:1357,1359,_ZSt12__niter_baseIPPN6merkle5TreeTILm64EXadL_ZNS0_L14sha512_opensslERKNS0_5HashTILm64EEES5_RS3_EEE4NodeESt6vectorIS9_SaIS9_EEET_N9__gnu_cxx17__normal_iteratorISE_T0_EE
FN:1519,1520,_ZNSt13move_iteratorIPN7doctest16SubcaseSignatureEEC2ES2_
FN:1545,1546,_ZNKSt13move_iteratorIPN7doctest16SubcaseSignatureEE4baseEv
FN:1561,1565,_ZNKSt13move_iteratorIPN7doctest16SubcaseSignatureEEdeEv
FN:1574,1578,_ZNSt13move_iteratorIPN7doctest16SubcaseSignatureEEppEv
FN:1748,1750,_ZSteqIPN7doctest16SubcaseSignatureEEbRKSt13move_iteratorIT_ES7_
FN:1763,1765,_ZStneIPN7doctest16SubcaseSignatureEEbRKSt13move_iteratorIT_ES7_
FN:1815,1816,_ZSt18make_move_iteratorIPN7doctest16SubcaseSignatureEESt13move_iteratorIT_ES4_
FN:1832,1833,_ZSt32__make_move_if_noexcept_iteratorIN7doctest16SubcaseSignatureESt13move_iteratorIPS1_EET0_PT_
FN:195,198,_ZNSt16reverse_iteratorISt14_List_iteratorIN6merkle5PathTILm32EXadL_ZNS1_L15sha256_compressERKNS1_5HashTILm32EEES6_RS4_EEEUt0_EEEC2ESA_
FN:195,198,_ZNSt16reverse_iteratorISt14_List_iteratorIN6merkle5PathTILm48EXadL_ZNS1_L14sha384_opensslERKNS1_5HashTILm48EEES6_RS4_EEEUt0_EEEC2ESA_
FN:195,198,_ZNSt16reverse_iteratorISt14_List_iteratorIN6merkle5PathTILm64EXadL_ZNS1_L14sha512_opensslERKNS1_5HashTILm64EEES6_RS4_EEEUt0_EEEC2ESA_
FN:204,207,_ZNSt16reverse_iteratorISt14_List_iteratorIN6merkle5PathTILm32EXadL_ZNS1_L15sha256_compressERKNS1_5HashTILm32EEES6_RS4_EEEUt0_EEEC2ERKSB_
FN:204,207,_ZNSt16reverse_iteratorISt14_List_iteratorIN6merkle5PathTILm48EXadL_ZNS1_L14sha384_opensslERKNS1_5HashTILm48EEES6_RS4_EEEUt0_EEEC2ERKSB_
FN:204,207,_ZNSt16reverse_iteratorISt14_List_iteratorIN6merkle5PathTILm64EXadL_ZNS1_L14sha512_opensslERKNS1_5HashTILm64EEES6_RS4_EEEUt0_EEEC2ERKSB_
FN:248,250,_ZNKSt16reverse_iteratorISt14_List_iteratorIN6merkle5PathTILm32EXadL_ZNS1_L15sha256_compressERKNS1_5HashTILm32EEES6_RS4_EEEUt0_EEE4baseEv
FN:248,250,_ZNKSt16reverse_iteratorISt14_List_iteratorIN6merkle5PathTILm48EXadL_ZNS1_L14sha384_opensslERKNS1_5HashTILm48EEES6_RS4_EEEUt0_EEE4baseEv
FN:248,250,_ZNKSt16reverse_iteratorISt14_List_iteratorIN6merkle5PathTILm64EXadL_ZNS1_L14sha512_opensslERKNS1_5HashTILm64EEES6_RS4_EEEUt0_EEE4baseEv
FN:264,268,_ZNKSt16reverse_iteratorISt14_List_iteratorIN6merkle5PathTILm32EXadL_ZNS1_L15sha256_compressERKNS1_5HashTILm32EEES6_RS4_EEEUt0_EEEdeEv
FN:264,268,_ZNKSt16reverse_iteratorISt14_List_iteratorIN6merkle5PathTILm48EXadL_ZNS1_L14sha384_opensslERKNS1_5HashTILm48EEES6_RS4_EEEUt0_EEEdeEv
FN:264,268,_ZNKSt16reverse_iteratorISt14_List_iteratorIN6merkle5PathTILm64EXadL_ZNS1_L14sha512_opensslERKNS1_5HashTILm64EEES6_RS4_EEEUt0_EEEdeEv
FN:277,288,_ZNKSt16reverse_iteratorISt14_List_iteratorIN6merkle5PathTILm32EXadL_ZNS1_L15sha256_compressERKNS1_5HashTILm32EEES6_RS4_EEEUt0_EEEptEv
FN:277,288,_ZNKSt16reverse_iteratorISt14_List_iteratorIN6merkle5PathTILm48EXadL_ZNS1_L14sha384_opensslERKNS1_5HashTILm48EEES6_RS4_EEEUt0_EEEptEv
FN:277,288,_ZNKSt16reverse_iteratorISt14_List_iteratorIN6merkle5PathTILm64EXadL_ZNS1_L14sha512_opensslERKNS1_5HashTILm64EEES6_RS4_EEEUt0_EEEptEv
FN:308,313,_ZNSt16reverse_iteratorISt14_List_iteratorIN6merkle5PathTILm32EXadL_ZNS1_L15sha256_compressERKNS1_5HashTILm32EEES6_RS4_EEEUt0_EEEppEi
FN:308,313,_ZNSt16reverse_iteratorISt14_List_iteratorIN6merkle5PathTILm48EXadL_ZNS1_L14sha384_opensslERKNS1_5HashTILm48EEES6_RS4_EEEUt0_EEEppEi
FN:308,313,_ZNSt16reverse_iteratorISt14_List_iteratorIN6merkle5PathTILm64EXadL_ZNS1_L14sha512_opensslERKNS1_5HashTILm64EEES6_RS4_EEEUt0_EEEppEi
FN:430,431,_ZNSt16reverse_iteratorISt14_List_iteratorIN6merkle5PathTILm32EXadL_ZNS1_L15sha256_compressERKNS1_5HashTILm32EEES6_RS4_EEEUt0_EEE13_S_to_pointerISA_EEPS9_T_
FN:430,431,_ZNSt16reverse_iteratorISt14_List_iteratorIN6merkle5PathTILm48EXadL_ZNS1_L14sha384_opensslERKNS1_5HashTILm48EEES6_RS4_EEEUt0_EEE13_S_to_pointerISA_EEPS9_T_
FN:430,431,_ZNSt16reverse_iteratorISt14_List_iteratorIN6merkle5PathTILm64EXadL_ZNS1_L14sha512_opensslERKNS1_5HashTILm64EEES6_RS4_EEEUt0_EEE13_S_to_pointerISA_EEPS9_T_
FN:448,450,_ZSteqISt14_List_iteratorIN6merkle5PathTILm32EXadL_ZNS1_L15sha256_compressERKNS1_5HashTILm32EEES6_RS4_EEEUt0_EEEbRKSt16reverse_iteratorIT_ESF_
FN:448,450,_ZSteqISt14_List_iteratorIN6merkle5PathTILm48EXadL_ZNS1_L14sha384_opensslERKNS1_5HashTILm48EEES6_RS4_EEEUt0_EEEbRKSt16reverse_iteratorIT_ESF_
FN:448,450,_ZSteqISt14_List_iteratorIN6merkle5PathTILm64EXadL_ZNS1_L14sha512_opensslERKNS1_5HashTILm64EEES6_RS4_EEEUt0_EEEbRKSt16reverse_iteratorIT_ESF_
FN:462,464,_ZStneISt14_List_iteratorIN6merkle5PathTILm32EXadL_ZNS1_L15sha256_compressERKNS1_5HashTILm32EEES6_RS4_EEEUt0_EEEbRKSt16reverse_iteratorIT_ESF_
FN:462,464,_ZStneISt14_List_iteratorIN6merkle5PathTILm48EXadL_ZNS1_L14sha384_opensslERKNS1_5HashTILm48EEES6_RS4_EEEUt0_EEEbRKSt16reverse_iteratorIT_ESF_
FN:462,464,_ZStneISt14_List_iteratorIN6merkle5PathTILm64EXadL_ZNS1_L14sha512_opensslERKNS1_5HashTILm64EEES6_RS4_EEEUt0_EEEbRKSt16reverse_iteratorIT_ESF_
FNDA:10198,_ZN9__gnu_cxx17__normal_iteratorIPKPN6merkle5TreeTILm32EXadL_ZNS1_L15sha256_compressERKNS1_5HashTILm32EEES6_RS4_EEE4NodeESt6vectorISA_SaISA_EEEC2Ev
FNDA:0,_ZN9__gnu_cxx17__normal_iteratorIPKPN6merkle5TreeTILm48EXadL_ZNS1_L14sha384_opensslERKNS1_5HashTILm48EEES6_RS4_EEE4NodeESt6vectorISA_SaISA_EEEC2Ev
FNDA:0,_ZN9__gnu_cxx17__normal_iteratorIPKPN6merkle5TreeTILm64EXadL_ZNS1_L14sha512_opensslERKNS1_5HashTILm64EEES6_RS4_EEE4NodeESt6vectorISA_SaISA_EEEC2Ev
FNDA:8,_ZN9__gnu_cxx17__normal_iteratorIPKN6merkle5HashTILm32EEESt6vectorIS3_SaIS3_EEEC2ERKS5_
FNDA:4,_ZN9__gnu_cxx17__normal_iteratorIPKN6merkle5HashTILm48EEESt6vectorIS3_SaIS3_EEEC2ERKS5_
FNDA:4,_ZN9__gnu_cxx17__normal_iteratorIPKN6merkle5HashTILm64EEESt6vectorIS3_SaIS3_EEEC2ERKS5_
FNDA:1327252,_ZN9__gnu_cxx17__normal_iteratorIPKN6merkle5TreeTILm32EXadL_ZNS1_L14sha256_opensslERKNS1_5HashTILm32EEES6_RS4_EEEUt_ESt6vectorIS9_SaIS9_EEEC2ERKSB_
FNDA:51340792,_ZN9__gnu_cxx17__normal_iteratorIPKN6merkle5TreeTILm32EXadL_ZNS1_L15sha256_compressERKNS1_5HashTILm32EEES6_RS4_EEEUt_ESt6vectorIS9_SaIS9_EEEC2ERKSB_
FNDA:2654810,_ZN9__gnu_cxx17__normal_iteratorIPKN6merkle5TreeTILm48EXadL_ZNS1_L14sha384_opensslERKNS1_5HashTILm48EEES6_RS4_EEEUt_ESt6vectorIS9_SaIS9_EEEC2ERKSB_
FNDA:2654810,_ZN9__gnu_cxx17__normal_iteratorIPKN6merkle5TreeTILm64EXadL_ZNS1_L14sha512_opensslERKNS1_5HashTILm64EEES6_RS4_EEEUt_ESt6vectorIS9_SaIS9_EEEC2ERKSB_
FNDA:0,_ZN9__gnu_cxx17__normal_iteratorIPKN7doctest12_GLOBAL__N_113JUnitReporter17JUnitTestCaseData16JUnitTestMessageESt6vectorIS5_SaIS5_EEEC2ERKS7_
FNDA:48,_ZN9__gnu_cxx17__normal_iteratorIPKN7doctest16SubcaseSignatureESt6vectorIS2_SaIS2_EEEC2ERKS4_
FNDA:230,_ZN9__gnu_cxx17__normal_iteratorIPKN7doctest6StringESt6vectorIS2_SaIS2_EEEC2ERKS4_
FNDA:0,_ZN9__gnu_cxx17__normal_iteratorIPKNSt7__cxx1112basic_stringIcSt11char_traitsIcESaIcEEESt6vectorIS6_SaIS6_EEEC2ERKS8_
FNDA:2,_ZN9__gnu_cxx17__normal_iteratorIPKPKN7doctest6detail8TestCaseESt6vectorIS5_SaIS5_EEEC2ERKS7_
FNDA:1097820,_ZN9__gnu_cxx17__normal_iteratorIPKPN6merkle5TreeTILm32EXadL_ZNS1_L14sha256_opensslERKNS1_5HashTILm32EEES6_RS4_EEE4NodeESt6vectorISA_SaISA_EEEC2ERKSC_
FNDA:47914316,_ZN9__gnu_cxx17__normal_iteratorIPKPN6merkle5TreeTILm32EXadL_ZNS1_L15sha256_compressERKNS1_5HashTILm32EEES6_RS4_EEE4NodeESt6vectorISA_SaISA_EEEC2ERKSC_
FNDA:2196089,_ZN9__gnu_cxx17__normal_iteratorIPKPN6merkle5TreeTILm48EXadL_ZNS1_L14sha384_opensslERKNS1_5HashTILm48EEES6_RS4_EEE4NodeESt6vectorISA_SaISA_EEEC2ERKSC_
FNDA:2196089,_ZN9__gnu_cxx17__normal_iteratorIPKPN6merkle5TreeTILm64EXadL_ZNS1_L14sha512_opensslERKNS1_5HashTILm64EEES6_RS4_EEE4NodeESt6vectorISA_SaISA_EEEC2ERKSC_
FNDA:0,_ZN9__gnu_cxx17__normal_iteratorIPKPN7doctest9IReporterESt6vectorIS3_SaIS3_EEEC2ERKS5_
FNDA:0,_ZN9__gnu_cxx17__normal_iteratorIPKSt4fposI11__mbstate_tESt6vectorIS3_SaIS3_EEEC2ERKS5_
FNDA:71156,_ZN9__gnu_cxx17__normal_iteratorIPN6merkle5HashTILm32EEESt6vectorIS3_SaIS3_EEEC2ERKS4_
FNDA:164,_ZN9__gnu_cxx17__normal_iteratorIPN6merkle5HashTILm48EEESt6vectorIS3_SaIS3_EEEC2ERKS4_
FNDA:164,_ZN9__gnu_cxx17__normal_iteratorIPN6merkle5HashTILm64EEESt6vectorIS3_SaIS3_EEEC2ERKS4_
FNDA:3968976,_ZN9__gnu_cxx17__normal_iteratorIPN6merkle5TreeTILm32EXadL_ZNS1_L14sha256_opensslERKNS1_5HashTILm32EEES6_RS4_EEEUt_ESt6vectorIS9_SaIS9_EEEC2ERKSA_
FNDA:152019884,_ZN9__gnu_cxx17__normal_iteratorIPN6merkle5TreeTILm32EXadL_ZNS1_L15sha256_compressERKNS1_5HashTILm32EEES6_RS4_EEEUt_ESt6vectorIS9_SaIS9_EEEC2ERKSA_
FNDA:7938420,_ZN9__gnu_cxx17__normal_iteratorIPN6merkle5TreeTILm48EXadL_ZNS1_L14sha384_opensslERKNS1_5HashTILm48EEES6_RS4_EEEUt_ESt6vectorIS9_SaIS9_EEEC2ERKSA_
FNDA:7938420,_ZN9__gnu_cxx17__normal_iteratorIPN6merkle5TreeTILm64EXadL_ZNS1_L14sha512_opensslERKNS1_5HashTILm64EEES6_RS4_EEEUt_ESt6vectorIS9_SaIS9_EEEC2ERKSA_
FNDA:0,_ZN9__gnu_cxx17__normal_iteratorIPN7doctest12_GLOBAL__N_113JUnitReporter17JUnitTestCaseData13JUnitTestCaseESt6vectorIS5_SaIS5_EEEC2ERKS6_
FNDA:0,_ZN9__gnu_cxx17__normal_iteratorIPN7doctest12_GLOBAL__N_113JUnitReporter17JUnitTestCaseData16JUnitTestMessageESt6vectorIS5_SaIS5_EEEC2ERKS6_
FNDA:0,_ZN9__gnu_cxx17__normal_iteratorIPN7doctest16SubcaseSignatureESt6vectorIS2_SaIS2_EEEC2ERKS3_
FNDA:4,_ZN9__gnu_cxx17__normal_iteratorIPN7doctest6StringESt6vectorIS2_SaIS2_EEEC2ERKS3_
FNDA:0,_ZN9__gnu_cxx17__normal_iteratorIPNSt7__cxx1112basic_stringIcSt11char_traitsIcESaIcEEESt6vectorIS6_SaIS6_EEEC2ERKS7_
FNDA:0,_ZN9__gnu_cxx17__normal_iteratorIPPKN7doctest12TestCaseDataESt6vectorIS4_SaIS4_EEEC2ERKS5_
FNDA:48,_ZN9__gnu_cxx17__normal_iteratorIPPKN7doctest6detail20IExceptionTranslatorESt6vectorIS5_SaIS5_EEEC2ERKS6_
FNDA:39,_ZN9__gnu_cxx17__normal_iteratorIPPKN7doctest6detail8TestCaseESt6vectorIS5_SaIS5_EEEC2ERKS6_
FNDA:1614096,_ZN9__gnu_cxx17__normal_iteratorIPPN6merkle5TreeTILm32EXadL_ZNS1_L14sha256_opensslERKNS1_5HashTILm32EEES6_RS4_EEE4NodeESt6vectorISA_SaISA_EEEC2ERKSB_
FNDA:123509764,_ZN9__gnu_cxx17__normal_iteratorIPPN6merkle5TreeTILm32EXadL_ZNS1_L15sha256_compressERKNS1_5HashTILm32EEES6_RS4_EEE4NodeESt6vectorISA_SaISA_EEEC2ERKSB_
FNDA:3228374,_ZN9__gnu_cxx17__normal_iteratorIPPN6merkle5TreeTILm48EXadL_ZNS1_L14sha384_opensslERKNS1_5HashTILm48EEES6_RS4_EEE4NodeESt6vectorISA_SaISA_EEEC2ERKSB_
FNDA:3228374,_ZN9__gnu_cxx17__normal_iteratorIPPN6merkle5TreeTILm64EXadL_ZNS1_L14sha512_opensslERKNS1_5HashTILm64EEES6_RS4_EEE4NodeESt6vectorISA_SaISA_EEEC2ERKSB_
FNDA:0,_ZN9__gnu_cxx17__normal_iteratorIPPN7doctest13IContextScopeESt6vectorIS3_SaIS3_EEEC2ERKS4_
FNDA:894,_ZN9__gnu_cxx17__normal_iteratorIPPN7doctest9IReporterESt6vectorIS3_SaIS3_EEEC2ERKS4_
FNDA:0,_ZN9__gnu_cxx17__normal_iteratorIPSt4fposI11__mbstate_tESt6vectorIS3_SaIS3_EEEC2ERKS4_
FNDA:0,_ZN9__gnu_cxx17__normal_iteratorIPSt6vectorIN7doctest6StringESaIS3_EES1_IS5_SaIS5_EEEC2ERKS6_
FNDA:319526,_ZN9__gnu_cxx17__normal_iteratorIPhSt6vectorIhSaIhEEEC2ERKS1_
FNDA:0,_ZN9__gnu_cxx17__normal_iteratorIPKN7doctest16SubcaseSignatureESt6vectorIS2_SaIS2_EEEC2IPS2_vEERKNS0_IT_S7_EE
FNDA:352330,_ZN9__gnu_cxx17__normal_iteratorIPKPN6merkle5TreeTILm32EXadL_ZNS1_L15sha256_compressERKNS1_5HashTILm32EEES6_RS4_EEE4NodeESt6vectorISA_SaISA_EEEC2IPSA_vEERKNS0_IT_SF_EE
FNDA:2,_ZN9__gnu_cxx17__normal_iteratorIPKPN6merkle5TreeTILm48EXadL_ZNS1_L14sha384_opensslERKNS1_5HashTILm48EEES6_RS4_EEE4NodeESt6vectorISA_SaISA_EEEC2IPSA_vEERKNS0_IT_SF_EE
FNDA:2,_ZN9__gnu_cxx17__normal_iteratorIPKPN6merkle5TreeTILm64EXadL_ZNS1_L14sha512_opensslERKNS1_5HashTILm64EEES6_RS4_EEE4NodeESt6vectorISA_SaISA_EEEC2IPSA_vEERKNS0_IT_SF_EE
FNDA:0,_ZN9__gnu_cxx17__normal_iteratorIPKPN7doctest9IReporterESt6vectorIS3_SaIS3_EEEC2IPS3_vEERKNS0_IT_S8_EE
FNDA:524288,_ZNK9__gnu_cxx17__normal_iteratorIPKN6merkle5HashTILm32EEESt6vectorIS3_SaIS3_EEEdeEv
FNDA:262144,_ZNK9__gnu_cxx17__normal_iteratorIPKN6merkle5HashTILm48EEESt6vectorIS3_SaIS3_EEEdeEv
FNDA:262144,_ZNK9__gnu_cxx17__normal_iteratorIPKN6merkle5HashTILm64EEESt6vectorIS3_SaIS3_EEEdeEv
FNDA:0,_ZNK9__gnu_cxx17__normal_iteratorIPKN7doctest12_GLOBAL__N_113JUnitReporter17JUnitTestCaseData16JUnitTestMessageESt6vectorIS5_SaIS5_EEEdeEv
FNDA:0,_ZNK9__gnu_cxx17__normal_iteratorIPKN7doctest16SubcaseSignatureESt6vectorIS2_SaIS2_EEEdeEv
FNDA:3,_ZNK9__gnu_cxx17__normal_iteratorIPKN7doctest6StringESt6vectorIS2_SaIS2_EEEdeEv
FNDA:374313,_ZNK9__gnu_cxx17__normal_iteratorIPKPN6merkle5TreeTILm32EXadL_ZNS1_L15sha256_compressERKNS1_5HashTILm32EEES6_RS4_EEE4NodeESt6vectorISA_SaISA_EEEdeEv
FNDA:0,_ZNK9__gnu_cxx17__normal_iteratorIPKPN6merkle5TreeTILm48EXadL_ZNS1_L14sha384_opensslERKNS1_5HashTILm48EEES6_RS4_EEE4NodeESt6vectorISA_SaISA_EEEdeEv
FNDA:0,_ZNK9__gnu_cxx17__normal_iteratorIPKPN6merkle5TreeTILm64EXadL_ZNS1_L14sha512_opensslERKNS1_5HashTILm64EEES6_RS4_EEE4NodeESt6vectorISA_SaISA_EEEdeEv
FNDA:9712240,_ZNK9__gnu_cxx17__normal_iteratorIPN6merkle5HashTILm32EEESt6vectorIS3_SaIS3_EEEdeEv
FNDA:262208,_ZNK9__gnu_cxx17__normal_iteratorIPN6merkle5HashTILm48EEESt6vectorIS3_SaIS3_EEEdeEv
FNDA:262208,_ZNK9__gnu_cxx17__normal_iteratorIPN6merkle5HashTILm64EEESt6vectorIS3_SaIS3_EEEdeEv
FNDA:1984470,_ZNK9__gnu_cxx17__normal_iteratorIPN6merkle5TreeTILm32EXadL_ZNS1_L14sha256_opensslERKNS1_5HashTILm32EEES6_RS4_EEEUt_ESt6vectorIS9_SaIS9_EEEdeEv
FNDA:76005408,_ZNK9__gnu_cxx17__normal_iteratorIPN6merkle5TreeTILm32EXadL_ZNS1_L15sha256_compressERKNS1_5HashTILm32EEES6_RS4_EEEUt_ESt6vectorIS9_SaIS9_EEEdeEv
FNDA:3969180,_ZNK9__gnu_cxx17__normal_iteratorIPN6merkle5TreeTILm48EXadL_ZNS1_L14sha384_opensslERKNS1_5HashTILm48EEES6_RS4_EEEUt_ESt6vectorIS9_SaIS9_EEEdeEv
FNDA:3969180,_ZNK9__gnu_cxx17__normal_iteratorIPN6merkle5TreeTILm64EXadL_ZNS1_L14sha512_opensslERKNS1_5HashTILm64EEES6_RS4_EEEUt_ESt6vectorIS9_SaIS9_EEEdeEv
FNDA:0,_ZNK9__gnu_cxx17__normal_iteratorIPN7doctest12_GLOBAL__N_113JUnitReporter17JUnitTestCaseData13JUnitTestCaseESt6vectorIS5_SaIS5_EEEdeEv
FNDA:0,_ZNK9__gnu_cxx17__normal_iteratorIPN7doctest12_GLOBAL__N_113JUnitReporter17JUnitTestCaseData16JUnitTestMessageESt6vectorIS5_SaIS5_EEEdeEv
FNDA:0,_ZNK9__gnu_cxx17__normal_iteratorIPN7doctest16SubcaseSignatureESt6vectorIS2_SaIS2_EEEdeEv
FNDA:1,_ZNK9__gnu_cxx17__normal_iteratorIPN7doctest6StringESt6vectorIS2_SaIS2_EEEdeEv
FNDA:0,_ZNK9__gnu_cxx17__normal_iteratorIPNSt7__cxx1112basic_stringIcSt11char_traitsIcESaIcEEESt6vectorIS6_SaIS6_EEEdeEv
FNDA:0,_ZNK9__gnu_cxx17__normal_iteratorIPPKN7doctest12TestCaseDataESt6vectorIS4_SaIS4_EEEdeEv
FNDA:0,_ZNK9__gnu_cxx17__normal_iteratorIPPKN7doctest6detail20IExceptionTranslatorESt6vectorIS5_SaIS5_EEEdeEv
FNDA:79,_ZNK9__gnu_cxx17__normal_iteratorIPPKN7doctest6detail8TestCaseESt6vectorIS5_SaIS5_EEEdeEv
FNDA:1067086,_ZNK9__gnu_cxx17__normal_iteratorIPPN6merkle5TreeTILm32EXadL_ZNS1_L14sha256_opensslERKNS1_5HashTILm32EEES6_RS4_EEE4NodeESt6vectorISA_SaISA_EEEdeEv
FNDA:71316008,_ZNK9__gnu_cxx17__normal_iteratorIPPN6merkle5TreeTILm32EXadL_ZNS1_L15sha256_compressERKNS1_5HashTILm32EEES6_RS4_EEE4NodeESt6vectorISA_SaISA_EEEdeEv
FNDA:2134282,_ZNK9__gnu_cxx17__normal_iteratorIPPN6merkle5TreeTILm48EXadL_ZNS1_L14sha384_opensslERKNS1_5HashTILm48EEES6_RS4_EEE4NodeESt6vectorISA_SaISA_EEEdeEv
FNDA:2134282,_ZNK9__gnu_cxx17__normal_iteratorIPPN6merkle5TreeTILm64EXadL_ZNS1_L14sha512_opensslERKNS1_5HashTILm64EEES6_RS4_EEE4NodeESt6vectorISA_SaISA_EEEdeEv
FNDA:0,_ZNK9__gnu_cxx17__normal_iteratorIPPN7doctest13IContextScopeESt6vectorIS3_SaIS3_EEEdeEv
FNDA:446,_ZNK9__gnu_cxx17__normal_iteratorIPPN7doctest9IReporterESt6vectorIS3_SaIS3_EEEdeEv
FNDA:0,_ZNK9__gnu_cxx17__normal_iteratorIPSt4fposI11__mbstate_tESt6vectorIS3_SaIS3_EEEdeEv
FNDA:0,_ZNK9__gnu_cxx17__normal_iteratorIPSt6vectorIN7doctest6StringESaIS3_EES1_IS5_SaIS5_EEEdeEv
FNDA:125682,_ZNK9__gnu_cxx17__normal_iteratorIPhSt6vectorIhSaIhEEEdeEv
FNDA:524288,_ZN9__gnu_cxx17__normal_iteratorIPKN6merkle5HashTILm32EEESt6vectorIS3_SaIS3_EEEppEv
FNDA:262144,_ZN9__gnu_cxx17__normal_iteratorIPKN6merkle5HashTILm48EEESt6vectorIS3_SaIS3_EEEppEv
FNDA:262144,_ZN9__gnu_cxx17__normal_iteratorIPKN6merkle5HashTILm64EEESt6vectorIS3_SaIS3_EEEppEv
FNDA:0,_ZN9__gnu_cxx17__normal_iteratorIPKN7doctest12_GLOBAL__N_113JUnitReporter17JUnitTestCaseData16JUnitTestMessageESt6vectorIS5_SaIS5_EEEppEv
FNDA:0,_ZN9__gnu_cxx17__normal_iteratorIPKN7doctest16SubcaseSignatureESt6vectorIS2_SaIS2_EEEppEv
FNDA:2,_ZN9__gnu_cxx17__normal_iteratorIPKN7doctest6StringESt6vectorIS2_SaIS2_EEEppEv
FNDA:374313,_ZN9__gnu_cxx17__normal_iteratorIPKPN6merkle5TreeTILm32EXadL_ZNS1_L15sha256_compressERKNS1_5HashTILm32EEES6_RS4_EEE4NodeESt6vectorISA_SaISA_EEEppEv
FNDA:0,_ZN9__gnu_cxx17__normal_iteratorIPKPN6merkle5TreeTILm48EXadL_ZNS1_L14sha384_opensslERKNS1_5HashTILm48EEES6_RS4_EEE4NodeESt6vectorISA_SaISA_EEEppEv
FNDA:0,_ZN9__gnu_cxx17__normal_iteratorIPKPN6merkle5TreeTILm64EXadL_ZNS1_L14sha512_opensslERKNS1_5HashTILm64EEES6_RS4_EEE4NodeESt6vectorISA_SaISA_EEEppEv
FNDA:9712240,_ZN9__gnu_cxx17__normal_iteratorIPN6merkle5HashTILm32EEESt6vectorIS3_SaIS3_EEEppEv
FNDA:262208,_ZN9__gnu_cxx17__normal_iteratorIPN6merkle5HashTILm48EEESt6vectorIS3_SaIS3_EEEppEv
FNDA:262208,_ZN9__gnu_cxx17__normal_iteratorIPN6merkle5HashTILm64EEESt6vectorIS3_SaIS3_EEEppEv
FNDA:0,_ZN9__gnu_cxx17__normal_iteratorIPN7doctest12_GLOBAL__N_113JUnitReporter17JUnitTestCaseData13JUnitTestCaseESt6vectorIS5_SaIS5_EEEppEv
FNDA:0,_ZN9__gnu_cxx17__normal_iteratorIPN7doctest16SubcaseSignatureESt6vectorIS2_SaIS2_EEEppEv
FNDA:0,_ZN9__gnu_cxx17__normal_iteratorIPN7doctest6StringESt6vectorIS2_SaIS2_EEEppEv
FNDA:0,_ZN9__gnu_cxx17__normal_iteratorIPPKN7doctest6detail20IExceptionTranslatorESt6vectorIS5_SaIS5_EEEppEv
FNDA:23,_ZN9__gnu_cxx17__normal_iteratorIPPKN7doctest6detail8TestCaseESt6vectorIS5_SaIS5_EEEppEv
FNDA:262166,_ZN9__gnu_cxx17__normal_iteratorIPPN6merkle5TreeTILm32EXadL_ZNS1_L14sha256_opensslERKNS1_5HashTILm32EEES6_RS4_EEE4NodeESt6vectorISA_SaISA_EEEppEv
FNDA:10802508,_ZN9__gnu_cxx17__normal_iteratorIPPN6merkle5TreeTILm32EXadL_ZNS1_L15sha256_compressERKNS1_5HashTILm32EEES6_RS4_EEE4NodeESt6vectorISA_SaISA_EEEppEv
FNDA:524360,_ZN9__gnu_cxx17__normal_iteratorIPPN6merkle5TreeTILm48EXadL_ZNS1_L14sha384_opensslERKNS1_5HashTILm48EEES6_RS4_EEE4NodeESt6vectorISA_SaISA_EEEppEv
FNDA:524360,_ZN9__gnu_cxx17__normal_iteratorIPPN6merkle5TreeTILm64EXadL_ZNS1_L14sha512_opensslERKNS1_5HashTILm64EEES6_RS4_EEE4NodeESt6vectorISA_SaISA_EEEppEv
FNDA:445,_ZN9__gnu_cxx17__normal_iteratorIPPN7doctest9IReporterESt6vectorIS3_SaIS3_EEEppEv
FNDA:0,_ZN9__gnu_cxx17__normal_iteratorIPSt6vectorIN7doctest6StringESaIS3_EES1_IS5_SaIS5_EEEppEv
FNDA:368,_ZN9__gnu_cxx17__normal_iteratorIPhSt6vectorIhSaIhEEEppEv
FNDA:0,_ZN9__gnu_cxx17__normal_iteratorIPKN7doctest16SubcaseSignatureESt6vectorIS2_SaIS2_EEEppEi
FNDA:11,_ZN9__gnu_cxx17__normal_iteratorIPPKN7doctest6detail8TestCaseESt6vectorIS5_SaIS5_EEEmmEv
FNDA:0,_ZN9__gnu_cxx17__normal_iteratorIPN7doctest16SubcaseSignatureESt6vectorIS2_SaIS2_EEEpLEl
FNDA:0,_ZNK9__gnu_cxx17__normal_iteratorIPKN7doctest16SubcaseSignatureESt6vectorIS2_SaIS2_EEEplEl
FNDA:0,_ZNK9__gnu_cxx17__normal_iteratorIPN7doctest16SubcaseSignatureESt6vectorIS2_SaIS2_EEEplEl
FNDA:1,_ZNK9__gnu_cxx17__normal_iteratorIPPKN7doctest6detail8TestCaseESt6vectorIS5_SaIS5_EEEplEl
FNDA:692606,_ZNK9__gnu_cxx17__normal_iteratorIPPN6merkle5TreeTILm32EXadL_ZNS1_L15sha256_compressERKNS1_5HashTILm32EEES6_RS4_EEE4NodeESt6vectorISA_SaISA_EEEplEl
FNDA:4,_ZNK9__gnu_cxx17__normal_iteratorIPPN6merkle5TreeTILm48EXadL_ZNS1_L14sha384_opensslERKNS1_5HashTILm48EEES6_RS4_EEE4NodeESt6vectorISA_SaISA_EEEplEl
FNDA:4,_ZNK9__gnu_cxx17__normal_iteratorIPPN6merkle5TreeTILm64EXadL_ZNS1_L14sha512_opensslERKNS1_5HashTILm64EEES6_RS4_EEE4NodeESt6vectorISA_SaISA_EEEplEl
FNDA:0,_ZNK9__gnu_cxx17__normal_iteratorIPPN7doctest9IReporterESt6vectorIS3_SaIS3_EEEplEl
FNDA:1984470,_ZNK9__gnu_cxx17__normal_iteratorIPN6merkle5TreeTILm32EXadL_ZNS1_L14sha256_opensslERKNS1_5HashTILm32EEES6_RS4_EEEUt_ESt6vectorIS9_SaIS9_EEEmiEl
FNDA:76005408,_ZNK9__gnu_cxx17__normal_iteratorIPN6merkle5TreeTILm32EXadL_ZNS1_L15sha256_compressERKNS1_5HashTILm32EEES6_RS4_EEEUt_ESt6vectorIS9_SaIS9_EEEmiEl
FNDA:3969180,_ZNK9__gnu_cxx17__normal_iteratorIPN6merkle5TreeTILm48EXadL_ZNS1_L14sha384_opensslERKNS1_5HashTILm48EEES6_RS4_EEEUt_ESt6vectorIS9_SaIS9_EEEmiEl
FNDA:3969180,_ZNK9__gnu_cxx17__normal_iteratorIPN6merkle5TreeTILm64EXadL_ZNS1_L14sha512_opensslERKNS1_5HashTILm64EEES6_RS4_EEEUt_ESt6vectorIS9_SaIS9_EEEmiEl
FNDA:0,_ZNK9__gnu_cxx17__normal_iteratorIPN7doctest12_GLOBAL__N_113JUnitReporter17JUnitTestCaseData13JUnitTestCaseESt6vectorIS5_SaIS5_EEEmiEl
FNDA:0,_ZNK9__gnu_cxx17__normal_iteratorIPN7doctest12_GLOBAL__N_113JUnitReporter17JUnitTestCaseData16JUnitTestMessageESt6vectorIS5_SaIS5_EEEmiEl
FNDA:1,_ZNK9__gnu_cxx17__normal_iteratorIPN7doctest6StringESt6vectorIS2_SaIS2_EEEmiEl
FNDA:0,_ZNK9__gnu_cxx17__normal_iteratorIPNSt7__cxx1112basic_stringIcSt11char_traitsIcESaIcEEESt6vectorIS6_SaIS6_EEEmiEl
FNDA:0,_ZNK9__gnu_cxx17__normal_iteratorIPPKN7doctest12TestCaseDataESt6vectorIS4_SaIS4_EEEmiEl
FNDA:12,_ZNK9__gnu_cxx17__normal_iteratorIPPKN7doctest6detail8TestCaseESt6vectorIS5_SaIS5_EEEmiEl
FNDA:804920,_ZNK9__gnu_cxx17__normal_iteratorIPPN6merkle5TreeTILm32EXadL_ZNS1_L14sha256_opensslERKNS1_5HashTILm32EEES6_RS4_EEE4NodeESt6vectorISA_SaISA_EEEmiEl
FNDA:60503302,_ZNK9__gnu_cxx17__normal_iteratorIPPN6merkle5TreeTILm32EXadL_ZNS1_L15sha256_compressERKNS1_5HashTILm32EEES6_RS4_EEE4NodeESt6vectorISA_SaISA_EEEmiEl
FNDA:1609922,_ZNK9__gnu_cxx17__normal_iteratorIPPN6merkle5TreeTILm48EXadL_ZNS1_L14sha384_opensslERKNS1_5HashTILm48EEES6_RS4_EEE4NodeESt6vectorISA_SaISA_EEEmiEl
FNDA:1609922,_ZNK9__gnu_cxx17__normal_iteratorIPPN6merkle5TreeTILm64EXadL_ZNS1_L14sha512_opensslERKNS1_5HashTILm64EEES6_RS4_EEE4NodeESt6vectorISA_SaISA_EEEmiEl
FNDA:0,_ZNK9__gnu_cxx17__normal_iteratorIPPN7doctest13IContextScopeESt6vectorIS3_SaIS3_EEEmiEl
FNDA:1,_ZNK9__gnu_cxx17__normal_iteratorIPPN7doctest9IReporterESt6vectorIS3_SaIS3_EEEmiEl
FNDA:0,_ZNK9__gnu_cxx17__normal_iteratorIPSt4fposI11__mbstate_tESt6vectorIS3_SaIS3_EEEmiEl
FNDA:125314,_ZNK9__gnu_cxx17__normal_iteratorIPhSt6vectorIhSaIhEEEmiEl
FNDA:1048584,_ZNK9__gnu_cxx17__normal_iteratorIPKN6merkle5HashTILm32EEESt6vectorIS3_SaIS3_EEE4baseEv
FNDA:524292,_ZNK9__gnu_cxx17__normal_iteratorIPKN6merkle5HashTILm48EEESt6vectorIS3_SaIS3_EEE4baseEv
FNDA:524292,_ZNK9__gnu_cxx17__normal_iteratorIPKN6merkle5HashTILm64EEESt6vectorIS3_SaIS3_EEE4baseEv
FNDA:1327252,_ZNK9__gnu_cxx17__normal_iteratorIPKN6merkle5TreeTILm32EXadL_ZNS1_L14sha256_opensslERKNS1_5HashTILm32EEES6_RS4_EEEUt_ESt6vectorIS9_SaIS9_EEE4baseEv
FNDA:51340792,_ZNK9__gnu_cxx17__normal_iteratorIPKN6merkle5TreeTILm32EXadL_ZNS1_L15sha256_compressERKNS1_5HashTILm32EEES6_RS4_EEEUt_ESt6vectorIS9_SaIS9_EEE4baseEv
FNDA:2654810,_ZNK9__gnu_cxx17__normal_iteratorIPKN6merkle5TreeTILm48EXadL_ZNS1_L14sha384_opensslERKNS1_5HashTILm48EEES6_RS4_EEEUt_ESt6vectorIS9_SaIS9_EEE4baseEv
FNDA:2654810,_ZNK9__gnu_cxx17__normal_iteratorIPKN6merkle5TreeTILm64EXadL_ZNS1_L14sha512_opensslERKNS1_5HashTILm64EEES6_RS4_EEEUt_ESt6vectorIS9_SaIS9_EEE4baseEv
FNDA:0,_ZNK9__gnu_cxx17__normal_iteratorIPKN7doctest12_GLOBAL__N_113JUnitReporter17JUnitTestCaseData16JUnitTestMessageESt6vectorIS5_SaIS5_EEE4baseEv
FNDA:48,_ZNK9__gnu_cxx17__normal_iteratorIPKN7doctest16SubcaseSignatureESt6vectorIS2_SaIS2_EEE4baseEv
FNDA:234,_ZNK9__gnu_cxx17__normal_iteratorIPKN7doctest6StringESt6vectorIS2_SaIS2_EEE4baseEv
FNDA:0,_ZNK9__gnu_cxx17__normal_iteratorIPKNSt7__cxx1112basic_stringIcSt11char_traitsIcESaIcEEESt6vectorIS6_SaIS6_EEE4baseEv
FNDA:2,_ZNK9__gnu_cxx17__normal_iteratorIPKPKN7doctest6detail8TestCaseESt6vectorIS5_SaIS5_EEE4baseEv
FNDA:1097820,_ZNK9__gnu_cxx17__normal_iteratorIPKPN6merkle5TreeTILm32EXadL_ZNS1_L14sha256_opensslERKNS1_5HashTILm32EEES6_RS4_EEE4NodeESt6vectorISA_SaISA_EEE4baseEv
FNDA:49228058,_ZNK9__gnu_cxx17__normal_iteratorIPKPN6merkle5TreeTILm32EXadL_ZNS1_L15sha256_compressERKNS1_5HashTILm32EEES6_RS4_EEE4NodeESt6vectorISA_SaISA_EEE4baseEv
FNDA:2196092,_ZNK9__gnu_cxx17__normal_iteratorIPKPN6merkle5TreeTILm48EXadL_ZNS1_L14sha384_opensslERKNS1_5HashTILm48EEES6_RS4_EEE4NodeESt6vectorISA_SaISA_EEE4baseEv
FNDA:2196092,_ZNK9__gnu_cxx17__normal_iteratorIPKPN6merkle5TreeTILm64EXadL_ZNS1_L14sha512_opensslERKNS1_5HashTILm64EEES6_RS4_EEE4NodeESt6vectorISA_SaISA_EEE4baseEv
FNDA:0,_ZNK9__gnu_cxx17__normal_iteratorIPKPN7doctest9IReporterESt6vectorIS3_SaIS3_EEE4baseEv
FNDA:0,_ZNK9__gnu_cxx17__normal_iteratorIPKSt4fposI11__mbstate_tESt6vectorIS3_SaIS3_EEE4baseEv
FNDA:19561404,_ZNK9__gnu_cxx17__normal_iteratorIPN6merkle5HashTILm32EEESt6vectorIS3_SaIS3_EEE4baseEv
FNDA:524738,_ZNK9__gnu_cxx17__normal_iteratorIPN6merkle5HashTILm48EEESt6vectorIS3_SaIS3_EEE4baseEv
FNDA:524738,_ZNK9__gnu_cxx17__normal_iteratorIPN6merkle5HashTILm64EEESt6vectorIS3_SaIS3_EEE4baseEv
FNDA:72,_ZNK9__gnu_cxx17__normal_iteratorIPN6merkle5TreeTILm32EXadL_ZNS1_L14sha256_opensslERKNS1_5HashTILm32EEES6_RS4_EEEUt_ESt6vectorIS9_SaIS9_EEE4baseEv
FNDA:18136,_ZNK9__gnu_cxx17__normal_iteratorIPN6merkle5TreeTILm32EXadL_ZNS1_L15sha256_compressERKNS1_5HashTILm32EEES6_RS4_EEEUt_ESt6vectorIS9_SaIS9_EEE4baseEv
FNDA:120,_ZNK9__gnu_cxx17__normal_iteratorIPN6merkle5TreeTILm48EXadL_ZNS1_L14sha384_opensslERKNS1_5HashTILm48EEES6_RS4_EEEUt_ESt6vectorIS9_SaIS9_EEE4baseEv
FNDA:120,_ZNK9__gnu_cxx17__normal_iteratorIPN6merkle5TreeTILm64EXadL_ZNS1_L14sha512_opensslERKNS1_5HashTILm64EEES6_RS4_EEEUt_ESt6vectorIS9_SaIS9_EEE4baseEv
FNDA:0,_ZNK9__gnu_cxx17__normal_iteratorIPN7doctest12_GLOBAL__N_113JUnitReporter17JUnitTestCaseData13JUnitTestCaseESt6vectorIS5_SaIS5_EEE4baseEv
FNDA:0,_ZNK9__gnu_cxx17__normal_iteratorIPN7doctest12_GLOBAL__N_113JUnitReporter17JUnitTestCaseData16JUnitTestMessageESt6vectorIS5_SaIS5_EEE4baseEv
FNDA:0,_ZNK9__gnu_cxx17__normal_iteratorIPN7doctest16SubcaseSignatureESt6vectorIS2_SaIS2_EEE4baseEv
FNDA:4,_ZNK9__gnu_cxx17__normal_iteratorIPN7doctest6StringESt6vectorIS2_SaIS2_EEE4baseEv
FNDA:0,_ZNK9__gnu_cxx17__normal_iteratorIPNSt7__cxx1112basic_stringIcSt11char_traitsIcESaIcEEESt6vectorIS6_SaIS6_EEE4baseEv
FNDA:0,_ZNK9__gnu_cxx17__normal_iteratorIPPKN7doctest12TestCaseDataESt6vectorIS4_SaIS4_EEE4baseEv
FNDA:48,_ZNK9__gnu_cxx17__normal_iteratorIPPKN7doctest6detail20IExceptionTranslatorESt6vectorIS5_SaIS5_EEE4baseEv
FNDA:80,_ZNK9__gnu_cxx17__normal_iteratorIPPKN7doctest6detail8TestCaseESt6vectorIS5_SaIS5_EEE4baseEv
FNDA:528732,_ZNK9__gnu_cxx17__normal_iteratorIPPN6merkle5TreeTILm32EXadL_ZNS1_L14sha256_opensslERKNS1_5HashTILm32EEES6_RS4_EEE4NodeESt6vectorISA_SaISA_EEE4baseEv
FNDA:24815992,_ZNK9__gnu_cxx17__normal_iteratorIPPN6merkle5TreeTILm32EXadL_ZNS1_L15sha256_compressERKNS1_5HashTILm32EEES6_RS4_EEE4NodeESt6vectorISA_SaISA_EEE4baseEv
FNDA:1057519,_ZNK9__gnu_cxx17__normal_iteratorIPPN6merkle5TreeTILm48EXadL_ZNS1_L14sha384_opensslERKNS1_5HashTILm48EEES6_RS4_EEE4NodeESt6vectorISA_SaISA_EEE4baseEv
FNDA:1057519,_ZNK9__gnu_cxx17__normal_iteratorIPPN6merkle5TreeTILm64EXadL_ZNS1_L14sha512_opensslERKNS1_5HashTILm64EEES6_RS4_EEE4NodeESt6vectorISA_SaISA_EEE4baseEv
FNDA:0,_ZNK9__gnu_cxx17__normal_iteratorIPPN7doctest13IContextScopeESt6vectorIS3_SaIS3_EEE4baseEv
FNDA:1784,_ZNK9__gnu_cxx17__normal_iteratorIPPN7doctest9IReporterESt6vectorIS3_SaIS3_EEE4baseEv
FNDA:0,_ZNK9__gnu_cxx17__normal_iteratorIPSt4fposI11__mbstate_tESt6vectorIS3_SaIS3_EEE4baseEv
FNDA:0,_ZNK9__gnu_cxx17__normal_iteratorIPSt6vectorIN7doctest6StringESaIS3_EES1_IS5_SaIS5_EEE4baseEv
FNDA:138530,_ZNK9__gnu_cxx17__normal_iteratorIPhSt6vectorIhSaIhEEE4baseEv
FNDA:10198,_ZN9__gnu_cxxeqIPKPN6merkle5TreeTILm32EXadL_ZNS1_L15sha256_compressERKNS1_5HashTILm32EEES6_RS4_EEE4NodeEPSA_St6vectorISA_SaISA_EEEEbRKNS_17__normal_iteratorIT_T1_EERKNSH_IT0_SJ_EE
FNDA:0,_ZN9__gnu_cxxeqIPKPN6merkle5TreeTILm48EXadL_ZNS1_L14sha384_opensslERKNS1_5HashTILm48EEES6_RS4_EEE4NodeEPSA_St6vectorISA_SaISA_EEEEbRKNS_17__normal_iteratorIT_T1_EERKNSH_IT0_SJ_EE
FNDA:0,_ZN9__gnu_cxxeqIPKPN6merkle5TreeTILm64EXadL_ZNS1_L14sha512_opensslERKNS1_5HashTILm64EEES6_RS4_EEE4NodeEPSA_St6vectorISA_SaISA_EEEEbRKNS_17__normal_iteratorIT_T1_EERKNSH_IT0_SJ_EE
FNDA:663626,_ZN9__gnu_cxxeqIPKN6merkle5TreeTILm32EXadL_ZNS1_L14sha256_opensslERKNS1_5HashTILm32EEES6_RS4_EEEUt_ESt6vectorIS9_SaIS9_EEEEbRKNS_17__normal_iteratorIT_T0_EESK_
FNDA:25670396,_ZN9__gnu_cxxeqIPKN6merkle5TreeTILm32EXadL_ZNS1_L15sha256_compressERKNS1_5HashTILm32EEES6_RS4_EEEUt_ESt6vectorIS9_SaIS9_EEEEbRKNS_17__normal_iteratorIT_T0_EESK_
FNDA:1327405,_ZN9__gnu_cxxeqIPKN6merkle5TreeTILm48EXadL_ZNS1_L14sha384_opensslERKNS1_5HashTILm48EEES6_RS4_EEEUt_ESt6vectorIS9_SaIS9_EEEEbRKNS_17__normal_iteratorIT_T0_EESK_
FNDA:1327405,_ZN9__gnu_cxxeqIPKN6merkle5TreeTILm64EXadL_ZNS1_L14sha512_opensslERKNS1_5HashTILm64EEES6_RS4_EEEUt_ESt6vectorIS9_SaIS9_EEEEbRKNS_17__normal_iteratorIT_T0_EESK_
FNDA:24,_ZN9__gnu_cxxeqIPKN7doctest16SubcaseSignatureESt6vectorIS2_SaIS2_EEEEbRKNS_17__normal_iteratorIT_T0_EESD_
FNDA:76,_ZN9__gnu_cxxeqIPKN7doctest6StringESt6vectorIS2_SaIS2_EEEEbRKNS_17__normal_iteratorIT_T0_EESD_
FNDA:0,_ZN9__gnu_cxxeqIPKNSt7__cxx1112basic_stringIcSt11char_traitsIcESaIcEEESt6vectorIS6_SaIS6_EEEEbRKNS_17__normal_iteratorIT_T0_EESH_
FNDA:1,_ZN9__gnu_cxxeqIPKPKN7doctest6detail8TestCaseESt6vectorIS5_SaIS5_EEEEbRKNS_17__normal_iteratorIT_T0_EESG_
FNDA:548910,_ZN9__gnu_cxxeqIPKPN6merkle5TreeTILm32EXadL_ZNS1_L14sha256_opensslERKNS1_5HashTILm32EEES6_RS4_EEE4NodeESt6vectorISA_SaISA_EEEEbRKNS_17__normal_iteratorIT_T0_EESL_
FNDA:23861295,_ZN9__gnu_cxxeqIPKPN6merkle5TreeTILm32EXadL_ZNS1_L15sha256_compressERKNS1_5HashTILm32EEES6_RS4_EEE4NodeESt6vectorISA_SaISA_EEEEbRKNS_17__normal_iteratorIT_T0_EESL_
FNDA:1098040,_ZN9__gnu_cxxeqIPKPN6merkle5TreeTILm48EXadL_ZNS1_L14sha384_opensslERKNS1_5HashTILm48EEES6_RS4_EEE4NodeESt6vectorISA_SaISA_EEEEbRKNS_17__normal_iteratorIT_T0_EESL_
FNDA:1098040,_ZN9__gnu_cxxeqIPKPN6merkle5TreeTILm64EXadL_ZNS1_L14sha512_opensslERKNS1_5HashTILm64EEES6_RS4_EEE4NodeESt6vectorISA_SaISA_EEEEbRKNS_17__normal_iteratorIT_T0_EESL_
FNDA:0,_ZN9__gnu_cxxeqIPKPN7doctest9IReporterESt6vectorIS3_SaIS3_EEEEbRKNS_17__normal_iteratorIT_T0_EESE_
FNDA:0,_ZN9__gnu_cxxeqIPKSt4fposI11__mbstate_tESt6vectorIS3_SaIS3_EEEEbRKNS_17__normal_iteratorIT_T0_EESE_
FNDA:0,_ZN9__gnu_cxxeqIPPKN7doctest6detail20IExceptionTranslatorESt6vectorIS5_SaIS5_EEEEbRKNS_17__normal_iteratorIT_T0_EESF_
FNDA:1,_ZN9__gnu_cxxeqIPPKN7doctest6detail8TestCaseESt6vectorIS5_SaIS5_EEEEbRKNS_17__normal_iteratorIT_T0_EESF_
FNDA:524292,_ZN9__gnu_cxxneIPKN6merkle5HashTILm32EEESt6vectorIS3_SaIS3_EEEEbRKNS_17__normal_iteratorIT_T0_EESE_
FNDA:262146,_ZN9__gnu_cxxneIPKN6merkle5HashTILm48EEESt6vectorIS3_SaIS3_EEEEbRKNS_17__normal_iteratorIT_T0_EESE_
FNDA:262146,_ZN9__gnu_cxxneIPKN6merkle5HashTILm64EEESt6vectorIS3_SaIS3_EEEEbRKNS_17__normal_iteratorIT_T0_EESE_
FNDA:0,_ZN9__gnu_cxxneIPKN7doctest12_GLOBAL__N_113JUnitReporter17JUnitTestCaseData16JUnitTestMessageESt6vectorIS5_SaIS5_EEEEbRKNS_17__normal_iteratorIT_T0_EESG_
FNDA:0,_ZN9__gnu_cxxneIPKN7doctest16SubcaseSignatureESt6vectorIS2_SaIS2_EEEEbRKNS_17__normal_iteratorIT_T0_EESD_
FNDA:41,_ZN9__gnu_cxxneIPKN7doctest6StringESt6vectorIS2_SaIS2_EEEEbRKNS_17__normal_iteratorIT_T0_EESD_
FNDA:387199,_ZN9__gnu_cxxneIPKPN6merkle5TreeTILm32EXadL_ZNS1_L15sha256_compressERKNS1_5HashTILm32EEES6_RS4_EEE4NodeESt6vectorISA_SaISA_EEEEbRKNS_17__normal_iteratorIT_T0_EESL_
FNDA:1,_ZN9__gnu_cxxneIPKPN6merkle5TreeTILm48EXadL_ZNS1_L14sha384_opensslERKNS1_5HashTILm48EEES6_RS4_EEE4NodeESt6vectorISA_SaISA_EEEEbRKNS_17__normal_iteratorIT_T0_EESL_
FNDA:1,_ZN9__gnu_cxxneIPKPN6merkle5TreeTILm64EXadL_ZNS1_L14sha512_opensslERKNS1_5HashTILm64EEES6_RS4_EEE4NodeESt6vectorISA_SaISA_EEEEbRKNS_17__normal_iteratorIT_T0_EESL_
FNDA:9714934,_ZN9__gnu_cxxneIPN6merkle5HashTILm32EEESt6vectorIS3_SaIS3_EEEEbRKNS_17__normal_iteratorIT_T0_EESD_
FNDA:262211,_ZN9__gnu_cxxneIPN6merkle5HashTILm48EEESt6vectorIS3_SaIS3_EEEEbRKNS_17__normal_iteratorIT_T0_EESD_
FNDA:262211,_ZN9__gnu_cxxneIPN6merkle5HashTILm64EEESt6vectorIS3_SaIS3_EEEEbRKNS_17__normal_iteratorIT_T0_EESD_
FNDA:0,_ZN9__gnu_cxxneIPN7doctest12_GLOBAL__N_113JUnitReporter17JUnitTestCaseData13JUnitTestCaseESt6vectorIS5_SaIS5_EEEEbRKNS_17__normal_iteratorIT_T0_EESF_
FNDA:0,_ZN9__gnu_cxxneIPN7doctest16SubcaseSignatureESt6vectorIS2_SaIS2_EEEEbRKNS_17__normal_iteratorIT_T0_EESC_
FNDA:0,_ZN9__gnu_cxxneIPN7doctest6StringESt6vectorIS2_SaIS2_EEEEbRKNS_17__normal_iteratorIT_T0_EESC_
FNDA:24,_ZN9__gnu_cxxneIPPKN7doctest6detail20IExceptionTranslatorESt6vectorIS5_SaIS5_EEEEbRKNS_17__normal_iteratorIT_T0_EESF_
FNDA:26,_ZN9__gnu_cxxneIPPKN7doctest6detail8TestCaseESt6vectorIS5_SaIS5_EEEEbRKNS_17__normal_iteratorIT_T0_EESF_
FNDA:264222,_ZN9__gnu_cxxneIPPN6merkle5TreeTILm32EXadL_ZNS1_L14sha256_opensslERKNS1_5HashTILm32EEES6_RS4_EEE4NodeESt6vectorISA_SaISA_EEEEbRKNS_17__normal_iteratorIT_T0_EESK_
FNDA:11398613,_ZN9__gnu_cxxneIPPN6merkle5TreeTILm32EXadL_ZNS1_L15sha256_compressERKNS1_5HashTILm32EEES6_RS4_EEE4NodeESt6vectorISA_SaISA_EEEEbRKNS_17__normal_iteratorIT_T0_EESK_
FNDA:528489,_ZN9__gnu_cxxneIPPN6merkle5TreeTILm48EXadL_ZNS1_L14sha384_opensslERKNS1_5HashTILm48EEES6_RS4_EEE4NodeESt6vectorISA_SaISA_EEEEbRKNS_17__normal_iteratorIT_T0_EESK_
FNDA:528489,_ZN9__gnu_cxxneIPPN6merkle5TreeTILm64EXadL_ZNS1_L14sha512_opensslERKNS1_5HashTILm64EEES6_RS4_EEE4NodeESt6vectorISA_SaISA_EEEEbRKNS_17__normal_iteratorIT_T0_EESK_
FNDA:890,_ZN9__gnu_cxxneIPPN7doctest9IReporterESt6vectorIS3_SaIS3_EEEEbRKNS_17__normal_iteratorIT_T0_EESD_
FNDA:0,_ZN9__gnu_cxxneIPSt6vectorIN7doctest6StringESaIS3_EES1_IS5_SaIS5_EEEEbRKNS_17__normal_iteratorIT_T0_EESE_
FNDA:369,_ZN9__gnu_cxxneIPhSt6vectorIhSaIhEEEEbRKNS_17__normal_iteratorIT_T0_EESA_
FNDA:0,_ZN9__gnu_cxxltIPPKN7doctest6detail8TestCaseESt6vectorIS5_SaIS5_EEEEbRKNS_17__normal_iteratorIT_T0_EESF_
FNDA:12054,_ZN9__gnu_cxxmiIPKPN6merkle5TreeTILm32EXadL_ZNS1_L15sha256_compressERKNS1_5HashTILm32EEES6_RS4_EEE4NodeEPSA_St6vectorISA_SaISA_EEEEDTmicldtfp_4baseEcldtfp0_4baseEERKNS_17__normal_iteratorIT_T1_EERKNSI_IT0_SK_EE
FNDA:0,_ZN9__gnu_cxxmiIPKPN6merkle5TreeTILm48EXadL_ZNS1_L14sha384_opensslERKNS1_5HashTILm48EEES6_RS4_EEE4NodeEPSA_St6vectorISA_SaISA_EEEEDTmicldtfp_4baseEcldtfp0_4baseEERKNS_17__normal_iteratorIT_T1_EERKNSI_IT0_SK_EE
FNDA:0,_ZN9__gnu_cxxmiIPKPN6merkle5TreeTILm64EXadL_ZNS1_L14sha512_opensslERKNS1_5HashTILm64EEES6_RS4_EEE4NodeEPSA_St6vectorISA_SaISA_EEEEDTmicldtfp_4baseEcldtfp0_4baseEERKNS_17__normal_iteratorIT_T1_EERKNSI_IT0_SK_EE
FNDA:0,_ZN9__gnu_cxxmiIPKN7doctest16SubcaseSignatureESt6vectorIS2_SaIS2_EEEENS_17__normal_iteratorIT_T0_E15difference_typeERKSB_SE_
FNDA:352330,_ZN9__gnu_cxxmiIPKPN6merkle5TreeTILm32EXadL_ZNS1_L15sha256_compressERKNS1_5HashTILm32EEES6_RS4_EEE4NodeESt6vectorISA_SaISA_EEEENS_17__normal_iteratorIT_T0_E15difference_typeERKSJ_SM_
FNDA:2,_ZN9__gnu_cxxmiIPKPN6merkle5TreeTILm48EXadL_ZNS1_L14sha384_opensslERKNS1_5HashTILm48EEES6_RS4_EEE4NodeESt6vectorISA_SaISA_EEEENS_17__normal_iteratorIT_T0_E15difference_typeERKSJ_SM_
FNDA:2,_ZN9__gnu_cxxmiIPKPN6merkle5TreeTILm64EXadL_ZNS1_L14sha512_opensslERKNS1_5HashTILm64EEES6_RS4_EEE4NodeESt6vectorISA_SaISA_EEEENS_17__normal_iteratorIT_T0_E15difference_typeERKSJ_SM_
FNDA:0,_ZN9__gnu_cxxmiIPKPN7doctest9IReporterESt6vectorIS3_SaIS3_EEEENS_17__normal_iteratorIT_T0_E15difference_typeERKSC_SF_
FNDA:32884,_ZN9__gnu_cxxmiIPN6merkle5HashTILm32EEESt6vectorIS3_SaIS3_EEEENS_17__normal_iteratorIT_T0_E15difference_typeERKSB_SE_
FNDA:79,_ZN9__gnu_cxxmiIPN6merkle5HashTILm48EEESt6vectorIS3_SaIS3_EEEENS_17__normal_iteratorIT_T0_E15difference_typeERKSB_SE_
FNDA:79,_ZN9__gnu_cxxmiIPN6merkle5HashTILm64EEESt6vectorIS3_SaIS3_EEEENS_17__normal_iteratorIT_T0_E15difference_typeERKSB_SE_
FNDA:18,_ZN9__gnu_cxxmiIPN6merkle5TreeTILm32EXadL_ZNS1_L14sha256_opensslERKNS1_5HashTILm32EEES6_RS4_EEEUt_ESt6vectorIS9_SaIS9_EEEENS_17__normal_iteratorIT_T0_E15difference_typeERKSH_SK_
FNDA:4534,_ZN9__gnu_cxxmiIPN6merkle5TreeTILm32EXadL_ZNS1_L15sha256_compressERKNS1_5HashTILm32EEES6_RS4_EEEUt_ESt6vectorIS9_SaIS9_EEEENS_17__normal_iteratorIT_T0_E15difference_typeERKSH_SK_
FNDA:30,_ZN9__gnu_cxxmiIPN6merkle5TreeTILm48EXadL_ZNS1_L14sha384_opensslERKNS1_5HashTILm48EEES6_RS4_EEEUt_ESt6vectorIS9_SaIS9_EEEENS_17__normal_iteratorIT_T0_E15difference_typeERKSH_SK_
FNDA:30,_ZN9__gnu_cxxmiIPN6merkle5TreeTILm64EXadL_ZNS1_L14sha512_opensslERKNS1_5HashTILm64EEES6_RS4_EEEUt_ESt6vectorIS9_SaIS9_EEEENS_17__normal_iteratorIT_T0_E15difference_typeERKSH_SK_
FNDA:0,_ZN9__gnu_cxxmiIPN7doctest12_GLOBAL__N_113JUnitReporter17JUnitTestCaseData13JUnitTestCaseESt6vectorIS5_SaIS5_EEEENS_17__normal_iteratorIT_T0_E15difference_typeERKSD_SG_
FNDA:0,_ZN9__gnu_cxxmiIPN7doctest12_GLOBAL__N_113JUnitReporter17JUnitTestCaseData16JUnitTestMessageESt6vectorIS5_SaIS5_EEEENS_17__normal_iteratorIT_T0_E15difference_typeERKSD_SG_
FNDA:0,_ZN9__gnu_cxxmiIPN7doctest16SubcaseSignatureESt6vectorIS2_SaIS2_EEEENS_17__normal_iteratorIT_T0_E15difference_typeERKSA_SD_
FNDA:1,_ZN9__gnu_cxxmiIPN7doctest6StringESt6vectorIS2_SaIS2_EEEENS_17__normal_iteratorIT_T0_E15difference_typeERKSA_SD_
FNDA:0,_ZN9__gnu_cxxmiIPNSt7__cxx1112basic_stringIcSt11char_traitsIcESaIcEEESt6vectorIS6_SaIS6_EEEENS_17__normal_iteratorIT_T0_E15difference_typeERKSE_SH_
FNDA:0,_ZN9__gnu_cxxmiIPPKN7doctest12TestCaseDataESt6vectorIS4_SaIS4_EEEENS_17__normal_iteratorIT_T0_E15difference_typeERKSC_SF_
FNDA:0,_ZN9__gnu_cxxmiIPPKN7doctest6detail20IExceptionTranslatorESt6vectorIS5_SaIS5_EEEENS_17__normal_iteratorIT_T0_E15difference_typeERKSD_SG_
FNDA:8,_ZN9__gnu_cxxmiIPPKN7doctest6detail8TestCaseESt6vectorIS5_SaIS5_EEEENS_17__normal_iteratorIT_T0_E15difference_typeERKSD_SG_
FNDA:72,_ZN9__gnu_cxxmiIPPN6merkle5TreeTILm32EXadL_ZNS1_L14sha256_opensslERKNS1_5HashTILm32EEES6_RS4_EEE4NodeESt6vectorISA_SaISA_EEEENS_17__normal_iteratorIT_T0_E15difference_typeERKSI_SL_
FNDA:280893,_ZN9__gnu_cxxmiIPPN6merkle5TreeTILm32EXadL_ZNS1_L15sha256_compressERKNS1_5HashTILm32EEES6_RS4_EEE4NodeESt6vectorISA_SaISA_EEEENS_17__normal_iteratorIT_T0_E15difference_typeERKSI_SL_
