TN:
SF:/home/runner/work/merklecpp/merklecpp/merklecpp.h
FN:100,103,_ZN6merkle5HashTILm32EEC2Ev
FN:1023,1079,_ZN6merkle5TreeTILm32EXadL_ZNS_L15sha256_compressERKNS_5HashTILm32EEES4_RS2_EEE7walk_toEmbOKSt8functionIFbRPNS6_4NodeEbEE
FN:107,110,_ZN6merkle5HashTILm32EEC2EPKh
FN:1084,1100,_ZN6merkle5TreeTILm32EXadL_ZNS_L15sha256_compressERKNS_5HashTILm32EEES4_RS2_EEE4pathEm
FN:1090,1090,_ZZN6merkle5TreeTILm32EXadL_ZNS_L15sha256_compressERKNS_5HashTILm32EEES4_RS2_EEE4pathEmENKUlPNS6_4NodeEbE_clES8_b
FN:1109,1286,_ZN6merkle5TreeTILm32EXadL_ZNS_L15sha256_compressERKNS_5HashTILm32EEES4_RS2_EEE9past_pathEmm
FN:1290,1329,_ZN6merkle5TreeTILm32EXadL_ZNS_L15sha256_compressERKNS_5HashTILm32EEES4_RS2_EEE9serialiseERSt6vectorIhSaIhEE
FN:1316,1316,_ZZN6merkle5TreeTILm32EXadL_ZNS_L15sha256_compressERKNS_5HashTILm32EEES4_RS2_EEE9serialiseERSt6vectorIhSaIhEEENKUlRPNS6_4NodeEbE_clESD_b
FN:1335,1377,_ZN6merkle5TreeTILm32EXadL_ZNS_L15sha256_compressERKNS_5HashTILm32EEES4_RS2_EEE9serialiseEmmRSt6vectorIhSaIhEE
FN:1364,1364,_ZZN6merkle5TreeTILm32EXadL_ZNS_L15sha256_compressERKNS_5HashTILm32EEES4_RS2_EEE9serialiseEmmRSt6vectorIhSaIhEEENKUlRPNS6_4NodeEbE_clESD_b
FN:1381,1385,_ZN6merkle5TreeTILm32EXadL_ZNS_L15sha256_compressERKNS_5HashTILm32EEES4_RS2_EEE11deserialiseERKSt6vectorIhSaIhEE
FN:1390,1467,_ZN6merkle5TreeTILm32EXadL_ZNS_L15sha256_compressERKNS_5HashTILm32EEES4_RS2_EEE11deserialiseERKSt6vectorIhSaIhEERm
FN:142,149,_ZN6merkle5HashTILm32EEC2ERKSt6vectorIhSaIhEERm
FN:1488,1502,_ZNK6merkle5TreeTILm32EXadL_ZNS_L15sha256_compressERKNS_5HashTILm32EEES4_RS2_EEE4leafEm
FN:1508,1511,_ZNK6merkle5TreeTILm32EXadL_ZNS_L15sha256_compressERKNS_5HashTILm32EEES4_RS2_EEE10num_leavesEv
FN:1517,1520,_ZNK6merkle5TreeTILm32EXadL_ZNS_L15sha256_compressERKNS_5HashTILm32EEES4_RS2_EEE9min_indexEv
FN:1526,1530,_ZNK6merkle5TreeTILm32EXadL_ZNS_L15sha256_compressERKNS_5HashTILm32EEES4_RS2_EEE9max_indexEv
FN:1534,1537,_ZNK6merkle5TreeTILm32EXadL_ZNS_L15sha256_compressERKNS_5HashTILm32EEES4_RS2_EEE5emptyEv
FN:1543,1550,_ZN6merkle5TreeTILm32EXadL_ZNS_L15sha256_compressERKNS_5HashTILm32EEES4_RS2_EEE4sizeEv
FN:1555,1572,_ZN6merkle5TreeTILm32EXadL_ZNS_L15sha256_compressERKNS_5HashTILm32EEES4_RS2_EEE15serialised_sizeEv
FN:1561,1561,_ZZN6merkle5TreeTILm32EXadL_ZNS_L15sha256_compressERKNS_5HashTILm32EEES4_RS2_EEE15serialised_sizeEvENKUlRPNS6_4NodeEbE_clES9_b
FN:1578,1591,_ZN6merkle5TreeTILm32EXadL_ZNS_L15sha256_compressERKNS_5HashTILm32EEES4_RS2_EEE15serialised_sizeEmm
FN:1581,1581,_ZZN6merkle5TreeTILm32EXadL_ZNS_L15sha256_compressERKNS_5HashTILm32EEES4_RS2_EEE15serialised_sizeEmmENKUlRPNS6_4NodeEbE_clES9_b
FN:1622,1630,_ZNK6merkle5TreeTILm32EXadL_ZNS_L15sha256_compressERKNS_5HashTILm32EEES4_RS2_EEE10Statistics9to_stringEv
FN:1638,1689,_ZNK6merkle5TreeTILm32EXadL_ZNS_L15sha256_compressERKNS_5HashTILm32EEES4_RS2_EEE9to_stringEm
FN:1735,1748,_ZNK6merkle5TreeTILm32EXadL_ZNS_L15sha256_compressERKNS_5HashTILm32EEES4_RS2_EEE9leaf_nodeEm
FN:1755,1798,_ZNK6merkle5TreeTILm32EXadL_ZNS_L15sha256_compressERKNS_5HashTILm32EEES4_RS2_EEE4hashEPNS6_4NodeEm
FN:179,193,_ZNK6merkle5HashTILm32EE9to_stringB5cxx11Emb
FN:1801,1815,_ZN6merkle5TreeTILm32EXadL_ZNS_L15sha256_compressERKNS_5HashTILm32EEES4_RS2_EEE12compute_rootEv
FN:1822,1855,_ZN6merkle5TreeTILm32EXadL_ZNS_L15sha256_compressERKNS_5HashTILm32EEES4_RS2_EEE24continue_insertion_stackEPNS6_4NodeES8_
FN:1860,1910,_ZN6merkle5TreeTILm32EXadL_ZNS_L15sha256_compressERKNS_5HashTILm32EEES4_RS2_EEE23process_insertion_stackEb
FN:1915,1930,_ZN6merkle5TreeTILm32EXadL_ZNS_L15sha256_compressERKNS_5HashTILm32EEES4_RS2_EEE11insert_leafERPNS6_4NodeES8_
FN:1935,1954,_ZN6merkle5TreeTILm32EXadL_ZNS_L15sha256_compressERKNS_5HashTILm32EEES4_RS2_EEE13insert_leavesEb
FN:196,200,_ZN6merkle5HashTILm32EEaSERKS1_
FN:1965,2030,_ZN6merkleL15sha256_compressERKNS_5HashTILm32EEES3_RS1_
FN:203,206,_ZNK6merkle5HashTILm32EEeqERKS1_
FN:209,212,_ZNK6merkle5HashTILm32EEneERKS1_
FN:216,223,_ZNK6merkle5HashTILm32EE9serialiseERSt6vectorIhSaIhEE
FN:228,239,_ZN6merkle5HashTILm32EE11deserialiseERKSt6vectorIhSaIhEERm
FN:290,299,_ZN6merkle5PathTILm32EXadL_ZNS_L15sha256_compressERKNS_5HashTILm32EEES4_RS2_EEEC2ES4_mONSt7__cxx114listINS6_Ut0_ESaIS9_EEEm
FN:327,357,_ZNK6merkle5PathTILm32EXadL_ZNS_L15sha256_compressERKNS_5HashTILm32EEES4_RS2_EEE4rootEv
FN:362,365,_ZNK6merkle5PathTILm32EXadL_ZNS_L15sha256_compressERKNS_5HashTILm32EEES4_RS2_EEE6verifyES4_
FN:369,381,_ZNK6merkle5PathTILm32EXadL_ZNS_L15sha256_compressERKNS_5HashTILm32EEES4_RS2_EEE9serialiseERSt6vectorIhSaIhEE
FN:415,420,_ZNK6merkle5PathTILm32EXadL_ZNS_L15sha256_compressERKNS_5HashTILm32EEES4_RS2_EEEcvSt6vectorIhSaIhEEEv
FN:429,439,_ZNK6merkle5PathTILm32EXadL_ZNS_L15sha256_compressERKNS_5HashTILm32EEES4_RS2_EEE15serialised_sizeEv
FN:464,467,_ZNK6merkle5PathTILm32EXadL_ZNS_L15sha256_compressERKNS_5HashTILm32EEES4_RS2_EEE5beginEv
FN:470,473,_ZNK6merkle5PathTILm32EXadL_ZNS_L15sha256_compressERKNS_5HashTILm32EEES4_RS2_EEE3endEv
FN:478,489,_ZNK6merkle5PathTILm32EXadL_ZNS_L15sha256_compressERKNS_5HashTILm32EEES4_RS2_EEE9to_stringEmb
FN:48,67,_ZN6merkleL18convert_endiannessEj
FN:492,495,_ZNK6merkle5PathTILm32EXadL_ZNS_L15sha256_compressERKNS_5HashTILm32EEES4_RS2_EEE4leafEv
FN:498,516,_ZNK6merkle5PathTILm32EXadL_ZNS_L15sha256_compressERKNS_5HashTILm32EEES4_RS2_EEEeqERKS6_
FN:519,522,_ZN6merkle5PathTILm32EXadL_ZNS_L15sha256_compressERKNS_5HashTILm32EEES4_RS2_EEEneERKS6_
FN:555,564,_ZN6merkle5TreeTILm32EXadL_ZNS_L15sha256_compressERKNS_5HashTILm32EEES4_RS2_EEE4Node4makeES4_
FN:569,579,_ZN6merkle5TreeTILm32EXadL_ZNS_L15sha256_compressERKNS_5HashTILm32EEES4_RS2_EEE4Node4makeEPS7_S8_
FN:588,631,_ZN6merkle5TreeTILm32EXadL_ZNS_L15sha256_compressERKNS_5HashTILm32EEES4_RS2_EEE4Node9copy_nodeEPKS7_PSt6vectorIPS7_SaISB_EEPmmmm
FN:636,645,_ZN6merkle5TreeTILm32EXadL_ZNS_L15sha256_compressERKNS_5HashTILm32EEES4_RS2_EEE4Node9invariantEv
FN:647,654,_ZN6merkle5TreeTILm32EXadL_ZNS_L15sha256_compressERKNS_5HashTILm32EEES4_RS2_EEE4NodeD2Ev
FN:659,664,_ZNK6merkle5TreeTILm32EXadL_ZNS_L15sha256_compressERKNS_5HashTILm32EEES4_RS2_EEE4Node7is_fullEv
FN:667,678,_ZN6merkle5TreeTILm32EXadL_ZNS_L15sha256_compressERKNS_5HashTILm32EEES4_RS2_EEE4Node12update_sizesEv
FN:69,77,_ZN6merkleL18serialise_uint64_tEmRSt6vectorIhSaIhEE
FN:712,712,_ZN6merkle5TreeTILm32EXadL_ZNS_L15sha256_compressERKNS_5HashTILm32EEES4_RS2_EEEC2Ev
FN:715,718,_ZN6merkle5TreeTILm32EXadL_ZNS_L15sha256_compressERKNS_5HashTILm32EEES4_RS2_EEEC2ERKS6_
FN:734,737,_ZN6merkle5TreeTILm32EXadL_ZNS_L15sha256_compressERKNS_5HashTILm32EEES4_RS2_EEEC2ERKSt6vectorIhSaIhEE
FN:755,762,_ZN6merkle5TreeTILm32EXadL_ZNS_L15sha256_compressERKNS_5HashTILm32EEES4_RS2_EEED2Ev
FN:765,768,_ZN6merkle5TreeTILm32EXadL_ZNS_L15sha256_compressERKNS_5HashTILm32EEES4_RS2_EEE9invariantEv
FN:779,786,_ZN6merkle5TreeTILm32EXadL_ZNS_L15sha256_compressERKNS_5HashTILm32EEES4_RS2_EEE6insertES4_
FN:79,89,_ZN6merkleL20deserialise_uint64_tERKSt6vectorIhSaIhEERm
FN:812,845,_ZN6merkle5TreeTILm32EXadL_ZNS_L15sha256_compressERKNS_5HashTILm32EEES4_RS2_EEE8flush_toEm
FN:822,822,_ZZN6merkle5TreeTILm32EXadL_ZNS_L15sha256_compressERKNS_5HashTILm32EEES4_RS2_EEE8flush_toEmENKUlRPNS6_4NodeEbE_clES9_b
FN:851,937,_ZN6merkle5TreeTILm32EXadL_ZNS_L15sha256_compressERKNS_5HashTILm32EEES4_RS2_EEE10retract_toEm
FN:878,878,_ZZN6merkle5TreeTILm32EXadL_ZNS_L15sha256_compressERKNS_5HashTILm32EEES4_RS2_EEE10retract_toEmENKUlRPNS6_4NodeEbE_clES9_b
FN:942,969,_ZN6merkle5TreeTILm32EXadL_ZNS_L15sha256_compressERKNS_5HashTILm32EEES4_RS2_EEEaSERKS6_
FN:973,983,_ZN6merkle5TreeTILm32EXadL_ZNS_L15sha256_compressERKNS_5HashTILm32EEES4_RS2_EEE4rootEv
FN:992,1014,_ZN6merkle5TreeTILm32EXadL_ZNS_L15sha256_compressERKNS_5HashTILm32EEES4_RS2_EEE9past_rootEm
FNDA:37753101,_ZN6merkle5HashTILm32EEC2Ev
FNDA:129613,_ZN6merkle5TreeTILm32EXadL_ZNS_L15sha256_compressERKNS_5HashTILm32EEES4_RS2_EEE7walk_toEmbOKSt8functionIFbRPNS6_4NodeEbEE
FNDA:8392,_ZN6merkle5HashTILm32EEC2EPKh
FNDA:19812,_ZN6merkle5TreeTILm32EXadL_ZNS_L15sha256_compressERKNS_5HashTILm32EEES4_RS2_EEE4pathEm
FNDA:224716,_ZZN6merkle5TreeTILm32EXadL_ZNS_L15sha256_compressERKNS_5HashTILm32EEES4_RS2_EEE4pathEmENKUlPNS6_4NodeEbE_clES8_b
FNDA:2447,_ZN6merkle5TreeTILm32EXadL_ZNS_L15sha256_compressERKNS_5HashTILm32EEES4_RS2_EEE9past_pathEmm
FNDA:34,_ZN6merkle5TreeTILm32EXadL_ZNS_L15sha256_compressERKNS_5HashTILm32EEES4_RS2_EEE9serialiseERSt6vectorIhSaIhEE
FNDA:320,_ZZN6merkle5TreeTILm32EXadL_ZNS_L15sha256_compressERKNS_5HashTILm32EEES4_RS2_EEE9serialiseERSt6vectorIhSaIhEEENKUlRPNS6_4NodeEbE_clESD_b
FNDA:1004,_ZN6merkle5TreeTILm32EXadL_ZNS_L15sha256_compressERKNS_5HashTILm32EEES4_RS2_EEE9serialiseEmmRSt6vectorIhSaIhEE
FNDA:8432,_ZZN6merkle5TreeTILm32EXadL_ZNS_L15sha256_compressERKNS_5HashTILm32EEES4_RS2_EEE9serialiseEmmRSt6vectorIhSaIhEEENKUlRPNS6_4NodeEbE_clESD_b
FNDA:1038,_ZN6merkle5TreeTILm32EXadL_ZNS_L15sha256_compressERKNS_5HashTILm32EEES4_RS2_EEE11deserialiseERKSt6vectorIhSaIhEE
FNDA:1038,_ZN6merkle5TreeTILm32EXadL_ZNS_L15sha256_compressERKNS_5HashTILm32EEES4_RS2_EEE11deserialiseERKSt6vectorIhSaIhEERm
FNDA:6027,_ZN6merkle5HashTILm32EEC2ERKSt6vectorIhSaIhEERm
FNDA:7715,_ZNK6merkle5TreeTILm32EXadL_ZNS_L15sha256_compressERKNS_5HashTILm32EEES4_RS2_EEE4leafEm
FNDA:13989747,_ZNK6merkle5TreeTILm32EXadL_ZNS_L15sha256_compressERKNS_5HashTILm32EEES4_RS2_EEE10num_leavesEv
FNDA:5531867,_ZNK6merkle5TreeTILm32EXadL_ZNS_L15sha256_compressERKNS_5HashTILm32EEES4_RS2_EEE9min_indexEv
FNDA:13761420,_ZNK6merkle5TreeTILm32EXadL_ZNS_L15sha256_compressERKNS_5HashTILm32EEES4_RS2_EEE9max_indexEv
FNDA:2106,_ZNK6merkle5TreeTILm32EXadL_ZNS_L15sha256_compressERKNS_5HashTILm32EEES4_RS2_EEE5emptyEv
FNDA:64,_ZN6merkle5TreeTILm32EXadL_ZNS_L15sha256_compressERKNS_5HashTILm32EEES4_RS2_EEE4sizeEv
FNDA:1068,_ZN6merkle5TreeTILm32EXadL_ZNS_L15sha256_compressERKNS_5HashTILm32EEES4_RS2_EEE15serialised_sizeEv
FNDA:8344,_ZZN6merkle5TreeTILm32EXadL_ZNS_L15sha256_compressERKNS_5HashTILm32EEES4_RS2_EEE15serialised_sizeEvENKUlRPNS6_4NodeEbE_clES9_b
FNDA:1004,_ZN6merkle5TreeTILm32EXadL_ZNS_L15sha256_compressERKNS_5HashTILm32EEES4_RS2_EEE15serialised_sizeEmm
FNDA:8432,_ZZN6merkle5TreeTILm32EXadL_ZNS_L15sha256_compressERKNS_5HashTILm32EEES4_RS2_EEE15serialised_sizeEmmENKUlRPNS6_4NodeEbE_clES9_b
FNDA:2,_ZNK6merkle5TreeTILm32EXadL_ZNS_L15sha256_compressERKNS_5HashTILm32EEES4_RS2_EEE10Statistics9to_stringEv
FNDA:1,_ZNK6merkle5TreeTILm32EXadL_ZNS_L15sha256_compressERKNS_5HashTILm32EEES4_RS2_EEE9to_stringEm
FNDA:22259,_ZNK6merkle5TreeTILm32EXadL_ZNS_L15sha256_compressERKNS_5HashTILm32EEES4_RS2_EEE9leaf_nodeEm
FNDA:120780,_ZNK6merkle5TreeTILm32EXadL_ZNS_L15sha256_compressERKNS_5HashTILm32EEES4_RS2_EEE4hashEPNS6_4NodeEm
FNDA:74,_ZNK6merkle5HashTILm32EE9to_stringB5cxx11Emb
FNDA:151932,_ZN6merkle5TreeTILm32EXadL_ZNS_L15sha256_compressERKNS_5HashTILm32EEES4_RS2_EEE12compute_rootEv
FNDA:4713355,_ZN6merkle5TreeTILm32EXadL_ZNS_L15sha256_compressERKNS_5HashTILm32EEES4_RS2_EEE24continue_insertion_stackEPNS6_4NodeES8_
FNDA:4827902,_ZN6merkle5TreeTILm32EXadL_ZNS_L15sha256_compressERKNS_5HashTILm32EEES4_RS2_EEE23process_insertion_stackEb
FNDA:4713852,_ZN6merkle5TreeTILm32EXadL_ZNS_L15sha256_compressERKNS_5HashTILm32EEES4_RS2_EEE11insert_leafERPNS6_4NodeES8_
FNDA:151932,_ZN6merkle5TreeTILm32EXadL_ZNS_L15sha256_compressERKNS_5HashTILm32EEES4_RS2_EEE13insert_leavesEb
FNDA:33085367,_ZN6merkle5HashTILm32EEaSERKS1_
FNDA:5608747,_ZN6merkleL15sha256_compressERKNS_5HashTILm32EEES3_RS1_
FNDA:6026,_ZNK6merkle5HashTILm32EEeqERKS1_
FNDA:43281,_ZNK6merkle5HashTILm32EEneERKS1_
FNDA:32079,_ZNK6merkle5HashTILm32EE9serialiseERSt6vectorIhSaIhEE
FNDA:6027,_ZN6merkle5HashTILm32EE11deserialiseERKSt6vectorIhSaIhEERm
FNDA:22259,_ZN6merkle5PathTILm32EXadL_ZNS_L15sha256_compressERKNS_5HashTILm32EEES4_RS2_EEEC2ES4_mONSt7__cxx114listINS6_Ut0_ESaIS9_EEEm
FNDA:7908,_ZNK6merkle5PathTILm32EXadL_ZNS_L15sha256_compressERKNS_5HashTILm32EEES4_RS2_EEE4rootEv
FNDA:5022,_ZNK6merkle5PathTILm32EXadL_ZNS_L15sha256_compressERKNS_5HashTILm32EEES4_RS2_EEE6verifyES4_
FNDA:1132,_ZNK6merkle5PathTILm32EXadL_ZNS_L15sha256_compressERKNS_5HashTILm32EEES4_RS2_EEE9serialiseERSt6vectorIhSaIhEE
FNDA:11,_ZNK6merkle5PathTILm32EXadL_ZNS_L15sha256_compressERKNS_5HashTILm32EEES4_RS2_EEEcvSt6vectorIhSaIhEEEv
FNDA:1121,_ZNK6merkle5PathTILm32EXadL_ZNS_L15sha256_compressERKNS_5HashTILm32EEES4_RS2_EEE15serialised_sizeEv
FNDA:16233,_ZNK6merkle5PathTILm32EXadL_ZNS_L15sha256_compressERKNS_5HashTILm32EEES4_RS2_EEE5beginEv
FNDA:16233,_ZNK6merkle5PathTILm32EXadL_ZNS_L15sha256_compressERKNS_5HashTILm32EEES4_RS2_EEE3endEv
FNDA:11,_ZNK6merkle5PathTILm32EXadL_ZNS_L15sha256_compressERKNS_5HashTILm32EEES4_RS2_EEE9to_stringEmb
FNDA:134609928,_ZN6merkleL18convert_endiannessEj
FNDA:16233,_ZNK6merkle5PathTILm32EXadL_ZNS_L15sha256_compressERKNS_5HashTILm32EEES4_RS2_EEE4leafEv
FNDA:2447,_ZNK6merkle5PathTILm32EXadL_ZNS_L15sha256_compressERKNS_5HashTILm32EEES4_RS2_EEEeqERKS6_
FNDA:1443,_ZN6merkle5PathTILm32EXadL_ZNS_L15sha256_compressERKNS_5HashTILm32EEES4_RS2_EEEneERKS6_
FNDA:32748686,_ZN6merkle5TreeTILm32EXadL_ZNS_L15sha256_compressERKNS_5HashTILm32EEES4_RS2_EEE4Node4makeES4_
FNDA:4726736,_ZN6merkle5TreeTILm32EXadL_ZNS_L15sha256_compressERKNS_5HashTILm32EEES4_RS2_EEE4Node4makeEPS7_S8_
FNDA:43214551,_ZN6merkle5TreeTILm32EXadL_ZNS_L15sha256_compressERKNS_5HashTILm32EEES4_RS2_EEE4Node9copy_nodeEPKS7_PSt6vectorIPS7_SaISB_EEPmmmm
FNDA:3090007889,_ZN6merkle5TreeTILm32EXadL_ZNS_L15sha256_compressERKNS_5HashTILm32EEES4_RS2_EEE4Node9invariantEv
FNDA:37475422,_ZN6merkle5TreeTILm32EXadL_ZNS_L15sha256_compressERKNS_5HashTILm32EEES4_RS2_EEE4NodeD2Ev
FNDA:26852891,_ZNK6merkle5TreeTILm32EXadL_ZNS_L15sha256_compressERKNS_5HashTILm32EEES4_RS2_EEE4Node7is_fullEv
FNDA:50045554,_ZN6merkle5TreeTILm32EXadL_ZNS_L15sha256_compressERKNS_5HashTILm32EEES4_RS2_EEE4Node12update_sizesEv
FNDA:5472,_ZN6merkleL18serialise_uint64_tEmRSt6vectorIhSaIhEE
FNDA:602,_ZN6merkle5TreeTILm32EXadL_ZNS_L15sha256_compressERKNS_5HashTILm32EEES4_RS2_EEEC2Ev
FNDA:1443,_ZN6merkle5TreeTILm32EXadL_ZNS_L15sha256_compressERKNS_5HashTILm32EEES4_RS2_EEEC2ERKS6_
FNDA:1037,_ZN6merkle5TreeTILm32EXadL_ZNS_L15sha256_compressERKNS_5HashTILm32EEES4_RS2_EEEC2ERKSt6vectorIhSaIhEE
FNDA:3082,_ZN6merkle5TreeTILm32EXadL_ZNS_L15sha256_compressERKNS_5HashTILm32EEES4_RS2_EEED2Ev
FNDA:1825398,_ZN6merkle5TreeTILm32EXadL_ZNS_L15sha256_compressERKNS_5HashTILm32EEES4_RS2_EEE9invariantEv
FNDA:11237562,_ZN6merkle5TreeTILm32EXadL_ZNS_L15sha256_compressERKNS_5HashTILm32EEES4_RS2_EEE6insertES4_
FNDA:2076,_ZN6merkleL20deserialise_uint64_tERKSt6vectorIhSaIhEERm
FNDA:91197,_ZN6merkle5TreeTILm32EXadL_ZNS_L15sha256_compressERKNS_5HashTILm32EEES4_RS2_EEE8flush_toEm
FNDA:806336,_ZZN6merkle5TreeTILm32EXadL_ZNS_L15sha256_compressERKNS_5HashTILm32EEES4_RS2_EEE8flush_toEmENKUlRPNS6_4NodeEbE_clES9_b
FNDA:4587598,_ZN6merkle5TreeTILm32EXadL_ZNS_L15sha256_compressERKNS_5HashTILm32EEES4_RS2_EEE10retract_toEm
FNDA:193815,_ZZN6merkle5TreeTILm32EXadL_ZNS_L15sha256_compressERKNS_5HashTILm32EEES4_RS2_EEE10retract_toEmENKUlRPNS6_4NodeEbE_clES9_b
FNDA:1443,_ZN6merkle5TreeTILm32EXadL_ZNS_L15sha256_compressERKNS_5HashTILm32EEES4_RS2_EEEaSERKS6_
FNDA:18834,_ZN6merkle5TreeTILm32EXadL_ZNS_L15sha256_compressERKNS_5HashTILm32EEES4_RS2_EEE4rootEv
FNDA:16233,_ZN6merkle5TreeTILm32EXadL_ZNS_L15sha256_compressERKNS_5HashTILm32EEES4_RS2_EEE9past_rootEm
FNF:74
FNH:74
DA:48,134609928
DA:50,134609928
DA:53,134609928
DA:69,5472
DA:71,5472
DA:72,5472
DA:73,49248
DA:75,43776
DA:77,5472
DA:79,2076
DA:82,2076
DA:83,2076
DA:84,18684
DA:86,16608
DA:88,2076
DA:100,37753101
DA:102,37753101
DA:103,37753101
DA:107,8392
DA:109,8392
DA:110,8392
DA:142,6027
DA:144,6027
DA:146,0
DA:148,6027
DA:149,6027
DA:179,74
DA:182,74
DA:183,74
DA:184,354
DA:186,280
DA:187,280
DA:188,280
DA:190,280
DA:192,74
DA:196,33085367
DA:198,33085367
DA:199,33085367
DA:203,6026
DA:205,6026
DA:209,43281
DA:211,43281
DA:216,32079
DA:219,1058607
DA:221,1026528
DA:223,32079
DA:228,6027
DA:231,6027
DA:233,0
DA:235,198891
DA:237,192864
DA:239,6027
DA:290,22259
DA:295,22259
DA:296,22259
DA:297,22259
DA:298,22259
DA:299,22259
DA:327,7908
DA:329,7908
DA:330,7908
DA:334,103572
DA:336,95664
DA:342,49233
DA:350,46431
DA:356,7908
DA:362,5022
DA:364,5022
DA:369,1132
DA:372,1132
DA:373,1132
DA:374,1132
DA:375,1132
DA:376,17660
DA:378,16528
DA:379,16528
DA:381,1132
DA:415,11
DA:417,11
DA:418,11
DA:419,11
DA:420,0
DA:429,1121
DA:435,1121
DA:438,1121
DA:464,16233
DA:466,16233
DA:470,16233
DA:472,16233
DA:478,11
DA:481,11
DA:482,11
DA:483,51
DA:486,40
DA:488,22
DA:489,11
DA:492,16233
DA:494,16233
DA:498,2447
DA:500,2447
DA:502,0
DA:504,2447
DA:505,2447
DA:506,28018
DA:508,25571
DA:510,0
DA:512,25571
DA:513,25571
DA:515,2447
DA:519,1443
DA:521,1443
DA:555,32748686
DA:557,32748686
DA:558,32748686
DA:559,32748686
DA:560,32748686
DA:561,32748686
DA:562,32748686
DA:563,32748686
DA:569,4726736
DA:571,4726736
DA:572,4726736
DA:573,4726736
DA:574,4726736
DA:575,4726736
DA:576,4726736
DA:577,4726736
DA:578,4726736
DA:588,43214551
DA:596,43214551
DA:598,21717846
DA:601,21496705
DA:602,21496705
DA:603,21496705
DA:604,21496705
DA:605,42993410
DA:606,21496705
DA:612,42993410
DA:613,21496705
DA:619,21496705
DA:621,10633953
DA:623,10633255
DA:627,698
DA:630,21496705
DA:636,3090007889
DA:638,3090007889
DA:639,3090007889
DA:640,3090007889
DA:641,3090007889
DA:642,3090007889
DA:643,3090007889
DA:644,3090007889
DA:647,37475422
DA:649,37475422
DA:652,37475422
DA:653,37475422
DA:654,37475422
DA:659,26852891
DA:661,26852891
DA:662,26852891
DA:663,26852891
DA:667,50045554
DA:669,50045554
DA:671,17255537
DA:672,17255537
DA:676,32790017
DA:678,50045554
DA:712,602
DA:715,1443
DA:716,1443
DA:717,1443
DA:718,1443
DA:734,1037
DA:735,1037
DA:736,1037
DA:737,1037
DA:755,3082
DA:757,3082
DA:758,4553
DA:760,1471
DA:762,3082
DA:765,1825398
DA:767,1825398
DA:779,11237562
DA:784,11237562
DA:785,11237562
DA:786,11237562
DA:812,91197
DA:815,91197
DA:817,91197
DA:819,6129
DA:822,85068
DA:823,806336
DA:829,584213
DA:831,0
DA:833,584213
DA:834,584213
DA:835,584213
DA:836,584213
DA:838,806336
DA:841,85068
DA:842,170136
DA:843,170136
DA:844,85068
DA:851,4587598
DA:854,4587598
DA:856,4587598
DA:858,0
DA:861,4587598
DA:863,0
DA:866,4587598
DA:868,4565975
DA:869,11307912
DA:871,6741937
DA:872,6741937
DA:874,4565975
DA:878,21623
DA:879,193815
DA:880,193815
DA:881,193815
DA:887,59453
DA:889,59453
DA:890,59453
DA:891,59453
DA:893,59453
DA:895,59453
DA:896,59453
DA:897,59453
DA:899,59453
DA:901,48540
DA:904,59453
DA:910,1337
DA:913,59453
DA:918,59453
DA:920,134362
DA:924,21623
DA:926,21623
DA:927,21623
DA:929,21623
DA:933,0
DA:936,21623
DA:942,1443
DA:944,1443
DA:945,1443
DA:947,0
DA:949,1443
DA:950,1443
DA:951,1443
DA:952,1443
DA:954,1443
DA:955,1443
DA:956,1443
DA:961,221141
DA:963,219698
DA:965,1443
DA:966,1443
DA:967,1443
DA:968,1443
DA:973,18834
DA:976,18834
DA:977,18834
DA:978,18834
DA:982,18834
DA:992,16233
DA:995,16233
DA:997,16233
DA:998,16233
DA:1005,198850
DA:1007,182617
DA:1009,89511
DA:1013,32466
DA:1014,16233
DA:1023,129613
DA:1026,129613
DA:1028,0
DA:1031,129613
DA:1033,129613
DA:1035,129613
DA:1036,129613
DA:1037,129613
DA:1039,129613
DA:1041,129613
DA:1043,1829593
DA:1045,1699980
DA:1046,1699980
DA:1047,1699980
DA:1049,315543
DA:1057,1699980
DA:1059,1250395
DA:1061,59453
DA:1063,1190942
DA:1065,1640527
DA:1066,1640527
DA:1069,129613
DA:1071,337166
DA:1073,315543
DA:1074,315543
DA:1078,129613
DA:1084,19812
DA:1087,19812
DA:1088,19812
DA:1090,19812
DA:1091,224716
DA:1092,224716
DA:1093,224716
DA:1094,224716
DA:1095,224716
DA:1099,39624
DA:1100,19812
DA:1109,2447
DA:1113,2447
DA:1115,2447
DA:1116,4894
DA:1117,4894
DA:1119,0
DA:1122,2447
DA:1124,2447
DA:1130,2447
DA:1131,2447
DA:1132,2447
DA:1133,2447
DA:1135,2447
DA:1136,2447
DA:1137,2447
DA:1138,2447
DA:1139,2447
DA:1141,2447
DA:1142,2447
DA:1145,32609
DA:1147,30162
DA:1148,30162
DA:1149,30162
DA:1161,30162
DA:1163,2343
DA:1164,2343
DA:1169,2343
DA:1172,30162
DA:1175,9328
DA:1176,9328
DA:1178,6694
DA:1180,4737
DA:1181,4737
DA:1182,4737
DA:1183,4737
DA:1185,6694
DA:1191,20834
DA:1193,20834
DA:1194,20834
DA:1195,20834
DA:1196,20834
DA:1197,20834
DA:1199,20834
DA:1204,19717
DA:1206,10812
DA:1207,10812
DA:1208,10812
DA:1209,10812
DA:1211,19717
DA:1215,30162
DA:1216,30162
DA:1217,30162
DA:1239,2447
DA:1242,2447
DA:1244,2343
DA:1246,20938
DA:1248,18491
DA:1251,2447
DA:1256,2343
DA:1257,2343
DA:1259,2343
DA:1261,10812
DA:1263,8469
DA:1271,2343
DA:1272,2343
DA:1273,2343
DA:1274,2343
DA:1279,7184
DA:1281,4737
DA:1285,4894
DA:1286,2447
DA:1290,34
DA:1294,34
DA:1295,34
DA:1296,34
DA:1297,357
DA:1299,323
DA:1301,388
DA:1303,354
DA:1306,34
DA:1310,34
DA:1315,34
DA:1316,34
DA:1317,320
DA:1319,222
DA:1321,320
DA:1324,256
DA:1326,222
DA:1328,34
DA:1329,34
DA:1335,1004
DA:1340,1004
DA:1341,3012
DA:1342,3012
DA:1344,0
DA:1347,1004
DA:1348,1004
DA:1349,8719
DA:1351,7715
DA:1354,1004
DA:1358,1004
DA:1363,1004
DA:1364,1004
DA:1365,8432
DA:1367,5805
DA:1369,8432
DA:1372,6809
DA:1374,5805
DA:1376,1004
DA:1377,1004
DA:1381,1038
DA:1383,1038
DA:1384,1038
DA:1385,1038
DA:1390,1038
DA:1394,1038
DA:1395,1038
DA:1396,1038
DA:1398,0
DA:1400,1038
DA:1401,1038
DA:1402,1038
DA:1403,1038
DA:1404,1038
DA:1406,1038
DA:1407,1038
DA:1409,1038
DA:1410,9430
DA:1412,8392
DA:1413,8392
DA:1414,8392
DA:1417,1038
DA:1418,1038
DA:1419,1038
DA:1420,1038
DA:1421,12450
DA:1424,11412
DA:1426,6027
DA:1428,6027
DA:1429,6027
DA:1430,6027
DA:1431,6027
DA:1432,6027
DA:1441,30187
DA:1443,18775
DA:1445,5394
DA:1449,13381
DA:1453,11412
DA:1454,11412
DA:1456,11412
DA:1457,11412
DA:1460,1038
DA:1462,1038
DA:1464,1038
DA:1465,1038
DA:1467,1038
DA:1488,7715
DA:1491,7715
DA:1493,0
DA:1495,7715
DA:1498,251
DA:1499,251
DA:1501,7464
DA:1508,13989747
DA:1510,13989747
DA:1517,5531867
DA:1519,5531867
DA:1526,13761420
DA:1528,13761420
DA:1529,13761420
DA:1534,2106
DA:1536,2106
DA:1543,64
DA:1545,64
DA:1547,0
DA:1549,64
DA:1555,1068
DA:1557,1068
DA:1559,1068
DA:1561,1068
DA:1562,8344
DA:1564,6245
DA:1566,8344
DA:1571,2136
DA:1578,1004
DA:1580,1004
DA:1581,1004
DA:1582,8432
DA:1584,5805
DA:1586,8432
DA:1590,1004
DA:1622,2
DA:1624,2
DA:1625,2
DA:1626,2
DA:1627,2
DA:1628,2
DA:1629,4
DA:1630,2
DA:1638,1
DA:1640,3
DA:1641,1
DA:1642,1
DA:1643,1
DA:1645,1
DA:1647,0
DA:1648,0
DA:1651,1
DA:1653,0
DA:1657,1
DA:1658,1
DA:1659,6
DA:1661,5
DA:1662,26
DA:1664,21
DA:1665,21
DA:1666,21
DA:1668,10
DA:1670,21
DA:1672,10
DA:1674,21
DA:1676,5
DA:1677,5
DA:1678,5
DA:1683,1
DA:1684,1
DA:1685,1
DA:1686,1
DA:1688,1
DA:1689,1
DA:1735,22259
DA:1738,22259
DA:1740,0
DA:1742,22259
DA:1744,0
DA:1745,0
DA:1747,22259
DA:1755,120780
DA:1761,120780
DA:1762,120780
DA:1763,120780
DA:1765,10830206
DA:1767,10709426
DA:1768,10709426
DA:1770,10709426
DA:1772,2311743
DA:1774,8397683
DA:1776,2982580
DA:1780,5415103
DA:1781,5415103
DA:1783,0
DA:1785,5415103
DA:1786,5415103
DA:1794,5415103
DA:1795,5415103
DA:1798,120780
DA:1801,151932
DA:1803,151932
DA:1804,151932
DA:1806,0
DA:1808,151932
DA:1809,151932
DA:1810,151932
DA:1812,120780
DA:1813,120780
DA:1815,151932
DA:1822,4713355
DA:1824,7541234
DA:1829,12254589
DA:1831,12254589
DA:1833,4713355
DA:1834,4713355
DA:1835,4713355
DA:1836,4713355
DA:1839,7541234
DA:1840,7541234
DA:1841,7541234
DA:1842,7541234
DA:1843,7541234
DA:1844,7541234
DA:1846,0
DA:1847,0
DA:1851,7541234
DA:1852,7541234
DA:1860,4827902
DA:1871,4827902
DA:1872,4827902
DA:1874,4827902
DA:1875,4827902
DA:1877,7551881
DA:1879,7426687
DA:1880,7426687
DA:1881,7426687
DA:1882,7426687
DA:1884,7426687
DA:1886,0
DA:1890,7426687
DA:1892,7426687
DA:1893,7426687
DA:1895,7426687
DA:1897,7426687
DA:1903,4702708
DA:1907,125194
DA:1909,125194
DA:1915,4713852
DA:1920,4713852
DA:1921,4713852
DA:1923,497
DA:1927,4713355
DA:1928,4713355
DA:1930,4713852
DA:1935,151932
DA:1937,151932
DA:1944,4832240
DA:1946,4713852
DA:1948,118388
DA:1950,151932
DA:1952,114547
DA:1954,151932
DA:1965,5608747
DA:1978,5608747
DA:1979,5608747
DA:1984,5608747
DA:1986,95348699
DA:1987,89739952
DA:1990,274828603
DA:1991,269219856
DA:1992,269219856
DA:1993,269219856
DA:1994,269219856
DA:1995,269219856
DA:1996,269219856
DA:1997,269219856
DA:2001,50478723
DA:2002,44869976
DA:2005,364568555
DA:2006,358959808
DA:2007,358959808
DA:2008,358959808
DA:2009,358959808
DA:2010,358959808
DA:2011,358959808
DA:2012,358959808
DA:2013,358959808
DA:2014,358959808
DA:2015,358959808
DA:2016,358959808
DA:2017,358959808
DA:2018,358959808
DA:2019,358959808
DA:2020,358959808
DA:2021,358959808
DA:2022,358959808
DA:2023,358959808
DA:2024,358959808
DA:2027,50478723
DA:2028,44869976
DA:2030,5608747
LF:667
LH:640
end_of_record
TN:
SF:/home/runner/work/merklecpp/merklecpp/test/demo_tree.cpp
FN:18,91,main
FNDA:1,main
FNF:1
FNH:1
DA:18,1
DA:22,1
DA:24,1
DA:27,1
DA:28,12
DA:30,11
DA:32,1
DA:33,1
DA:36,1
DA:37,12
DA:39,11
DA:40,11
DA:41,11
DA:42,11
DA:43,11
DA:45,0
DA:47,11
DA:48,11
DA:51,1
DA:52,1
DA:53,1
DA:54,1
DA:56,0
DA:59,1
DA:60,1
DA:79,0
DA:81,0
DA:82,0
DA:83,0
DA:84,0
DA:86,0
DA:87,0
DA:88,0
DA:90,1
LF:34
LH:24
end_of_record
TN:
SF:/home/runner/work/merklecpp/merklecpp/test/flush.cpp
FN:14,86,main
FNDA:1,main
FNF:1
FNH:1
DA:14,1
DA:16,1
DA:17,1
DA:18,1
DA:19,1
DA:24,1
DA:25,1
DA:26,1
DA:33,1
DA:34,1
DA:36,33
DA:40,32
DA:41,32
DA:43,32
DA:45,32
DA:46,979983
DA:48,979951
DA:49,979951
DA:51,49157
DA:52,49157
DA:56,544
DA:58,512
DA:59,512
DA:60,512
DA:62,0
DA:66,32
DA:68,1
DA:69,1
DA:70,1
DA:72,32
DA:74,0
DA:76,0
DA:77,0
DA:78,0
DA:79,0
DA:81,0
DA:82,0
DA:83,0
DA:85,1
LF:39
LH:30
end_of_record
TN:
SF:/home/runner/work/merklecpp/merklecpp/test/partial_serialisation.cpp
FN:17,139,main
FNDA:1,main
FNF:1
FNH:1
DA:17,1
DA:19,1
DA:20,1
DA:21,1
DA:22,1
DA:27,1
DA:28,1
DA:29,1
DA:36,1
DA:37,1
DA:38,1
DA:39,1
DA:41,65
DA:44,64
DA:46,64
DA:47,64
DA:48,64
DA:51,64
DA:52,254670
DA:54,254606
DA:55,254606
DA:56,254606
DA:57,254606
DA:59,12666
DA:60,12666
DA:61,12666
DA:62,12666
DA:64,254606
DA:66,12756
DA:67,12756
DA:68,12756
DA:69,12756
DA:73,1068
DA:74,1068
DA:77,1004
DA:78,1004
DA:79,1004
DA:81,437
DA:85,1004
DA:86,1004
DA:89,1004
DA:92,1004
DA:93,1004
DA:94,1004
DA:95,1004
DA:96,1004
DA:97,1004
DA:98,1004
DA:100,1004
DA:101,2008
DA:102,2008
DA:105,0
DA:107,0
DA:108,0
DA:111,1004
DA:113,1004
DA:114,1004
DA:115,12
DA:117,1
DA:118,1
DA:119,1
DA:120,1
DA:122,1004
DA:123,64
DA:125,0
DA:127,0
DA:128,0
DA:129,0
DA:130,0
DA:131,0
DA:133,0
DA:134,0
DA:135,0
DA:136,0
DA:138,1
LF:75
LH:62
end_of_record
TN:
SF:/home/runner/work/merklecpp/merklecpp/test/past_paths.cpp
FN:15,29,_Z14past_root_specRKN6merkle5TreeTILm32EXadL_ZNS_L15sha256_compressERKNS_5HashTILm32EEES4_RS2_EEEEmm
FN:31,169,main
FNDA:1443,_Z14past_root_specRKN6merkle5TreeTILm32EXadL_ZNS_L15sha256_compressERKNS_5HashTILm32EEES4_RS2_EEEEmm
FNDA:1,main
FNF:2
FNH:2
DA:15,1443
DA:18,1443
DA:19,1443
DA:20,1443
DA:25,1443
DA:26,1443
DA:27,1443
DA:28,2886
DA:29,1443
DA:31,1
DA:33,1
DA:34,1
DA:35,1
DA:36,1
DA:38,1
DA:43,1
DA:44,1
DA:45,1
DA:52,1
DA:53,1
DA:54,1
DA:56,1
DA:58,1
DA:59,25
DA:61,24
DA:62,24
DA:64,24
DA:65,24
DA:67,24
DA:68,219722
DA:70,219698
DA:78,1467
DA:79,1467
DA:82,1443
DA:83,1443
DA:84,1443
DA:86,728
DA:89,1443
DA:90,1443
DA:92,1443
DA:94,68
DA:96,20
DA:97,20
DA:98,20
DA:116,1443
DA:117,1443
DA:118,1443
DA:129,1443
DA:131,0
DA:134,1443
DA:136,0
DA:139,1443
DA:141,0
DA:144,1443
DA:146,24
DA:147,24
DA:148,24
DA:151,1443
DA:152,1443
DA:153,24
DA:154,1
DA:155,0
DA:157,0
DA:158,0
DA:159,0
DA:160,0
DA:161,0
DA:163,0
DA:164,0
DA:165,0
DA:166,0
DA:168,1
LF:72
LH:59
end_of_record
TN:
SF:/home/runner/work/merklecpp/merklecpp/test/past_root.cpp
FN:17,141,main
FNDA:1,main
FNF:1
FNH:1
DA:17,1
DA:19,1
DA:20,1
DA:21,1
DA:22,1
DA:24,1
DA:30,64
DA:32,63
DA:35,63
DA:37,63
DA:38,2142
DA:40,2079
DA:41,2079
DA:43,63
DA:46,63
DA:47,2142
DA:49,2079
DA:52,2142
DA:54,2079
DA:55,2079
DA:57,0
DA:58,0
DA:59,0
DA:60,0
DA:61,0
DA:63,2079
DA:64,63
DA:66,1
DA:69,1
DA:70,1
DA:76,1
DA:77,1
DA:79,65
DA:82,64
DA:83,64
DA:84,64
DA:85,64
DA:89,64
DA:90,236302
DA:92,236238
DA:93,236238
DA:95,11707
DA:98,64
DA:101,64
DA:102,236302
DA:104,236238
DA:108,11771
DA:110,11707
DA:111,11707
DA:112,11707
DA:114,0
DA:115,0
DA:116,0
DA:117,0
DA:119,11707
DA:121,64
DA:123,1
DA:124,1
DA:125,1
DA:127,64
DA:129,0
DA:131,0
DA:132,0
DA:133,0
DA:134,0
DA:136,0
DA:137,0
DA:138,0
DA:140,1
LF:69
LH:52
end_of_record
TN:
SF:/home/runner/work/merklecpp/merklecpp/test/paths.cpp
FN:15,88,main
FNDA:1,main
FNF:1
FNH:1
DA:15,1
DA:17,1
DA:18,1
DA:19,1
DA:20,1
DA:25,1
DA:26,1
DA:27,1
DA:34,1
DA:35,1
DA:37,65
DA:40,64
DA:41,64
DA:43,64
DA:44,64
DA:46,64
DA:48,64
DA:49,2109850
DA:51,2109786
DA:53,64
DA:55,1185
DA:58,1121
DA:59,1121
DA:60,1121
DA:62,0
DA:64,1121
DA:65,1121
DA:66,1121
DA:68,0
DA:70,1121
DA:71,64
DA:73,1
DA:74,1
DA:76,0
DA:78,0
DA:79,0
DA:80,0
DA:81,0
DA:83,0
DA:84,0
DA:85,0
DA:87,1
LF:42
LH:32
end_of_record
TN:
SF:/home/runner/work/merklecpp/merklecpp/test/retract.cpp
FN:15,99,main
FNDA:1,main
FNF:1
FNH:1
DA:15,1
DA:17,1
DA:18,1
DA:19,1
DA:20,1
DA:25,1
DA:26,1
DA:27,1
DA:34,1
DA:35,1
DA:37,129
DA:40,128
DA:41,128
DA:43,128
DA:45,128
DA:46,4326633
DA:48,4326505
DA:49,4326505
DA:51,2164226
DA:52,2164226
DA:53,2164226
DA:54,2164226
DA:55,2164226
DA:56,2164226
DA:58,0
DA:62,4326505
DA:64,215701
DA:65,215701
DA:69,468
DA:71,468
DA:72,468
DA:73,468
DA:75,128
DA:79,128
DA:81,1
DA:82,1
DA:83,1
DA:85,128
DA:87,0
DA:89,0
DA:90,0
DA:91,0
DA:92,0
DA:94,0
DA:95,0
DA:96,0
DA:98,1
LF:47
LH:38
end_of_record
TN:
SF:/home/runner/work/merklecpp/merklecpp/test/serialisation.cpp
FN:17,113,main
FNDA:1,main
FNF:1
FNH:1
DA:17,1
DA:19,1
DA:20,1
DA:21,1
DA:22,1
DA:27,1
DA:28,1
DA:34,1
DA:35,1
DA:36,1
DA:38,33
DA:41,32
DA:42,32
DA:43,32
DA:46,32
DA:47,575094
DA:49,575062
DA:50,575062
DA:51,575062
DA:52,575062
DA:54,28831
DA:55,28831
DA:56,28831
DA:57,28831
DA:59,575062
DA:61,28778
DA:62,28778
DA:63,28778
DA:64,28778
DA:69,32
DA:70,32
DA:73,32
DA:76,32
DA:77,64
DA:78,64
DA:79,32
DA:80,96
DA:81,32
DA:84,0
DA:86,0
DA:87,0
DA:90,32
DA:92,1
DA:93,1
DA:95,1
DA:97,32
DA:99,0
DA:101,0
DA:102,0
DA:103,0
DA:104,0
DA:105,0
DA:107,0
DA:108,0
DA:109,0
DA:110,0
DA:112,1
LF:57
LH:44
end_of_record
TN:
SF:/home/runner/work/merklecpp/merklecpp/test/serialise_to_file.cpp
FN:19,87,main
FNDA:1,main
FNF:1
FNH:1
DA:19,1
DA:23,1
DA:25,1
DA:26,1
DA:27,12
DA:29,11
DA:31,1
DA:32,1
DA:36,1
DA:37,1
DA:39,1
DA:40,1
DA:41,1
DA:42,369
DA:44,368
DA:45,368
DA:47,1
DA:48,1
DA:49,1
DA:50,1
DA:53,1
DA:54,1
DA:56,1
DA:57,1
DA:58,1
DA:59,370
DA:61,369
DA:62,369
DA:64,1
DA:65,1
DA:66,1
DA:67,1
DA:68,1
DA:70,0
DA:72,1
DA:73,1
DA:75,0
DA:77,0
DA:78,0
DA:79,0
DA:80,0
DA:82,0
DA:83,0
DA:84,0
DA:86,1
LF:45
LH:36
end_of_record
TN:
SF:/home/runner/work/merklecpp/merklecpp/test/time_large_trees.cpp
FN:17,150,main
FNDA:1,main
FNF:1
FNH:1
DA:17,1
DA:22,1
DA:23,1
DA:29,1
DA:31,1
DA:32,1
DA:33,1
DA:34,131073
DA:36,131072
DA:37,131072
DA:39,1024
DA:42,1
DA:43,1
DA:45,1
DA:46,1
DA:47,1
DA:48,2
DA:49,1
DA:137,1
DA:138,0
DA:140,0
DA:141,0
DA:142,0
DA:143,0
DA:145,0
DA:146,0
DA:147,0
DA:149,1
LF:28
LH:20
end_of_record
TN:
SF:/home/runner/work/merklecpp/merklecpp/test/util.h
FN:11,22,_Z11make_hashesmm
FN:39,44,_Z12random_indexRN6merkle5TreeTILm32EXadL_ZNS_L15sha256_compressERKNS_5HashTILm32EEES4_RS2_EEEE
FN:46,57,_Z11get_timeoutv
FN:59,69,_Z9timed_outdRKNSt6chrono10time_pointINS_3_V212system_clockENS_8durationIlSt5ratioILl1ELl1000000000EEEEEE
FNDA:451,_Z11make_hashesmm
FNDA:353763,_Z12random_indexRN6merkle5TreeTILm32EXadL_ZNS_L15sha256_compressERKNS_5HashTILm32EEES4_RS2_EEEE
FNDA:7,_Z11get_timeoutv
FNDA:3952,_Z9timed_outdRKNSt6chrono10time_pointINS_3_V212system_clockENS_8durationIlSt5ratioILl1ELl1000000000EEEEEE
FNF:4
FNH:4
DA:11,451
DA:13,451
DA:14,451
DA:15,8632156
DA:17,8631705
DA:18,8665227
DA:21,902
DA:22,0
DA:39,353763
DA:42,353763
DA:43,353763
DA:46,7
DA:48,7
DA:49,7
DA:50,7
DA:52,0
DA:53,0
DA:55,7
DA:56,7
DA:59,3952
DA:63,3952
DA:65,3952
DA:66,3952
DA:67,3952
DA:68,3952
LF:25
LH:22
end_of_record
