TN:
SF:/home/runner/work/merklecpp/merklecpp/merklecpp.h
FN:100,103,_ZN6merkle5HashTILm32EEC2Ev
FN:100,103,_ZN6merkle5HashTILm48EEC2Ev
FN:100,103,_ZN6merkle5HashTILm64EEC2Ev
FN:1023,1079,_ZN6merkle5TreeTILm32EXadL_ZNS_L14sha256_opensslERKNS_5HashTILm32EEES4_RS2_EEE7walk_toEmbOKSt8functionIFbRPNS6_4NodeEbEE
FN:1023,1079,_ZN6merkle5TreeTILm32EXadL_ZNS_L15sha256_compressERKNS_5HashTILm32EEES4_RS2_EEE7walk_toEmbOKSt8functionIFbRPNS6_4NodeEbEE
FN:1023,1079,_ZN6merkle5TreeTILm48EXadL_ZNS_L14sha384_opensslERKNS_5HashTILm48EEES4_RS2_EEE7walk_toEmbOKSt8functionIFbRPNS6_4NodeEbEE
FN:1023,1079,_ZN6merkle5TreeTILm64EXadL_ZNS_L14sha512_opensslERKNS_5HashTILm64EEES4_RS2_EEE7walk_toEmbOKSt8functionIFbRPNS6_4NodeEbEE
FN:107,110,_ZN6merkle5HashTILm32EEC2EPKh
FN:107,110,_ZN6merkle5HashTILm48EEC2EPKh
FN:107,110,_ZN6merkle5HashTILm64EEC2EPKh
FN:1084,1100,_ZN6merkle5TreeTILm32EXadL_ZNS_L14sha256_opensslERKNS_5HashTILm32EEES4_RS2_EEE4pathEm
FN:1084,1100,_ZN6merkle5TreeTILm32EXadL_ZNS_L15sha256_compressERKNS_5HashTILm32EEES4_RS2_EEE4pathEm
FN:1084,1100,_ZN6merkle5TreeTILm48EXadL_ZNS_L14sha384_opensslERKNS_5HashTILm48EEES4_RS2_EEE4pathEm
FN:1084,1100,_ZN6merkle5TreeTILm64EXadL_ZNS_L14sha512_opensslERKNS_5HashTILm64EEES4_RS2_EEE4pathEm
FN:1090,1090,_ZZN6merkle5TreeTILm32EXadL_ZNS_L14sha256_opensslERKNS_5HashTILm32EEES4_RS2_EEE4pathEmENKUlPNS6_4NodeEbE_clES8_b
FN:1090,1090,_ZZN6merkle5TreeTILm32EXadL_ZNS_L15sha256_compressERKNS_5HashTILm32EEES4_RS2_EEE4pathEmENKUlPNS6_4NodeEbE_clES8_b
FN:1090,1090,_ZZN6merkle5TreeTILm48EXadL_ZNS_L14sha384_opensslERKNS_5HashTILm48EEES4_RS2_EEE4pathEmENKUlPNS6_4NodeEbE_clES8_b
FN:1090,1090,_ZZN6merkle5TreeTILm64EXadL_ZNS_L14sha512_opensslERKNS_5HashTILm64EEES4_RS2_EEE4pathEmENKUlPNS6_4NodeEbE_clES8_b
FN:1109,1286,_ZN6merkle5TreeTILm32EXadL_ZNS_L15sha256_compressERKNS_5HashTILm32EEES4_RS2_EEE9past_pathEmm
FN:1109,1286,_ZN6merkle5TreeTILm48EXadL_ZNS_L14sha384_opensslERKNS_5HashTILm48EEES4_RS2_EEE9past_pathEmm
FN:1109,1286,_ZN6merkle5TreeTILm64EXadL_ZNS_L14sha512_opensslERKNS_5HashTILm64EEES4_RS2_EEE9past_pathEmm
FN:1290,1329,_ZN6merkle5TreeTILm32EXadL_ZNS_L15sha256_compressERKNS_5HashTILm32EEES4_RS2_EEE9serialiseERSt6vectorIhSaIhEE
FN:1290,1329,_ZN6merkle5TreeTILm48EXadL_ZNS_L14sha384_opensslERKNS_5HashTILm48EEES4_RS2_EEE9serialiseERSt6vectorIhSaIhEE
FN:1290,1329,_ZN6merkle5TreeTILm64EXadL_ZNS_L14sha512_opensslERKNS_5HashTILm64EEES4_RS2_EEE9serialiseERSt6vectorIhSaIhEE
FN:1316,1316,_ZZN6merkle5TreeTILm32EXadL_ZNS_L15sha256_compressERKNS_5HashTILm32EEES4_RS2_EEE9serialiseERSt6vectorIhSaIhEEENKUlRPNS6_4NodeEbE_clESD_b
FN:1316,1316,_ZZN6merkle5TreeTILm48EXadL_ZNS_L14sha384_opensslERKNS_5HashTILm48EEES4_RS2_EEE9serialiseERSt6vectorIhSaIhEEENKUlRPNS6_4NodeEbE_clESD_b
FN:1316,1316,_ZZN6merkle5TreeTILm64EXadL_ZNS_L14sha512_opensslERKNS_5HashTILm64EEES4_RS2_EEE9serialiseERSt6vectorIhSaIhEEENKUlRPNS6_4NodeEbE_clESD_b
FN:1335,1377,_ZN6merkle5TreeTILm32EXadL_ZNS_L15sha256_compressERKNS_5HashTILm32EEES4_RS2_EEE9serialiseEmmRSt6vectorIhSaIhEE
FN:1364,1364,_ZZN6merkle5TreeTILm32EXadL_ZNS_L15sha256_compressERKNS_5HashTILm32EEES4_RS2_EEE9serialiseEmmRSt6vectorIhSaIhEEENKUlRPNS6_4NodeEbE_clESD_b
FN:1381,1385,_ZN6merkle5TreeTILm32EXadL_ZNS_L15sha256_compressERKNS_5HashTILm32EEES4_RS2_EEE11deserialiseERKSt6vectorIhSaIhEE
FN:1381,1385,_ZN6merkle5TreeTILm48EXadL_ZNS_L14sha384_opensslERKNS_5HashTILm48EEES4_RS2_EEE11deserialiseERKSt6vectorIhSaIhEE
FN:1381,1385,_ZN6merkle5TreeTILm64EXadL_ZNS_L14sha512_opensslERKNS_5HashTILm64EEES4_RS2_EEE11deserialiseERKSt6vectorIhSaIhEE
FN:1390,1467,_ZN6merkle5TreeTILm32EXadL_ZNS_L15sha256_compressERKNS_5HashTILm32EEES4_RS2_EEE11deserialiseERKSt6vectorIhSaIhEERm
FN:1390,1467,_ZN6merkle5TreeTILm48EXadL_ZNS_L14sha384_opensslERKNS_5HashTILm48EEES4_RS2_EEE11deserialiseERKSt6vectorIhSaIhEERm
FN:1390,1467,_ZN6merkle5TreeTILm64EXadL_ZNS_L14sha512_opensslERKNS_5HashTILm64EEES4_RS2_EEE11deserialiseERKSt6vectorIhSaIhEERm
FN:142,149,_ZN6merkle5HashTILm32EEC2ERKSt6vectorIhSaIhEERm
FN:142,149,_ZN6merkle5HashTILm48EEC2ERKSt6vectorIhSaIhEERm
FN:142,149,_ZN6merkle5HashTILm64EEC2ERKSt6vectorIhSaIhEERm
FN:1488,1502,_ZNK6merkle5TreeTILm32EXadL_ZNS_L15sha256_compressERKNS_5HashTILm32EEES4_RS2_EEE4leafEm
FN:1488,1502,_ZNK6merkle5TreeTILm48EXadL_ZNS_L14sha384_opensslERKNS_5HashTILm48EEES4_RS2_EEE4leafEm
FN:1488,1502,_ZNK6merkle5TreeTILm64EXadL_ZNS_L14sha512_opensslERKNS_5HashTILm64EEES4_RS2_EEE4leafEm
FN:1508,1511,_ZNK6merkle5TreeTILm32EXadL_ZNS_L14sha256_opensslERKNS_5HashTILm32EEES4_RS2_EEE10num_leavesEv
FN:1508,1511,_ZNK6merkle5TreeTILm32EXadL_ZNS_L15sha256_compressERKNS_5HashTILm32EEES4_RS2_EEE10num_leavesEv
FN:1508,1511,_ZNK6merkle5TreeTILm48EXadL_ZNS_L14sha384_opensslERKNS_5HashTILm48EEES4_RS2_EEE10num_leavesEv
FN:1508,1511,_ZNK6merkle5TreeTILm64EXadL_ZNS_L14sha512_opensslERKNS_5HashTILm64EEES4_RS2_EEE10num_leavesEv
FN:1517,1520,_ZNK6merkle5TreeTILm32EXadL_ZNS_L14sha256_opensslERKNS_5HashTILm32EEES4_RS2_EEE9min_indexEv
FN:1517,1520,_ZNK6merkle5TreeTILm32EXadL_ZNS_L15sha256_compressERKNS_5HashTILm32EEES4_RS2_EEE9min_indexEv
FN:1517,1520,_ZNK6merkle5TreeTILm48EXadL_ZNS_L14sha384_opensslERKNS_5HashTILm48EEES4_RS2_EEE9min_indexEv
FN:1517,1520,_ZNK6merkle5TreeTILm64EXadL_ZNS_L14sha512_opensslERKNS_5HashTILm64EEES4_RS2_EEE9min_indexEv
FN:1526,1530,_ZNK6merkle5TreeTILm32EXadL_ZNS_L14sha256_opensslERKNS_5HashTILm32EEES4_RS2_EEE9max_indexEv
FN:1526,1530,_ZNK6merkle5TreeTILm32EXadL_ZNS_L15sha256_compressERKNS_5HashTILm32EEES4_RS2_EEE9max_indexEv
FN:1526,1530,_ZNK6merkle5TreeTILm48EXadL_ZNS_L14sha384_opensslERKNS_5HashTILm48EEES4_RS2_EEE9max_indexEv
FN:1526,1530,_ZNK6merkle5TreeTILm64EXadL_ZNS_L14sha512_opensslERKNS_5HashTILm64EEES4_RS2_EEE9max_indexEv
FN:1534,1537,_ZNK6merkle5TreeTILm32EXadL_ZNS_L15sha256_compressERKNS_5HashTILm32EEES4_RS2_EEE5emptyEv
FN:1534,1537,_ZNK6merkle5TreeTILm48EXadL_ZNS_L14sha384_opensslERKNS_5HashTILm48EEES4_RS2_EEE5emptyEv
FN:1534,1537,_ZNK6merkle5TreeTILm64EXadL_ZNS_L14sha512_opensslERKNS_5HashTILm64EEES4_RS2_EEE5emptyEv
FN:1543,1550,_ZN6merkle5TreeTILm32EXadL_ZNS_L15sha256_compressERKNS_5HashTILm32EEES4_RS2_EEE4sizeEv
FN:1543,1550,_ZN6merkle5TreeTILm48EXadL_ZNS_L14sha384_opensslERKNS_5HashTILm48EEES4_RS2_EEE4sizeEv
FN:1543,1550,_ZN6merkle5TreeTILm64EXadL_ZNS_L14sha512_opensslERKNS_5HashTILm64EEES4_RS2_EEE4sizeEv
FN:1555,1572,_ZN6merkle5TreeTILm32EXadL_ZNS_L15sha256_compressERKNS_5HashTILm32EEES4_RS2_EEE15serialised_sizeEv
FN:1561,1561,_ZZN6merkle5TreeTILm32EXadL_ZNS_L15sha256_compressERKNS_5HashTILm32EEES4_RS2_EEE15serialised_sizeEvENKUlRPNS6_4NodeEbE_clES9_b
FN:1578,1591,_ZN6merkle5TreeTILm32EXadL_ZNS_L15sha256_compressERKNS_5HashTILm32EEES4_RS2_EEE15serialised_sizeEmm
FN:1581,1581,_ZZN6merkle5TreeTILm32EXadL_ZNS_L15sha256_compressERKNS_5HashTILm32EEES4_RS2_EEE15serialised_sizeEmmENKUlRPNS6_4NodeEbE_clES9_b
FN:159,162,_ZNK6merkle5HashTILm32EE4sizeEv
FN:159,162,_ZNK6merkle5HashTILm48EE4sizeEv
FN:159,162,_ZNK6merkle5HashTILm64EE4sizeEv
FN:1622,1630,_ZNK6merkle5TreeTILm32EXadL_ZNS_L15sha256_compressERKNS_5HashTILm32EEES4_RS2_EEE10Statistics9to_stringEv
FN:1622,1630,_ZNK6merkle5TreeTILm48EXadL_ZNS_L14sha384_opensslERKNS_5HashTILm48EEES4_RS2_EEE10Statistics9to_stringEv
FN:1622,1630,_ZNK6merkle5TreeTILm64EXadL_ZNS_L14sha512_opensslERKNS_5HashTILm64EEES4_RS2_EEE10Statistics9to_stringEv
FN:1638,1689,_ZNK6merkle5TreeTILm32EXadL_ZNS_L15sha256_compressERKNS_5HashTILm32EEES4_RS2_EEE9to_stringEm
FN:1735,1748,_ZNK6merkle5TreeTILm32EXadL_ZNS_L14sha256_opensslERKNS_5HashTILm32EEES4_RS2_EEE9leaf_nodeEm
FN:1735,1748,_ZNK6merkle5TreeTILm32EXadL_ZNS_L15sha256_compressERKNS_5HashTILm32EEES4_RS2_EEE9leaf_nodeEm
FN:1735,1748,_ZNK6merkle5TreeTILm48EXadL_ZNS_L14sha384_opensslERKNS_5HashTILm48EEES4_RS2_EEE9leaf_nodeEm
FN:1735,1748,_ZNK6merkle5TreeTILm64EXadL_ZNS_L14sha512_opensslERKNS_5HashTILm64EEES4_RS2_EEE9leaf_nodeEm
FN:1755,1798,_ZNK6merkle5TreeTILm32EXadL_ZNS_L14sha256_opensslERKNS_5HashTILm32EEES4_RS2_EEE4hashEPNS6_4NodeEm
FN:1755,1798,_ZNK6merkle5TreeTILm32EXadL_ZNS_L15sha256_compressERKNS_5HashTILm32EEES4_RS2_EEE4hashEPNS6_4NodeEm
FN:1755,1798,_ZNK6merkle5TreeTILm48EXadL_ZNS_L14sha384_opensslERKNS_5HashTILm48EEES4_RS2_EEE4hashEPNS6_4NodeEm
FN:1755,1798,_ZNK6merkle5TreeTILm64EXadL_ZNS_L14sha512_opensslERKNS_5HashTILm64EEES4_RS2_EEE4hashEPNS6_4NodeEm
FN:179,193,_ZNK6merkle5HashTILm32EE9to_stringB5cxx11Emb
FN:1801,1815,_ZN6merkle5TreeTILm32EXadL_ZNS_L14sha256_opensslERKNS_5HashTILm32EEES4_RS2_EEE12compute_rootEv
FN:1801,1815,_ZN6merkle5TreeTILm32EXadL_ZNS_L15sha256_compressERKNS_5HashTILm32EEES4_RS2_EEE12compute_rootEv
FN:1801,1815,_ZN6merkle5TreeTILm48EXadL_ZNS_L14sha384_opensslERKNS_5HashTILm48EEES4_RS2_EEE12compute_rootEv
FN:1801,1815,_ZN6merkle5TreeTILm64EXadL_ZNS_L14sha512_opensslERKNS_5HashTILm64EEES4_RS2_EEE12compute_rootEv
FN:1822,1855,_ZN6merkle5TreeTILm32EXadL_ZNS_L14sha256_opensslERKNS_5HashTILm32EEES4_RS2_EEE24continue_insertion_stackEPNS6_4NodeES8_
FN:1822,1855,_ZN6merkle5TreeTILm32EXadL_ZNS_L15sha256_compressERKNS_5HashTILm32EEES4_RS2_EEE24continue_insertion_stackEPNS6_4NodeES8_
FN:1822,1855,_ZN6merkle5TreeTILm48EXadL_ZNS_L14sha384_opensslERKNS_5HashTILm48EEES4_RS2_EEE24continue_insertion_stackEPNS6_4NodeES8_
FN:1822,1855,_ZN6merkle5TreeTILm64EXadL_ZNS_L14sha512_opensslERKNS_5HashTILm64EEES4_RS2_EEE24continue_insertion_stackEPNS6_4NodeES8_
FN:1860,1910,_ZN6merkle5TreeTILm32EXadL_ZNS_L14sha256_opensslERKNS_5HashTILm32EEES4_RS2_EEE23process_insertion_stackEb
FN:1860,1910,_ZN6merkle5TreeTILm32EXadL_ZNS_L15sha256_compressERKNS_5HashTILm32EEES4_RS2_EEE23process_insertion_stackEb
FN:1860,1910,_ZN6merkle5TreeTILm48EXadL_ZNS_L14sha384_opensslERKNS_5HashTILm48EEES4_RS2_EEE23process_insertion_stackEb
FN:1860,1910,_ZN6merkle5TreeTILm64EXadL_ZNS_L14sha512_opensslERKNS_5HashTILm64EEES4_RS2_EEE23process_insertion_stackEb
FN:1915,1930,_ZN6merkle5TreeTILm32EXadL_ZNS_L14sha256_opensslERKNS_5HashTILm32EEES4_RS2_EEE11insert_leafERPNS6_4NodeES8_
FN:1915,1930,_ZN6merkle5TreeTILm32EXadL_ZNS_L15sha256_compressERKNS_5HashTILm32EEES4_RS2_EEE11insert_leafERPNS6_4NodeES8_
FN:1915,1930,_ZN6merkle5TreeTILm48EXadL_ZNS_L14sha384_opensslERKNS_5HashTILm48EEES4_RS2_EEE11insert_leafERPNS6_4NodeES8_
FN:1915,1930,_ZN6merkle5TreeTILm64EXadL_ZNS_L14sha512_opensslERKNS_5HashTILm64EEES4_RS2_EEE11insert_leafERPNS6_4NodeES8_
FN:1935,1954,_ZN6merkle5TreeTILm32EXadL_ZNS_L14sha256_opensslERKNS_5HashTILm32EEES4_RS2_EEE13insert_leavesEb
FN:1935,1954,_ZN6merkle5TreeTILm32EXadL_ZNS_L15sha256_compressERKNS_5HashTILm32EEES4_RS2_EEE13insert_leavesEb
FN:1935,1954,_ZN6merkle5TreeTILm48EXadL_ZNS_L14sha384_opensslERKNS_5HashTILm48EEES4_RS2_EEE13insert_leavesEb
FN:1935,1954,_ZN6merkle5TreeTILm64EXadL_ZNS_L14sha512_opensslERKNS_5HashTILm64EEES4_RS2_EEE13insert_leavesEb
FN:196,200,_ZN6merkle5HashTILm32EEaSERKS1_
FN:196,200,_ZN6merkle5HashTILm48EEaSERKS1_
FN:196,200,_ZN6merkle5HashTILm64EEaSERKS1_
FN:1965,2030,_ZN6merkleL15sha256_compressERKNS_5HashTILm32EEES3_RS1_
FN:203,206,_ZNK6merkle5HashTILm32EEeqERKS1_
FN:203,206,_ZNK6merkle5HashTILm48EEeqERKS1_
FN:203,206,_ZNK6merkle5HashTILm64EEeqERKS1_
FN:2039,2055,_ZN6merkleL14sha256_opensslERKNS_5HashTILm32EEES3_RS1_
FN:2061,2077,_ZN6merkleL14sha384_opensslERKNS_5HashTILm48EEES3_RS1_
FN:2083,2099,_ZN6merkleL14sha512_opensslERKNS_5HashTILm64EEES3_RS1_
FN:209,212,_ZNK6merkle5HashTILm32EEneERKS1_
FN:216,223,_ZNK6merkle5HashTILm32EE9serialiseERSt6vectorIhSaIhEE
FN:216,223,_ZNK6merkle5HashTILm48EE9serialiseERSt6vectorIhSaIhEE
FN:216,223,_ZNK6merkle5HashTILm64EE9serialiseERSt6vectorIhSaIhEE
FN:228,239,_ZN6merkle5HashTILm32EE11deserialiseERKSt6vectorIhSaIhEERm
FN:228,239,_ZN6merkle5HashTILm48EE11deserialiseERKSt6vectorIhSaIhEERm
FN:228,239,_ZN6merkle5HashTILm64EE11deserialiseERKSt6vectorIhSaIhEERm
FN:290,299,_ZN6merkle5PathTILm32EXadL_ZNS_L14sha256_opensslERKNS_5HashTILm32EEES4_RS2_EEEC2ES4_mONSt7__cxx114listINS6_Ut0_ESaIS9_EEEm
FN:290,299,_ZN6merkle5PathTILm32EXadL_ZNS_L15sha256_compressERKNS_5HashTILm32EEES4_RS2_EEEC2ES4_mONSt7__cxx114listINS6_Ut0_ESaIS9_EEEm
FN:290,299,_ZN6merkle5PathTILm48EXadL_ZNS_L14sha384_opensslERKNS_5HashTILm48EEES4_RS2_EEEC2ES4_mONSt7__cxx114listINS6_Ut0_ESaIS9_EEEm
FN:290,299,_ZN6merkle5PathTILm64EXadL_ZNS_L14sha512_opensslERKNS_5HashTILm64EEES4_RS2_EEEC2ES4_mONSt7__cxx114listINS6_Ut0_ESaIS9_EEEm
FN:327,357,_ZNK6merkle5PathTILm32EXadL_ZNS_L14sha256_opensslERKNS_5HashTILm32EEES4_RS2_EEE4rootEv
FN:327,357,_ZNK6merkle5PathTILm32EXadL_ZNS_L15sha256_compressERKNS_5HashTILm32EEES4_RS2_EEE4rootEv
FN:327,357,_ZNK6merkle5PathTILm48EXadL_ZNS_L14sha384_opensslERKNS_5HashTILm48EEES4_RS2_EEE4rootEv
FN:327,357,_ZNK6merkle5PathTILm64EXadL_ZNS_L14sha512_opensslERKNS_5HashTILm64EEES4_RS2_EEE4rootEv
FN:362,365,_ZNK6merkle5PathTILm32EXadL_ZNS_L14sha256_opensslERKNS_5HashTILm32EEES4_RS2_EEE6verifyES4_
FN:362,365,_ZNK6merkle5PathTILm32EXadL_ZNS_L15sha256_compressERKNS_5HashTILm32EEES4_RS2_EEE6verifyES4_
FN:362,365,_ZNK6merkle5PathTILm48EXadL_ZNS_L14sha384_opensslERKNS_5HashTILm48EEES4_RS2_EEE6verifyES4_
FN:362,365,_ZNK6merkle5PathTILm64EXadL_ZNS_L14sha512_opensslERKNS_5HashTILm64EEES4_RS2_EEE6verifyES4_
FN:369,381,_ZNK6merkle5PathTILm32EXadL_ZNS_L15sha256_compressERKNS_5HashTILm32EEES4_RS2_EEE9serialiseERSt6vectorIhSaIhEE
FN:369,381,_ZNK6merkle5PathTILm48EXadL_ZNS_L14sha384_opensslERKNS_5HashTILm48EEES4_RS2_EEE9serialiseERSt6vectorIhSaIhEE
FN:369,381,_ZNK6merkle5PathTILm64EXadL_ZNS_L14sha512_opensslERKNS_5HashTILm64EEES4_RS2_EEE9serialiseERSt6vectorIhSaIhEE
FN:415,420,_ZNK6merkle5PathTILm32EXadL_ZNS_L15sha256_compressERKNS_5HashTILm32EEES4_RS2_EEEcvSt6vectorIhSaIhEEEv
FN:423,426,_ZNK6merkle5PathTILm32EXadL_ZNS_L15sha256_compressERKNS_5HashTILm32EEES4_RS2_EEE4sizeEv
FN:423,426,_ZNK6merkle5PathTILm48EXadL_ZNS_L14sha384_opensslERKNS_5HashTILm48EEES4_RS2_EEE4sizeEv
FN:423,426,_ZNK6merkle5PathTILm64EXadL_ZNS_L14sha512_opensslERKNS_5HashTILm64EEES4_RS2_EEE4sizeEv
FN:429,439,_ZNK6merkle5PathTILm32EXadL_ZNS_L15sha256_compressERKNS_5HashTILm32EEES4_RS2_EEE15serialised_sizeEv
FN:429,439,_ZNK6merkle5PathTILm48EXadL_ZNS_L14sha384_opensslERKNS_5HashTILm48EEES4_RS2_EEE15serialised_sizeEv
FN:429,439,_ZNK6merkle5PathTILm64EXadL_ZNS_L14sha512_opensslERKNS_5HashTILm64EEES4_RS2_EEE15serialised_sizeEv
FN:455,458,_ZNK6merkle5PathTILm32EXadL_ZNS_L15sha256_compressERKNS_5HashTILm32EEES4_RS2_EEEixEm
FN:455,458,_ZNK6merkle5PathTILm48EXadL_ZNS_L14sha384_opensslERKNS_5HashTILm48EEES4_RS2_EEEixEm
FN:455,458,_ZNK6merkle5PathTILm64EXadL_ZNS_L14sha512_opensslERKNS_5HashTILm64EEES4_RS2_EEEixEm
FN:464,467,_ZNK6merkle5PathTILm32EXadL_ZNS_L15sha256_compressERKNS_5HashTILm32EEES4_RS2_EEE5beginEv
FN:464,467,_ZNK6merkle5PathTILm48EXadL_ZNS_L14sha384_opensslERKNS_5HashTILm48EEES4_RS2_EEE5beginEv
FN:464,467,_ZNK6merkle5PathTILm64EXadL_ZNS_L14sha512_opensslERKNS_5HashTILm64EEES4_RS2_EEE5beginEv
FN:470,473,_ZNK6merkle5PathTILm32EXadL_ZNS_L15sha256_compressERKNS_5HashTILm32EEES4_RS2_EEE3endEv
FN:470,473,_ZNK6merkle5PathTILm48EXadL_ZNS_L14sha384_opensslERKNS_5HashTILm48EEES4_RS2_EEE3endEv
FN:470,473,_ZNK6merkle5PathTILm64EXadL_ZNS_L14sha512_opensslERKNS_5HashTILm64EEES4_RS2_EEE3endEv
FN:478,489,_ZNK6merkle5PathTILm32EXadL_ZNS_L15sha256_compressERKNS_5HashTILm32EEES4_RS2_EEE9to_stringEmb
FN:48,67,_ZN6merkleL18convert_endiannessEj
FN:492,495,_ZNK6merkle5PathTILm32EXadL_ZNS_L15sha256_compressERKNS_5HashTILm32EEES4_RS2_EEE4leafEv
FN:492,495,_ZNK6merkle5PathTILm48EXadL_ZNS_L14sha384_opensslERKNS_5HashTILm48EEES4_RS2_EEE4leafEv
FN:492,495,_ZNK6merkle5PathTILm64EXadL_ZNS_L14sha512_opensslERKNS_5HashTILm64EEES4_RS2_EEE4leafEv
FN:498,516,_ZNK6merkle5PathTILm32EXadL_ZNS_L15sha256_compressERKNS_5HashTILm32EEES4_RS2_EEEeqERKS6_
FN:519,522,_ZN6merkle5PathTILm32EXadL_ZNS_L15sha256_compressERKNS_5HashTILm32EEES4_RS2_EEEneERKS6_
FN:555,564,_ZN6merkle5TreeTILm32EXadL_ZNS_L14sha256_opensslERKNS_5HashTILm32EEES4_RS2_EEE4Node4makeES4_
FN:555,564,_ZN6merkle5TreeTILm32EXadL_ZNS_L15sha256_compressERKNS_5HashTILm32EEES4_RS2_EEE4Node4makeES4_
FN:555,564,_ZN6merkle5TreeTILm48EXadL_ZNS_L14sha384_opensslERKNS_5HashTILm48EEES4_RS2_EEE4Node4makeES4_
FN:555,564,_ZN6merkle5TreeTILm64EXadL_ZNS_L14sha512_opensslERKNS_5HashTILm64EEES4_RS2_EEE4Node4makeES4_
FN:569,579,_ZN6merkle5TreeTILm32EXadL_ZNS_L14sha256_opensslERKNS_5HashTILm32EEES4_RS2_EEE4Node4makeEPS7_S8_
FN:569,579,_ZN6merkle5TreeTILm32EXadL_ZNS_L15sha256_compressERKNS_5HashTILm32EEES4_RS2_EEE4Node4makeEPS7_S8_
FN:569,579,_ZN6merkle5TreeTILm48EXadL_ZNS_L14sha384_opensslERKNS_5HashTILm48EEES4_RS2_EEE4Node4makeEPS7_S8_
FN:569,579,_ZN6merkle5TreeTILm64EXadL_ZNS_L14sha512_opensslERKNS_5HashTILm64EEES4_RS2_EEE4Node4makeEPS7_S8_
FN:588,631,_ZN6merkle5TreeTILm32EXadL_ZNS_L15sha256_compressERKNS_5HashTILm32EEES4_RS2_EEE4Node9copy_nodeEPKS7_PSt6vectorIPS7_SaISB_EEPmmmm
FN:588,631,_ZN6merkle5TreeTILm48EXadL_ZNS_L14sha384_opensslERKNS_5HashTILm48EEES4_RS2_EEE4Node9copy_nodeEPKS7_PSt6vectorIPS7_SaISB_EEPmmmm
FN:588,631,_ZN6merkle5TreeTILm64EXadL_ZNS_L14sha512_opensslERKNS_5HashTILm64EEES4_RS2_EEE4Node9copy_nodeEPKS7_PSt6vectorIPS7_SaISB_EEPmmmm
FN:636,645,_ZN6merkle5TreeTILm32EXadL_ZNS_L14sha256_opensslERKNS_5HashTILm32EEES4_RS2_EEE4Node9invariantEv
FN:636,645,_ZN6merkle5TreeTILm32EXadL_ZNS_L15sha256_compressERKNS_5HashTILm32EEES4_RS2_EEE4Node9invariantEv
FN:636,645,_ZN6merkle5TreeTILm48EXadL_ZNS_L14sha384_opensslERKNS_5HashTILm48EEES4_RS2_EEE4Node9invariantEv
FN:636,645,_ZN6merkle5TreeTILm64EXadL_ZNS_L14sha512_opensslERKNS_5HashTILm64EEES4_RS2_EEE4Node9invariantEv
FN:647,654,_ZN6merkle5TreeTILm32EXadL_ZNS_L14sha256_opensslERKNS_5HashTILm32EEES4_RS2_EEE4NodeD2Ev
FN:647,654,_ZN6merkle5TreeTILm32EXadL_ZNS_L15sha256_compressERKNS_5HashTILm32EEES4_RS2_EEE4NodeD2Ev
FN:647,654,_ZN6merkle5TreeTILm48EXadL_ZNS_L14sha384_opensslERKNS_5HashTILm48EEES4_RS2_EEE4NodeD2Ev
FN:647,654,_ZN6merkle5TreeTILm64EXadL_ZNS_L14sha512_opensslERKNS_5HashTILm64EEES4_RS2_EEE4NodeD2Ev
FN:659,664,_ZNK6merkle5TreeTILm32EXadL_ZNS_L14sha256_opensslERKNS_5HashTILm32EEES4_RS2_EEE4Node7is_fullEv
FN:659,664,_ZNK6merkle5TreeTILm32EXadL_ZNS_L15sha256_compressERKNS_5HashTILm32EEES4_RS2_EEE4Node7is_fullEv
FN:659,664,_ZNK6merkle5TreeTILm48EXadL_ZNS_L14sha384_opensslERKNS_5HashTILm48EEES4_RS2_EEE4Node7is_fullEv
FN:659,664,_ZNK6merkle5TreeTILm64EXadL_ZNS_L14sha512_opensslERKNS_5HashTILm64EEES4_RS2_EEE4Node7is_fullEv
FN:667,678,_ZN6merkle5TreeTILm32EXadL_ZNS_L14sha256_opensslERKNS_5HashTILm32EEES4_RS2_EEE4Node12update_sizesEv
FN:667,678,_ZN6merkle5TreeTILm32EXadL_ZNS_L15sha256_compressERKNS_5HashTILm32EEES4_RS2_EEE4Node12update_sizesEv
FN:667,678,_ZN6merkle5TreeTILm48EXadL_ZNS_L14sha384_opensslERKNS_5HashTILm48EEES4_RS2_EEE4Node12update_sizesEv
FN:667,678,_ZN6merkle5TreeTILm64EXadL_ZNS_L14sha512_opensslERKNS_5HashTILm64EEES4_RS2_EEE4Node12update_sizesEv
FN:69,77,_ZN6merkleL18serialise_uint64_tEmRSt6vectorIhSaIhEE
FN:712,712,_ZN6merkle5TreeTILm32EXadL_ZNS_L14sha256_opensslERKNS_5HashTILm32EEES4_RS2_EEEC2Ev
FN:712,712,_ZN6merkle5TreeTILm32EXadL_ZNS_L15sha256_compressERKNS_5HashTILm32EEES4_RS2_EEEC2Ev
FN:712,712,_ZN6merkle5TreeTILm48EXadL_ZNS_L14sha384_opensslERKNS_5HashTILm48EEES4_RS2_EEEC2Ev
FN:712,712,_ZN6merkle5TreeTILm64EXadL_ZNS_L14sha512_opensslERKNS_5HashTILm64EEES4_RS2_EEEC2Ev
FN:715,718,_ZN6merkle5TreeTILm32EXadL_ZNS_L15sha256_compressERKNS_5HashTILm32EEES4_RS2_EEEC2ERKS6_
FN:715,718,_ZN6merkle5TreeTILm48EXadL_ZNS_L14sha384_opensslERKNS_5HashTILm48EEES4_RS2_EEEC2ERKS6_
FN:715,718,_ZN6merkle5TreeTILm64EXadL_ZNS_L14sha512_opensslERKNS_5HashTILm64EEES4_RS2_EEEC2ERKS6_
FN:734,737,_ZN6merkle5TreeTILm32EXadL_ZNS_L15sha256_compressERKNS_5HashTILm32EEES4_RS2_EEEC2ERKSt6vectorIhSaIhEE
FN:734,737,_ZN6merkle5TreeTILm48EXadL_ZNS_L14sha384_opensslERKNS_5HashTILm48EEES4_RS2_EEEC2ERKSt6vectorIhSaIhEE
FN:734,737,_ZN6merkle5TreeTILm64EXadL_ZNS_L14sha512_opensslERKNS_5HashTILm64EEES4_RS2_EEEC2ERKSt6vectorIhSaIhEE
FN:749,752,_ZN6merkle5TreeTILm32EXadL_ZNS_L15sha256_compressERKNS_5HashTILm32EEES4_RS2_EEEC2ES4_
FN:749,752,_ZN6merkle5TreeTILm48EXadL_ZNS_L14sha384_opensslERKNS_5HashTILm48EEES4_RS2_EEEC2ES4_
FN:749,752,_ZN6merkle5TreeTILm64EXadL_ZNS_L14sha512_opensslERKNS_5HashTILm64EEES4_RS2_EEEC2ES4_
FN:755,762,_ZN6merkle5TreeTILm32EXadL_ZNS_L14sha256_opensslERKNS_5HashTILm32EEES4_RS2_EEED2Ev
FN:755,762,_ZN6merkle5TreeTILm32EXadL_ZNS_L15sha256_compressERKNS_5HashTILm32EEES4_RS2_EEED2Ev
FN:755,762,_ZN6merkle5TreeTILm48EXadL_ZNS_L14sha384_opensslERKNS_5HashTILm48EEES4_RS2_EEED2Ev
FN:755,762,_ZN6merkle5TreeTILm64EXadL_ZNS_L14sha512_opensslERKNS_5HashTILm64EEES4_RS2_EEED2Ev
FN:765,768,_ZN6merkle5TreeTILm32EXadL_ZNS_L15sha256_compressERKNS_5HashTILm32EEES4_RS2_EEE9invariantEv
FN:779,786,_ZN6merkle5TreeTILm32EXadL_ZNS_L14sha256_opensslERKNS_5HashTILm32EEES4_RS2_EEE6insertES4_
FN:779,786,_ZN6merkle5TreeTILm32EXadL_ZNS_L15sha256_compressERKNS_5HashTILm32EEES4_RS2_EEE6insertES4_
FN:779,786,_ZN6merkle5TreeTILm48EXadL_ZNS_L14sha384_opensslERKNS_5HashTILm48EEES4_RS2_EEE6insertES4_
FN:779,786,_ZN6merkle5TreeTILm64EXadL_ZNS_L14sha512_opensslERKNS_5HashTILm64EEES4_RS2_EEE6insertES4_
FN:79,89,_ZN6merkleL20deserialise_uint64_tERKSt6vectorIhSaIhEERm
FN:812,845,_ZN6merkle5TreeTILm32EXadL_ZNS_L15sha256_compressERKNS_5HashTILm32EEES4_RS2_EEE8flush_toEm
FN:812,845,_ZN6merkle5TreeTILm48EXadL_ZNS_L14sha384_opensslERKNS_5HashTILm48EEES4_RS2_EEE8flush_toEm
FN:812,845,_ZN6merkle5TreeTILm64EXadL_ZNS_L14sha512_opensslERKNS_5HashTILm64EEES4_RS2_EEE8flush_toEm
FN:822,822,_ZZN6merkle5TreeTILm32EXadL_ZNS_L15sha256_compressERKNS_5HashTILm32EEES4_RS2_EEE8flush_toEmENKUlRPNS6_4NodeEbE_clES9_b
FN:822,822,_ZZN6merkle5TreeTILm48EXadL_ZNS_L14sha384_opensslERKNS_5HashTILm48EEES4_RS2_EEE8flush_toEmENKUlRPNS6_4NodeEbE_clES9_b
FN:822,822,_ZZN6merkle5TreeTILm64EXadL_ZNS_L14sha512_opensslERKNS_5HashTILm64EEES4_RS2_EEE8flush_toEmENKUlRPNS6_4NodeEbE_clES9_b
FN:851,937,_ZN6merkle5TreeTILm32EXadL_ZNS_L15sha256_compressERKNS_5HashTILm32EEES4_RS2_EEE10retract_toEm
FN:851,937,_ZN6merkle5TreeTILm48EXadL_ZNS_L14sha384_opensslERKNS_5HashTILm48EEES4_RS2_EEE10retract_toEm
FN:851,937,_ZN6merkle5TreeTILm64EXadL_ZNS_L14sha512_opensslERKNS_5HashTILm64EEES4_RS2_EEE10retract_toEm
FN:878,878,_ZZN6merkle5TreeTILm32EXadL_ZNS_L15sha256_compressERKNS_5HashTILm32EEES4_RS2_EEE10retract_toEmENKUlRPNS6_4NodeEbE_clES9_b
FN:878,878,_ZZN6merkle5TreeTILm48EXadL_ZNS_L14sha384_opensslERKNS_5HashTILm48EEES4_RS2_EEE10retract_toEmENKUlRPNS6_4NodeEbE_clES9_b
FN:878,878,_ZZN6merkle5TreeTILm64EXadL_ZNS_L14sha512_opensslERKNS_5HashTILm64EEES4_RS2_EEE10retract_toEmENKUlRPNS6_4NodeEbE_clES9_b
FN:942,969,_ZN6merkle5TreeTILm32EXadL_ZNS_L15sha256_compressERKNS_5HashTILm32EEES4_RS2_EEEaSERKS6_
FN:942,969,_ZN6merkle5TreeTILm48EXadL_ZNS_L14sha384_opensslERKNS_5HashTILm48EEES4_RS2_EEEaSERKS6_
FN:942,969,_ZN6merkle5TreeTILm64EXadL_ZNS_L14sha512_opensslERKNS_5HashTILm64EEES4_RS2_EEEaSERKS6_
FN:973,983,_ZN6merkle5TreeTILm32EXadL_ZNS_L14sha256_opensslERKNS_5HashTILm32EEES4_RS2_EEE4rootEv
FN:973,983,_ZN6merkle5TreeTILm32EXadL_ZNS_L15sha256_compressERKNS_5HashTILm32EEES4_RS2_EEE4rootEv
FN:973,983,_ZN6merkle5TreeTILm48EXadL_ZNS_L14sha384_opensslERKNS_5HashTILm48EEES4_RS2_EEE4rootEv
FN:973,983,_ZN6merkle5TreeTILm64EXadL_ZNS_L14sha512_opensslERKNS_5HashTILm64EEES4_RS2_EEE4rootEv
FN:992,1014,_ZN6merkle5TreeTILm32EXadL_ZNS_L15sha256_compressERKNS_5HashTILm32EEES4_RS2_EEE9past_rootEm
FN:992,1014,_ZN6merkle5TreeTILm48EXadL_ZNS_L14sha384_opensslERKNS_5HashTILm48EEES4_RS2_EEE9past_rootEm
FN:992,1014,_ZN6merkle5TreeTILm64EXadL_ZNS_L14sha512_opensslERKNS_5HashTILm64EEES4_RS2_EEE9past_rootEm
FNDA:69094572,_ZN6merkle5HashTILm32EEC2Ev
FNDA:1049113,_ZN6merkle5HashTILm48EEC2Ev
FNDA:1049113,_ZN6merkle5HashTILm64EEC2Ev
FNDA:2,_ZN6merkle5TreeTILm32EXadL_ZNS_L14sha256_opensslERKNS_5HashTILm32EEES4_RS2_EEE7walk_toEmbOKSt8functionIFbRPNS6_4NodeEbEE
FNDA:262706,_ZN6merkle5TreeTILm32EXadL_ZNS_L15sha256_compressERKNS_5HashTILm32EEES4_RS2_EEE7walk_toEmbOKSt8functionIFbRPNS6_4NodeEbEE
FNDA:79,_ZN6merkle5TreeTILm48EXadL_ZNS_L14sha384_opensslERKNS_5HashTILm48EEES4_RS2_EEE7walk_toEmbOKSt8functionIFbRPNS6_4NodeEbEE
FNDA:79,_ZN6merkle5TreeTILm64EXadL_ZNS_L14sha512_opensslERKNS_5HashTILm64EEES4_RS2_EEE7walk_toEmbOKSt8functionIFbRPNS6_4NodeEbEE
FNDA:16787,_ZN6merkle5HashTILm32EEC2EPKh
FNDA:3,_ZN6merkle5HashTILm48EEC2EPKh
FNDA:3,_ZN6merkle5HashTILm64EEC2EPKh
FNDA:2,_ZN6merkle5TreeTILm32EXadL_ZNS_L14sha256_opensslERKNS_5HashTILm32EEES4_RS2_EEE4pathEm
FNDA:43296,_ZN6merkle5TreeTILm32EXadL_ZNS_L15sha256_compressERKNS_5HashTILm32EEES4_RS2_EEE4pathEm
FNDA:72,_ZN6merkle5TreeTILm48EXadL_ZNS_L14sha384_opensslERKNS_5HashTILm48EEES4_RS2_EEE4pathEm
FNDA:72,_ZN6merkle5TreeTILm64EXadL_ZNS_L14sha512_opensslERKNS_5HashTILm64EEES4_RS2_EEE4pathEm
FNDA:4,_ZZN6merkle5TreeTILm32EXadL_ZNS_L14sha256_opensslERKNS_5HashTILm32EEES4_RS2_EEE4pathEmENKUlPNS6_4NodeEbE_clES8_b
FNDA:498103,_ZZN6merkle5TreeTILm32EXadL_ZNS_L15sha256_compressERKNS_5HashTILm32EEES4_RS2_EEE4pathEmENKUlPNS6_4NodeEbE_clES8_b
FNDA:387,_ZZN6merkle5TreeTILm48EXadL_ZNS_L14sha384_opensslERKNS_5HashTILm48EEES4_RS2_EEE4pathEmENKUlPNS6_4NodeEbE_clES8_b
FNDA:387,_ZZN6merkle5TreeTILm64EXadL_ZNS_L14sha512_opensslERKNS_5HashTILm64EEES4_RS2_EEE4pathEmENKUlPNS6_4NodeEbE_clES8_b
FNDA:4700,_ZN6merkle5TreeTILm32EXadL_ZNS_L15sha256_compressERKNS_5HashTILm32EEES4_RS2_EEE9past_pathEmm
FNDA:5,_ZN6merkle5TreeTILm48EXadL_ZNS_L14sha384_opensslERKNS_5HashTILm48EEES4_RS2_EEE9past_pathEmm
FNDA:5,_ZN6merkle5TreeTILm64EXadL_ZNS_L14sha512_opensslERKNS_5HashTILm64EEES4_RS2_EEE9past_pathEmm
FNDA:70,_ZN6merkle5TreeTILm32EXadL_ZNS_L15sha256_compressERKNS_5HashTILm32EEES4_RS2_EEE9serialiseERSt6vectorIhSaIhEE
FNDA:3,_ZN6merkle5TreeTILm48EXadL_ZNS_L14sha384_opensslERKNS_5HashTILm48EEES4_RS2_EEE9serialiseERSt6vectorIhSaIhEE
FNDA:3,_ZN6merkle5TreeTILm64EXadL_ZNS_L14sha512_opensslERKNS_5HashTILm64EEES4_RS2_EEE9serialiseERSt6vectorIhSaIhEE
FNDA:637,_ZZN6merkle5TreeTILm32EXadL_ZNS_L15sha256_compressERKNS_5HashTILm32EEES4_RS2_EEE9serialiseERSt6vectorIhSaIhEEENKUlRPNS6_4NodeEbE_clESD_b
FNDA:1,_ZZN6merkle5TreeTILm48EXadL_ZNS_L14sha384_opensslERKNS_5HashTILm48EEES4_RS2_EEE9serialiseERSt6vectorIhSaIhEEENKUlRPNS6_4NodeEbE_clESD_b
FNDA:1,_ZZN6merkle5TreeTILm64EXadL_ZNS_L14sha512_opensslERKNS_5HashTILm64EEES4_RS2_EEE9serialiseERSt6vectorIhSaIhEEENKUlRPNS6_4NodeEbE_clESD_b
FNDA:2008,_ZN6merkle5TreeTILm32EXadL_ZNS_L15sha256_compressERKNS_5HashTILm32EEES4_RS2_EEE9serialiseEmmRSt6vectorIhSaIhEE
FNDA:16864,_ZZN6merkle5TreeTILm32EXadL_ZNS_L15sha256_compressERKNS_5HashTILm32EEES4_RS2_EEE9serialiseEmmRSt6vectorIhSaIhEEENKUlRPNS6_4NodeEbE_clESD_b
FNDA:2079,_ZN6merkle5TreeTILm32EXadL_ZNS_L15sha256_compressERKNS_5HashTILm32EEES4_RS2_EEE11deserialiseERKSt6vectorIhSaIhEE
FNDA:3,_ZN6merkle5TreeTILm48EXadL_ZNS_L14sha384_opensslERKNS_5HashTILm48EEES4_RS2_EEE11deserialiseERKSt6vectorIhSaIhEE
FNDA:3,_ZN6merkle5TreeTILm64EXadL_ZNS_L14sha512_opensslERKNS_5HashTILm64EEES4_RS2_EEE11deserialiseERKSt6vectorIhSaIhEE
FNDA:2079,_ZN6merkle5TreeTILm32EXadL_ZNS_L15sha256_compressERKNS_5HashTILm32EEES4_RS2_EEE11deserialiseERKSt6vectorIhSaIhEERm
FNDA:3,_ZN6merkle5TreeTILm48EXadL_ZNS_L14sha384_opensslERKNS_5HashTILm48EEES4_RS2_EEE11deserialiseERKSt6vectorIhSaIhEERm
FNDA:3,_ZN6merkle5TreeTILm64EXadL_ZNS_L14sha512_opensslERKNS_5HashTILm64EEES4_RS2_EEE11deserialiseERKSt6vectorIhSaIhEERm
FNDA:12054,_ZN6merkle5HashTILm32EEC2ERKSt6vectorIhSaIhEERm
FNDA:0,_ZN6merkle5HashTILm48EEC2ERKSt6vectorIhSaIhEERm
FNDA:0,_ZN6merkle5HashTILm64EEC2ERKSt6vectorIhSaIhEERm
FNDA:15433,_ZNK6merkle5TreeTILm32EXadL_ZNS_L15sha256_compressERKNS_5HashTILm32EEES4_RS2_EEE4leafEm
FNDA:3,_ZNK6merkle5TreeTILm48EXadL_ZNS_L14sha384_opensslERKNS_5HashTILm48EEES4_RS2_EEE4leafEm
FNDA:3,_ZNK6merkle5TreeTILm64EXadL_ZNS_L14sha512_opensslERKNS_5HashTILm64EEES4_RS2_EEE4leafEm
FNDA:2060,_ZNK6merkle5TreeTILm32EXadL_ZNS_L14sha256_opensslERKNS_5HashTILm32EEES4_RS2_EEE10num_leavesEv
FNDA:27996964,_ZNK6merkle5TreeTILm32EXadL_ZNS_L15sha256_compressERKNS_5HashTILm32EEES4_RS2_EEE10num_leavesEv
FNDA:4446,_ZNK6merkle5TreeTILm48EXadL_ZNS_L14sha384_opensslERKNS_5HashTILm48EEES4_RS2_EEE10num_leavesEv
FNDA:4446,_ZNK6merkle5TreeTILm64EXadL_ZNS_L14sha512_opensslERKNS_5HashTILm64EEES4_RS2_EEE10num_leavesEv
FNDA:2,_ZNK6merkle5TreeTILm32EXadL_ZNS_L14sha256_opensslERKNS_5HashTILm32EEES4_RS2_EEE9min_indexEv
FNDA:11065069,_ZNK6merkle5TreeTILm32EXadL_ZNS_L15sha256_compressERKNS_5HashTILm32EEES4_RS2_EEE9min_indexEv
FNDA:108,_ZNK6merkle5TreeTILm48EXadL_ZNS_L14sha384_opensslERKNS_5HashTILm48EEES4_RS2_EEE9min_indexEv
FNDA:108,_ZNK6merkle5TreeTILm64EXadL_ZNS_L14sha512_opensslERKNS_5HashTILm64EEES4_RS2_EEE9min_indexEv
FNDA:4,_ZNK6merkle5TreeTILm32EXadL_ZNS_L14sha256_opensslERKNS_5HashTILm32EEES4_RS2_EEE9max_indexEv
FNDA:27528219,_ZNK6merkle5TreeTILm32EXadL_ZNS_L15sha256_compressERKNS_5HashTILm32EEES4_RS2_EEE9max_indexEv
FNDA:169,_ZNK6merkle5TreeTILm48EXadL_ZNS_L14sha384_opensslERKNS_5HashTILm48EEES4_RS2_EEE9max_indexEv
FNDA:169,_ZNK6merkle5TreeTILm64EXadL_ZNS_L14sha512_opensslERKNS_5HashTILm64EEES4_RS2_EEE9max_indexEv
FNDA:4215,_ZNK6merkle5TreeTILm32EXadL_ZNS_L15sha256_compressERKNS_5HashTILm32EEES4_RS2_EEE5emptyEv
FNDA:4,_ZNK6merkle5TreeTILm48EXadL_ZNS_L14sha384_opensslERKNS_5HashTILm48EEES4_RS2_EEE5emptyEv
FNDA:4,_ZNK6merkle5TreeTILm64EXadL_ZNS_L14sha512_opensslERKNS_5HashTILm64EEES4_RS2_EEE5emptyEv
FNDA:129,_ZN6merkle5TreeTILm32EXadL_ZNS_L15sha256_compressERKNS_5HashTILm32EEES4_RS2_EEE4sizeEv
FNDA:1,_ZN6merkle5TreeTILm48EXadL_ZNS_L14sha384_opensslERKNS_5HashTILm48EEES4_RS2_EEE4sizeEv
FNDA:1,_ZN6merkle5TreeTILm64EXadL_ZNS_L14sha512_opensslERKNS_5HashTILm64EEES4_RS2_EEE4sizeEv
FNDA:2136,_ZN6merkle5TreeTILm32EXadL_ZNS_L15sha256_compressERKNS_5HashTILm32EEES4_RS2_EEE15serialised_sizeEv
FNDA:16688,_ZZN6merkle5TreeTILm32EXadL_ZNS_L15sha256_compressERKNS_5HashTILm32EEES4_RS2_EEE15serialised_sizeEvENKUlRPNS6_4NodeEbE_clES9_b
FNDA:2008,_ZN6merkle5TreeTILm32EXadL_ZNS_L15sha256_compressERKNS_5HashTILm32EEES4_RS2_EEE15serialised_sizeEmm
FNDA:16864,_ZZN6merkle5TreeTILm32EXadL_ZNS_L15sha256_compressERKNS_5HashTILm32EEES4_RS2_EEE15serialised_sizeEmmENKUlRPNS6_4NodeEbE_clES9_b
FNDA:1,_ZNK6merkle5HashTILm32EE4sizeEv
FNDA:1,_ZNK6merkle5HashTILm48EE4sizeEv
FNDA:1,_ZNK6merkle5HashTILm64EE4sizeEv
FNDA:4,_ZNK6merkle5TreeTILm32EXadL_ZNS_L15sha256_compressERKNS_5HashTILm32EEES4_RS2_EEE10Statistics9to_stringEv
FNDA:2,_ZNK6merkle5TreeTILm48EXadL_ZNS_L14sha384_opensslERKNS_5HashTILm48EEES4_RS2_EEE10Statistics9to_stringEv
FNDA:2,_ZNK6merkle5TreeTILm64EXadL_ZNS_L14sha512_opensslERKNS_5HashTILm64EEES4_RS2_EEE10Statistics9to_stringEv
FNDA:2,_ZNK6merkle5TreeTILm32EXadL_ZNS_L15sha256_compressERKNS_5HashTILm32EEES4_RS2_EEE9to_stringEm
FNDA:2,_ZNK6merkle5TreeTILm32EXadL_ZNS_L14sha256_opensslERKNS_5HashTILm32EEES4_RS2_EEE9leaf_nodeEm
FNDA:47991,_ZNK6merkle5TreeTILm32EXadL_ZNS_L15sha256_compressERKNS_5HashTILm32EEES4_RS2_EEE9leaf_nodeEm
FNDA:72,_ZNK6merkle5TreeTILm48EXadL_ZNS_L14sha384_opensslERKNS_5HashTILm48EEES4_RS2_EEE9leaf_nodeEm
FNDA:72,_ZNK6merkle5TreeTILm64EXadL_ZNS_L14sha512_opensslERKNS_5HashTILm64EEES4_RS2_EEE9leaf_nodeEm
FNDA:2050,_ZNK6merkle5TreeTILm32EXadL_ZNS_L14sha256_opensslERKNS_5HashTILm32EEES4_RS2_EEE4hashEPNS6_4NodeEm
FNDA:247473,_ZNK6merkle5TreeTILm32EXadL_ZNS_L15sha256_compressERKNS_5HashTILm32EEES4_RS2_EEE4hashEPNS6_4NodeEm
FNDA:4101,_ZNK6merkle5TreeTILm48EXadL_ZNS_L14sha384_opensslERKNS_5HashTILm48EEES4_RS2_EEE4hashEPNS6_4NodeEm
FNDA:4101,_ZNK6merkle5TreeTILm64EXadL_ZNS_L14sha512_opensslERKNS_5HashTILm64EEES4_RS2_EEE4hashEPNS6_4NodeEm
FNDA:148,_ZNK6merkle5HashTILm32EE9to_stringB5cxx11Emb
FNDA:2054,_ZN6merkle5TreeTILm32EXadL_ZNS_L14sha256_opensslERKNS_5HashTILm32EEES4_RS2_EEE12compute_rootEv
FNDA:312868,_ZN6merkle5TreeTILm32EXadL_ZNS_L15sha256_compressERKNS_5HashTILm32EEES4_RS2_EEE12compute_rootEv
FNDA:4192,_ZN6merkle5TreeTILm48EXadL_ZNS_L14sha384_opensslERKNS_5HashTILm48EEES4_RS2_EEE12compute_rootEv
FNDA:4192,_ZN6merkle5TreeTILm64EXadL_ZNS_L14sha512_opensslERKNS_5HashTILm64EEES4_RS2_EEE12compute_rootEv
FNDA:262162,_ZN6merkle5TreeTILm32EXadL_ZNS_L14sha256_opensslERKNS_5HashTILm32EEES4_RS2_EEE24continue_insertion_stackEPNS6_4NodeES8_
FNDA:9747432,_ZN6merkle5TreeTILm32EXadL_ZNS_L15sha256_compressERKNS_5HashTILm32EEES4_RS2_EEE24continue_insertion_stackEPNS6_4NodeES8_
FNDA:524349,_ZN6merkle5TreeTILm48EXadL_ZNS_L14sha384_opensslERKNS_5HashTILm48EEES4_RS2_EEE24continue_insertion_stackEPNS6_4NodeES8_
FNDA:524349,_ZN6merkle5TreeTILm64EXadL_ZNS_L14sha512_opensslERKNS_5HashTILm64EEES4_RS2_EEE24continue_insertion_stackEPNS6_4NodeES8_
FNDA:264098,_ZN6merkle5TreeTILm32EXadL_ZNS_L14sha256_opensslERKNS_5HashTILm32EEES4_RS2_EEE23process_insertion_stackEb
FNDA:9982667,_ZN6merkle5TreeTILm32EXadL_ZNS_L15sha256_compressERKNS_5HashTILm32EEES4_RS2_EEE23process_insertion_stackEb
FNDA:528221,_ZN6merkle5TreeTILm48EXadL_ZNS_L14sha384_opensslERKNS_5HashTILm48EEES4_RS2_EEE23process_insertion_stackEb
FNDA:528221,_ZN6merkle5TreeTILm64EXadL_ZNS_L14sha512_opensslERKNS_5HashTILm64EEES4_RS2_EEE23process_insertion_stackEb
FNDA:262166,_ZN6merkle5TreeTILm32EXadL_ZNS_L14sha256_opensslERKNS_5HashTILm32EEES4_RS2_EEE11insert_leafERPNS6_4NodeES8_
FNDA:9748431,_ZN6merkle5TreeTILm32EXadL_ZNS_L15sha256_compressERKNS_5HashTILm32EEES4_RS2_EEE11insert_leafERPNS6_4NodeES8_
FNDA:524357,_ZN6merkle5TreeTILm48EXadL_ZNS_L14sha384_opensslERKNS_5HashTILm48EEES4_RS2_EEE11insert_leafERPNS6_4NodeES8_
FNDA:524357,_ZN6merkle5TreeTILm64EXadL_ZNS_L14sha512_opensslERKNS_5HashTILm64EEES4_RS2_EEE11insert_leafERPNS6_4NodeES8_
FNDA:2054,_ZN6merkle5TreeTILm32EXadL_ZNS_L14sha256_opensslERKNS_5HashTILm32EEES4_RS2_EEE13insert_leavesEb
FNDA:312868,_ZN6merkle5TreeTILm32EXadL_ZNS_L15sha256_compressERKNS_5HashTILm32EEES4_RS2_EEE13insert_leavesEb
FNDA:4192,_ZN6merkle5TreeTILm48EXadL_ZNS_L14sha384_opensslERKNS_5HashTILm48EEES4_RS2_EEE13insert_leavesEb
FNDA:4192,_ZN6merkle5TreeTILm64EXadL_ZNS_L14sha512_opensslERKNS_5HashTILm64EEES4_RS2_EEE13insert_leavesEb
FNDA:59172638,_ZN6merkle5HashTILm32EEaSERKS1_
FNDA:524755,_ZN6merkle5HashTILm48EEaSERKS1_
FNDA:524755,_ZN6merkle5HashTILm64EEaSERKS1_
FNDA:11583318,_ZN6merkleL15sha256_compressERKNS_5HashTILm32EEES3_RS1_
FNDA:11677,_ZNK6merkle5HashTILm32EEeqERKS1_
FNDA:82,_ZNK6merkle5HashTILm48EEeqERKS1_
FNDA:82,_ZNK6merkle5HashTILm64EEeqERKS1_
FNDA:272406,_ZN6merkleL14sha256_opensslERKNS_5HashTILm32EEES3_RS1_
FNDA:545218,_ZN6merkleL14sha384_opensslERKNS_5HashTILm48EEES3_RS1_
FNDA:545218,_ZN6merkleL14sha512_opensslERKNS_5HashTILm64EEES3_RS1_
FNDA:87270,_ZNK6merkle5HashTILm32EEneERKS1_
FNDA:64150,_ZNK6merkle5HashTILm32EE9serialiseERSt6vectorIhSaIhEE
FNDA:451,_ZNK6merkle5HashTILm48EE9serialiseERSt6vectorIhSaIhEE
FNDA:451,_ZNK6merkle5HashTILm64EE9serialiseERSt6vectorIhSaIhEE
FNDA:12054,_ZN6merkle5HashTILm32EE11deserialiseERKSt6vectorIhSaIhEERm
FNDA:0,_ZN6merkle5HashTILm48EE11deserialiseERKSt6vectorIhSaIhEERm
FNDA:0,_ZN6merkle5HashTILm64EE11deserialiseERKSt6vectorIhSaIhEERm
FNDA:2,_ZN6merkle5PathTILm32EXadL_ZNS_L14sha256_opensslERKNS_5HashTILm32EEES4_RS2_EEEC2ES4_mONSt7__cxx114listINS6_Ut0_ESaIS9_EEEm
FNDA:47991,_ZN6merkle5PathTILm32EXadL_ZNS_L15sha256_compressERKNS_5HashTILm32EEES4_RS2_EEEC2ES4_mONSt7__cxx114listINS6_Ut0_ESaIS9_EEEm
FNDA:72,_ZN6merkle5PathTILm48EXadL_ZNS_L14sha384_opensslERKNS_5HashTILm48EEES4_RS2_EEEC2ES4_mONSt7__cxx114listINS6_Ut0_ESaIS9_EEEm
FNDA:72,_ZN6merkle5PathTILm64EXadL_ZNS_L14sha512_opensslERKNS_5HashTILm64EEES4_RS2_EEEC2ES4_mONSt7__cxx114listINS6_Ut0_ESaIS9_EEEm
FNDA:2,_ZNK6merkle5PathTILm32EXadL_ZNS_L14sha256_opensslERKNS_5HashTILm32EEES4_RS2_EEE4rootEv
FNDA:15025,_ZNK6merkle5PathTILm32EXadL_ZNS_L15sha256_compressERKNS_5HashTILm32EEES4_RS2_EEE4rootEv
FNDA:69,_ZNK6merkle5PathTILm48EXadL_ZNS_L14sha384_opensslERKNS_5HashTILm48EEES4_RS2_EEE4rootEv
FNDA:69,_ZNK6merkle5PathTILm64EXadL_ZNS_L14sha512_opensslERKNS_5HashTILm64EEES4_RS2_EEE4rootEv
FNDA:2,_ZNK6merkle5PathTILm32EXadL_ZNS_L14sha256_opensslERKNS_5HashTILm32EEES4_RS2_EEE6verifyES4_
FNDA:9646,_ZNK6merkle5PathTILm32EXadL_ZNS_L15sha256_compressERKNS_5HashTILm32EEES4_RS2_EEE6verifyES4_
FNDA:64,_ZNK6merkle5PathTILm48EXadL_ZNS_L14sha384_opensslERKNS_5HashTILm48EEES4_RS2_EEE6verifyES4_
FNDA:64,_ZNK6merkle5PathTILm64EXadL_ZNS_L14sha512_opensslERKNS_5HashTILm64EEES4_RS2_EEE6verifyES4_
FNDA:2264,_ZNK6merkle5PathTILm32EXadL_ZNS_L15sha256_compressERKNS_5HashTILm32EEES4_RS2_EEE9serialiseERSt6vectorIhSaIhEE
FNDA:64,_ZNK6merkle5PathTILm48EXadL_ZNS_L14sha384_opensslERKNS_5HashTILm48EEES4_RS2_EEE9serialiseERSt6vectorIhSaIhEE
FNDA:64,_ZNK6merkle5PathTILm64EXadL_ZNS_L14sha512_opensslERKNS_5HashTILm64EEES4_RS2_EEE9serialiseERSt6vectorIhSaIhEE
FNDA:22,_ZNK6merkle5PathTILm32EXadL_ZNS_L15sha256_compressERKNS_5HashTILm32EEES4_RS2_EEEcvSt6vectorIhSaIhEEEv
FNDA:2,_ZNK6merkle5PathTILm32EXadL_ZNS_L15sha256_compressERKNS_5HashTILm32EEES4_RS2_EEE4sizeEv
FNDA:2,_ZNK6merkle5PathTILm48EXadL_ZNS_L14sha384_opensslERKNS_5HashTILm48EEES4_RS2_EEE4sizeEv
FNDA:2,_ZNK6merkle5PathTILm64EXadL_ZNS_L14sha512_opensslERKNS_5HashTILm64EEES4_RS2_EEE4sizeEv
FNDA:2242,_ZNK6merkle5PathTILm32EXadL_ZNS_L15sha256_compressERKNS_5HashTILm32EEES4_RS2_EEE15serialised_sizeEv
FNDA:64,_ZNK6merkle5PathTILm48EXadL_ZNS_L14sha384_opensslERKNS_5HashTILm48EEES4_RS2_EEE15serialised_sizeEv
FNDA:64,_ZNK6merkle5PathTILm64EXadL_ZNS_L14sha512_opensslERKNS_5HashTILm64EEES4_RS2_EEE15serialised_sizeEv
FNDA:1,_ZNK6merkle5PathTILm32EXadL_ZNS_L15sha256_compressERKNS_5HashTILm32EEES4_RS2_EEEixEm
FNDA:1,_ZNK6merkle5PathTILm48EXadL_ZNS_L14sha384_opensslERKNS_5HashTILm48EEES4_RS2_EEEixEm
FNDA:1,_ZNK6merkle5PathTILm64EXadL_ZNS_L14sha512_opensslERKNS_5HashTILm64EEES4_RS2_EEEixEm
FNDA:36335,_ZNK6merkle5PathTILm32EXadL_ZNS_L15sha256_compressERKNS_5HashTILm32EEES4_RS2_EEE5beginEv
FNDA:4,_ZNK6merkle5PathTILm48EXadL_ZNS_L14sha384_opensslERKNS_5HashTILm48EEES4_RS2_EEE5beginEv
FNDA:4,_ZNK6merkle5PathTILm64EXadL_ZNS_L14sha512_opensslERKNS_5HashTILm64EEES4_RS2_EEE5beginEv
FNDA:36334,_ZNK6merkle5PathTILm32EXadL_ZNS_L15sha256_compressERKNS_5HashTILm32EEES4_RS2_EEE3endEv
FNDA:3,_ZNK6merkle5PathTILm48EXadL_ZNS_L14sha384_opensslERKNS_5HashTILm48EEES4_RS2_EEE3endEv
FNDA:3,_ZNK6merkle5PathTILm64EXadL_ZNS_L14sha512_opensslERKNS_5HashTILm64EEES4_RS2_EEE3endEv
FNDA:22,_ZNK6merkle5PathTILm32EXadL_ZNS_L15sha256_compressERKNS_5HashTILm32EEES4_RS2_EEE9to_stringEmb
FNDA:277999632,_ZN6merkleL18convert_endiannessEj
FNDA:36334,_ZNK6merkle5PathTILm32EXadL_ZNS_L15sha256_compressERKNS_5HashTILm32EEES4_RS2_EEE4leafEv
FNDA:5,_ZNK6merkle5PathTILm48EXadL_ZNS_L14sha384_opensslERKNS_5HashTILm48EEES4_RS2_EEE4leafEv
FNDA:5,_ZNK6merkle5PathTILm64EXadL_ZNS_L14sha512_opensslERKNS_5HashTILm64EEES4_RS2_EEE4leafEv
FNDA:4695,_ZNK6merkle5PathTILm32EXadL_ZNS_L15sha256_compressERKNS_5HashTILm32EEES4_RS2_EEEeqERKS6_
FNDA:2687,_ZN6merkle5PathTILm32EXadL_ZNS_L15sha256_compressERKNS_5HashTILm32EEES4_RS2_EEEneERKS6_
FNDA:262166,_ZN6merkle5TreeTILm32EXadL_ZNS_L14sha256_opensslERKNS_5HashTILm32EEES4_RS2_EEE4Node4makeES4_
FNDA:58190934,_ZN6merkle5TreeTILm32EXadL_ZNS_L15sha256_compressERKNS_5HashTILm32EEES4_RS2_EEE4Node4makeES4_
FNDA:524363,_ZN6merkle5TreeTILm48EXadL_ZNS_L14sha384_opensslERKNS_5HashTILm48EEES4_RS2_EEE4Node4makeES4_
FNDA:524363,_ZN6merkle5TreeTILm64EXadL_ZNS_L14sha512_opensslERKNS_5HashTILm64EEES4_RS2_EEE4Node4makeES4_
FNDA:262162,_ZN6merkle5TreeTILm32EXadL_ZNS_L14sha256_opensslERKNS_5HashTILm32EEES4_RS2_EEE4Node4makeEPS7_S8_
FNDA:9774195,_ZN6merkle5TreeTILm32EXadL_ZNS_L15sha256_compressERKNS_5HashTILm32EEES4_RS2_EEE4Node4makeEPS7_S8_
FNDA:524350,_ZN6merkle5TreeTILm48EXadL_ZNS_L14sha384_opensslERKNS_5HashTILm48EEES4_RS2_EEE4Node4makeEPS7_S8_
FNDA:524350,_ZN6merkle5TreeTILm64EXadL_ZNS_L14sha512_opensslERKNS_5HashTILm64EEES4_RS2_EEE4Node4makeEPS7_S8_
FNDA:68917663,_ZN6merkle5TreeTILm32EXadL_ZNS_L15sha256_compressERKNS_5HashTILm32EEES4_RS2_EEE4Node9copy_nodeEPKS7_PSt6vectorIPS7_SaISB_EEPmmmm
FNDA:7,_ZN6merkle5TreeTILm48EXadL_ZNS_L14sha384_opensslERKNS_5HashTILm48EEES4_RS2_EEE4Node9copy_nodeEPKS7_PSt6vectorIPS7_SaISB_EEPmmmm
FNDA:7,_ZN6merkle5TreeTILm64EXadL_ZNS_L14sha512_opensslERKNS_5HashTILm64EEES4_RS2_EEE4Node9copy_nodeEPKS7_PSt6vectorIPS7_SaISB_EEPmmmm
FNDA:1010318518,_ZN6merkle5TreeTILm32EXadL_ZNS_L14sha256_opensslERKNS_5HashTILm32EEES4_RS2_EEE4Node9invariantEv
FNDA:7291949408,_ZN6merkle5TreeTILm32EXadL_ZNS_L15sha256_compressERKNS_5HashTILm32EEES4_RS2_EEE4Node9invariantEv
FNDA:2020663601,_ZN6merkle5TreeTILm48EXadL_ZNS_L14sha384_opensslERKNS_5HashTILm48EEES4_RS2_EEE4Node9invariantEv
FNDA:2020663601,_ZN6merkle5TreeTILm64EXadL_ZNS_L14sha512_opensslERKNS_5HashTILm64EEES4_RS2_EEE4Node9invariantEv
FNDA:524328,_ZN6merkle5TreeTILm32EXadL_ZNS_L14sha256_opensslERKNS_5HashTILm32EEES4_RS2_EEE4NodeD2Ev
FNDA:67965129,_ZN6merkle5TreeTILm32EXadL_ZNS_L15sha256_compressERKNS_5HashTILm32EEES4_RS2_EEE4NodeD2Ev
FNDA:1048713,_ZN6merkle5TreeTILm48EXadL_ZNS_L14sha384_opensslERKNS_5HashTILm48EEES4_RS2_EEE4NodeD2Ev
FNDA:1048713,_ZN6merkle5TreeTILm64EXadL_ZNS_L14sha512_opensslERKNS_5HashTILm64EEES4_RS2_EEE4NodeD2Ev
FNDA:1453978,_ZNK6merkle5TreeTILm32EXadL_ZNS_L14sha256_opensslERKNS_5HashTILm32EEES4_RS2_EEE4Node7is_fullEv
FNDA:55517893,_ZNK6merkle5TreeTILm32EXadL_ZNS_L15sha256_compressERKNS_5HashTILm32EEES4_RS2_EEE4Node7is_fullEv
FNDA:2908146,_ZNK6merkle5TreeTILm48EXadL_ZNS_L14sha384_opensslERKNS_5HashTILm48EEES4_RS2_EEE4Node7is_fullEv
FNDA:2908146,_ZNK6merkle5TreeTILm64EXadL_ZNS_L14sha512_opensslERKNS_5HashTILm64EEES4_RS2_EEE4Node7is_fullEv
FNDA:1185818,_ZN6merkle5TreeTILm32EXadL_ZNS_L14sha256_opensslERKNS_5HashTILm32EEES4_RS2_EEE4Node12update_sizesEv
FNDA:93926471,_ZN6merkle5TreeTILm32EXadL_ZNS_L15sha256_compressERKNS_5HashTILm32EEES4_RS2_EEE4Node12update_sizesEv
FNDA:2371776,_ZN6merkle5TreeTILm48EXadL_ZNS_L14sha384_opensslERKNS_5HashTILm48EEES4_RS2_EEE4Node12update_sizesEv
FNDA:2371776,_ZN6merkle5TreeTILm64EXadL_ZNS_L14sha512_opensslERKNS_5HashTILm64EEES4_RS2_EEE4Node12update_sizesEv
FNDA:11344,_ZN6merkleL18serialise_uint64_tEmRSt6vectorIhSaIhEE
FNDA:4,_ZN6merkle5TreeTILm32EXadL_ZNS_L14sha256_opensslERKNS_5HashTILm32EEES4_RS2_EEEC2Ev
FNDA:3257,_ZN6merkle5TreeTILm32EXadL_ZNS_L15sha256_compressERKNS_5HashTILm32EEES4_RS2_EEEC2Ev
FNDA:8,_ZN6merkle5TreeTILm48EXadL_ZNS_L14sha384_opensslERKNS_5HashTILm48EEES4_RS2_EEEC2Ev
FNDA:8,_ZN6merkle5TreeTILm64EXadL_ZNS_L14sha512_opensslERKNS_5HashTILm64EEES4_RS2_EEEC2Ev
FNDA:2688,_ZN6merkle5TreeTILm32EXadL_ZNS_L15sha256_compressERKNS_5HashTILm32EEES4_RS2_EEEC2ERKS6_
FNDA:1,_ZN6merkle5TreeTILm48EXadL_ZNS_L14sha384_opensslERKNS_5HashTILm48EEES4_RS2_EEEC2ERKS6_
FNDA:1,_ZN6merkle5TreeTILm64EXadL_ZNS_L14sha512_opensslERKNS_5HashTILm64EEES4_RS2_EEEC2ERKS6_
FNDA:2077,_ZN6merkle5TreeTILm32EXadL_ZNS_L15sha256_compressERKNS_5HashTILm32EEES4_RS2_EEEC2ERKSt6vectorIhSaIhEE
FNDA:3,_ZN6merkle5TreeTILm48EXadL_ZNS_L14sha384_opensslERKNS_5HashTILm48EEES4_RS2_EEEC2ERKSt6vectorIhSaIhEE
FNDA:3,_ZN6merkle5TreeTILm64EXadL_ZNS_L14sha512_opensslERKNS_5HashTILm64EEES4_RS2_EEEC2ERKSt6vectorIhSaIhEE
FNDA:1,_ZN6merkle5TreeTILm32EXadL_ZNS_L15sha256_compressERKNS_5HashTILm32EEES4_RS2_EEEC2ES4_
FNDA:1,_ZN6merkle5TreeTILm48EXadL_ZNS_L14sha384_opensslERKNS_5HashTILm48EEES4_RS2_EEEC2ES4_
FNDA:1,_ZN6merkle5TreeTILm64EXadL_ZNS_L14sha512_opensslERKNS_5HashTILm64EEES4_RS2_EEEC2ES4_
FNDA:4,_ZN6merkle5TreeTILm32EXadL_ZNS_L14sha256_opensslERKNS_5HashTILm32EEES4_RS2_EEED2Ev
FNDA:8023,_ZN6merkle5TreeTILm32EXadL_ZNS_L15sha256_compressERKNS_5HashTILm32EEES4_RS2_EEED2Ev
FNDA:13,_ZN6merkle5TreeTILm48EXadL_ZNS_L14sha384_opensslERKNS_5HashTILm48EEES4_RS2_EEED2Ev
FNDA:13,_ZN6merkle5TreeTILm64EXadL_ZNS_L14sha512_opensslERKNS_5HashTILm64EEES4_RS2_EEED2Ev
FNDA:3650796,_ZN6merkle5TreeTILm32EXadL_ZNS_L15sha256_compressERKNS_5HashTILm32EEES4_RS2_EEE9invariantEv
FNDA:262166,_ZN6merkle5TreeTILm32EXadL_ZNS_L14sha256_opensslERKNS_5HashTILm32EEES4_RS2_EEE6insertES4_
FNDA:23891762,_ZN6merkle5TreeTILm32EXadL_ZNS_L15sha256_compressERKNS_5HashTILm32EEES4_RS2_EEE6insertES4_
FNDA:524357,_ZN6merkle5TreeTILm48EXadL_ZNS_L14sha384_opensslERKNS_5HashTILm48EEES4_RS2_EEE6insertES4_
FNDA:524357,_ZN6merkle5TreeTILm64EXadL_ZNS_L14sha512_opensslERKNS_5HashTILm64EEES4_RS2_EEE6insertES4_
FNDA:4170,_ZN6merkleL20deserialise_uint64_tERKSt6vectorIhSaIhEERm
FNDA:182401,_ZN6merkle5TreeTILm32EXadL_ZNS_L15sha256_compressERKNS_5HashTILm32EEES4_RS2_EEE8flush_toEm
FNDA:6,_ZN6merkle5TreeTILm48EXadL_ZNS_L14sha384_opensslERKNS_5HashTILm48EEES4_RS2_EEE8flush_toEm
FNDA:6,_ZN6merkle5TreeTILm64EXadL_ZNS_L14sha512_opensslERKNS_5HashTILm64EEES4_RS2_EEE8flush_toEm
FNDA:1612664,_ZZN6merkle5TreeTILm32EXadL_ZNS_L15sha256_compressERKNS_5HashTILm32EEES4_RS2_EEE8flush_toEmENKUlRPNS6_4NodeEbE_clES9_b
FNDA:1,_ZZN6merkle5TreeTILm48EXadL_ZNS_L14sha384_opensslERKNS_5HashTILm48EEES4_RS2_EEE8flush_toEmENKUlRPNS6_4NodeEbE_clES9_b
FNDA:1,_ZZN6merkle5TreeTILm64EXadL_ZNS_L14sha512_opensslERKNS_5HashTILm64EEES4_RS2_EEE8flush_toEmENKUlRPNS6_4NodeEbE_clES9_b
FNDA:9175002,_ZN6merkle5TreeTILm32EXadL_ZNS_L15sha256_compressERKNS_5HashTILm32EEES4_RS2_EEE10retract_toEm
FNDA:5,_ZN6merkle5TreeTILm48EXadL_ZNS_L14sha384_opensslERKNS_5HashTILm48EEES4_RS2_EEE10retract_toEm
FNDA:5,_ZN6merkle5TreeTILm64EXadL_ZNS_L14sha512_opensslERKNS_5HashTILm64EEES4_RS2_EEE10retract_toEm
FNDA:384165,_ZZN6merkle5TreeTILm32EXadL_ZNS_L15sha256_compressERKNS_5HashTILm32EEES4_RS2_EEE10retract_toEmENKUlRPNS6_4NodeEbE_clES9_b
FNDA:2,_ZZN6merkle5TreeTILm48EXadL_ZNS_L14sha384_opensslERKNS_5HashTILm48EEES4_RS2_EEE10retract_toEmENKUlRPNS6_4NodeEbE_clES9_b
FNDA:2,_ZZN6merkle5TreeTILm64EXadL_ZNS_L14sha512_opensslERKNS_5HashTILm64EEES4_RS2_EEE10retract_toEmENKUlRPNS6_4NodeEbE_clES9_b
FNDA:2688,_ZN6merkle5TreeTILm32EXadL_ZNS_L15sha256_compressERKNS_5HashTILm32EEES4_RS2_EEEaSERKS6_
FNDA:1,_ZN6merkle5TreeTILm48EXadL_ZNS_L14sha384_opensslERKNS_5HashTILm48EEES4_RS2_EEEaSERKS6_
FNDA:1,_ZN6merkle5TreeTILm64EXadL_ZNS_L14sha512_opensslERKNS_5HashTILm64EEES4_RS2_EEEaSERKS6_
FNDA:2052,_ZN6merkle5TreeTILm32EXadL_ZNS_L14sha256_opensslERKNS_5HashTILm32EEES4_RS2_EEE4rootEv
FNDA:43389,_ZN6merkle5TreeTILm32EXadL_ZNS_L15sha256_compressERKNS_5HashTILm32EEES4_RS2_EEE4rootEv
FNDA:4110,_ZN6merkle5TreeTILm48EXadL_ZNS_L14sha384_opensslERKNS_5HashTILm48EEES4_RS2_EEE4rootEv
FNDA:4110,_ZN6merkle5TreeTILm64EXadL_ZNS_L14sha512_opensslERKNS_5HashTILm64EEES4_RS2_EEE4rootEv
FNDA:36334,_ZN6merkle5TreeTILm32EXadL_ZNS_L15sha256_compressERKNS_5HashTILm32EEES4_RS2_EEE9past_rootEm
FNDA:5,_ZN6merkle5TreeTILm48EXadL_ZNS_L14sha384_opensslERKNS_5HashTILm48EEES4_RS2_EEE9past_rootEm
FNDA:5,_ZN6merkle5TreeTILm64EXadL_ZNS_L14sha512_opensslERKNS_5HashTILm64EEES4_RS2_EEE9past_rootEm
FNF:227
FNH:223
DA:48,277999632
DA:50,277999632
DA:53,277999632
DA:69,11344
DA:71,11344
DA:72,11344
DA:73,102096
DA:75,90752
DA:77,11344
DA:79,4170
DA:82,4170
DA:83,4170
DA:84,37530
DA:86,33360
DA:88,4170
DA:100,71192798
DA:102,71192798
DA:103,71192798
DA:107,16793
DA:109,16793
DA:110,16793
DA:142,12054
DA:144,12054
DA:146,0
DA:148,12054
DA:149,12054
DA:159,3
DA:161,3
DA:179,148
DA:182,148
DA:183,148
DA:184,708
DA:186,560
DA:187,560
DA:188,560
DA:190,560
DA:192,148
DA:196,60222148
DA:198,60222148
DA:199,60222148
DA:203,11841
DA:205,11841
DA:209,87270
DA:211,87270
DA:216,65052
DA:219,2168364
DA:221,2103312
DA:223,65052
DA:228,12054
DA:231,12054
DA:233,0
DA:235,397782
DA:237,385728
DA:239,12054
DA:290,48137
DA:295,48137
DA:296,48137
DA:297,48137
DA:298,48137
DA:299,48137
DA:327,15165
DA:329,15165
DA:330,15165
DA:334,195455
DA:336,180290
DA:342,93902
DA:350,86388
DA:356,15165
DA:357,0
DA:362,9776
DA:364,9776
DA:369,2392
DA:372,2392
DA:373,2392
DA:374,2392
DA:375,2392
DA:376,36216
DA:378,33824
DA:379,33824
DA:381,2392
DA:415,22
DA:417,22
DA:418,22
DA:419,22
DA:420,0
DA:423,6
DA:425,6
DA:429,2370
DA:435,2370
DA:438,2370
DA:455,3
DA:457,6
DA:464,36343
DA:466,36343
DA:470,36340
DA:472,36340
DA:478,22
DA:481,22
DA:482,22
DA:483,102
DA:486,80
DA:488,44
DA:489,22
DA:492,36344
DA:494,36344
DA:498,4695
DA:500,4695
DA:502,0
DA:504,4695
DA:505,4695
DA:506,52883
DA:508,48188
DA:510,0
DA:512,48188
DA:513,48188
DA:515,4695
DA:519,2687
DA:521,2687
DA:555,59501826
DA:557,59501826
DA:558,59501826
DA:559,59501826
DA:560,59501826
DA:561,59501826
DA:562,59501826
DA:563,59501826
DA:569,11085057
DA:571,11085057
DA:572,11085057
DA:573,11085057
DA:574,11085057
DA:575,11085057
DA:576,11085057
DA:577,11085057
DA:578,11085057
DA:588,68917677
DA:596,68917677
DA:598,34647340
DA:601,34270337
DA:602,34270337
DA:603,34270337
DA:604,34270337
DA:605,68540674
DA:606,34270337
DA:612,68540674
DA:613,34270337
DA:619,34270337
DA:621,16938870
DA:623,16937787
DA:627,1083
DA:630,34270337
DA:636,12343595128
DA:638,12343595128
DA:639,12343595128
DA:640,12343595128
DA:641,12343595128
DA:642,12343595128
DA:643,12343595128
DA:644,12343595128
DA:647,70586883
DA:649,70586883
DA:652,70586883
DA:653,70586883
DA:654,70586883
DA:659,62788163
DA:661,62788163
DA:662,62788163
DA:663,62788163
DA:667,99855841
DA:669,99855841
DA:671,40271723
DA:672,40271723
DA:676,59584118
DA:678,99855841
DA:712,3277
DA:715,2690
DA:716,2690
DA:717,2690
DA:718,2690
DA:734,2083
DA:735,2083
DA:736,2083
DA:737,2083
DA:749,3
DA:750,3
DA:751,3
DA:752,3
DA:755,8053
DA:757,8053
DA:758,1060742
DA:760,1052689
DA:762,8053
DA:765,3650796
DA:767,3650796
DA:779,25202642
DA:784,25202642
DA:785,25202642
DA:786,25202642
DA:812,182413
DA:815,182413
DA:817,182413
DA:819,12270
DA:822,170149
DA:823,1612666
DA:829,1168435
DA:831,0
DA:833,1168435
DA:834,1168435
DA:835,1168435
DA:836,1168435
DA:838,1612666
DA:841,170140
DA:842,340280
DA:843,340280
DA:844,170140
DA:851,9175012
DA:854,9175012
DA:856,9175012
DA:858,0
DA:861,9175012
DA:863,3
DA:866,9175009
DA:868,9131953
DA:869,22596908
DA:871,13464955
DA:872,13464955
DA:874,9131953
DA:878,43062
DA:879,384169
DA:880,384169
DA:881,384169
DA:887,117383
DA:889,117383
DA:890,117383
DA:891,117383
DA:893,117383
DA:895,117383
DA:896,117383
DA:897,117383
DA:899,117383
DA:901,95658
DA:904,117383
DA:910,2233
DA:913,117383
DA:918,117383
DA:920,266786
DA:924,43056
DA:926,43056
DA:927,43056
DA:929,43056
DA:933,0
DA:936,43056
DA:942,2690
DA:944,2690
DA:945,2690
DA:947,0
DA:949,2690
DA:950,2690
DA:951,2690
DA:952,2690
DA:954,2690
DA:955,2690
DA:956,2690
DA:961,377003
DA:963,374313
DA:965,2690
DA:966,2690
DA:967,2690
DA:968,2690
DA:973,53661
DA:976,53661
DA:977,53661
DA:978,53658
DA:982,53658
DA:992,36344
DA:995,36344
DA:997,36344
DA:998,36338
DA:1005,453200
DA:1007,416862
DA:1009,205164
DA:1013,72676
DA:1014,36338
DA:1023,262866
DA:1026,262866
DA:1028,6
DA:1031,262860
DA:1033,262854
DA:1035,262854
DA:1036,262854
DA:1037,262854
DA:1039,262842
DA:1041,262854
DA:1043,3708160
DA:1045,3445306
DA:1046,3445306
DA:1047,3445306
DA:1049,626212
DA:1057,3445306
DA:1059,2546771
DA:1061,117383
DA:1063,2429388
DA:1065,3327923
DA:1066,3327923
DA:1069,262854
DA:1071,669268
DA:1073,626212
DA:1074,626212
DA:1078,262854
DA:1084,43442
DA:1087,43442
DA:1088,43442
DA:1090,44314
DA:1091,498881
DA:1092,498881
DA:1093,498881
DA:1094,498881
DA:1095,498881
DA:1099,86866
DA:1100,43442
DA:1109,4710
DA:1113,4710
DA:1115,4710
DA:1116,9420
DA:1117,9420
DA:1119,6
DA:1122,4704
DA:1124,4704
DA:1130,4704
DA:1131,4704
DA:1132,4704
DA:1133,4704
DA:1135,4704
DA:1136,4704
DA:1137,4704
DA:1138,4704
DA:1139,4704
DA:1141,4701
DA:1142,4701
DA:1145,61659
DA:1147,56955
DA:1148,56955
DA:1149,56955
DA:1161,56955
DA:1163,4489
DA:1164,4489
DA:1169,4489
DA:1172,56955
DA:1175,18183
DA:1176,18183
DA:1178,12904
DA:1180,9419
DA:1181,9419
DA:1182,9419
DA:1183,9419
DA:1185,12904
DA:1191,38772
DA:1193,38772
DA:1194,38772
DA:1195,38772
DA:1196,38772
DA:1197,38772
DA:1199,38772
DA:1204,36427
DA:1206,19743
DA:1207,19743
DA:1208,19743
DA:1209,19743
DA:1211,36427
DA:1215,56955
DA:1216,56955
DA:1217,56955
DA:1239,4704
DA:1242,4704
DA:1244,4489
DA:1246,38987
DA:1248,34283
DA:1251,4704
DA:1256,4489
DA:1257,4489
DA:1259,4489
DA:1261,19743
DA:1263,15254
DA:1271,4489
DA:1272,4489
DA:1273,4489
DA:1274,4489
DA:1279,14123
DA:1281,9419
DA:1285,9408
DA:1286,4704
DA:1290,76
DA:1294,76
DA:1295,76
DA:1296,76
DA:1297,720
DA:1299,644
DA:1301,784
DA:1303,708
DA:1306,76
DA:1310,73
DA:1315,73
DA:1316,76
DA:1317,639
DA:1319,444
DA:1321,639
DA:1324,517
DA:1326,444
DA:1328,73
DA:1329,76
DA:1335,2008
DA:1340,2008
DA:1341,6024
DA:1342,6024
DA:1344,0
DA:1347,2008
DA:1348,2008
DA:1349,17438
DA:1351,15430
DA:1354,2008
DA:1358,2008
DA:1363,2008
DA:1364,2008
DA:1365,16864
DA:1367,11610
DA:1369,16864
DA:1372,13618
DA:1374,11610
DA:1376,2008
DA:1377,2008
DA:1381,2085
DA:1383,2085
DA:1384,2085
DA:1385,2085
DA:1390,2085
DA:1394,2085
DA:1395,2085
DA:1396,2085
DA:1398,0
DA:1400,2085
DA:1401,2085
DA:1402,2085
DA:1403,2085
DA:1404,2085
DA:1406,2085
DA:1407,2085
DA:1409,2085
DA:1410,18878
DA:1412,16793
DA:1413,16793
DA:1414,16793
DA:1417,2085
DA:1418,2085
DA:1419,2085
DA:1420,2085
DA:1421,24912
DA:1424,22827
DA:1426,12054
DA:1428,12054
DA:1429,12054
DA:1430,12054
DA:1431,12054
DA:1432,12054
DA:1441,60380
DA:1443,37553
DA:1445,10788
DA:1449,26765
DA:1453,22827
DA:1454,22827
DA:1456,22827
DA:1457,22827
DA:1460,2085
DA:1462,2085
DA:1464,2082
DA:1465,2082
DA:1467,2085
DA:1488,15439
DA:1491,15439
DA:1493,0
DA:1495,15439
DA:1498,502
DA:1499,502
DA:1501,14937
DA:1508,28007916
DA:1510,28007916
DA:1517,11065287
DA:1519,11065287
DA:1526,27528561
DA:1528,27528561
DA:1529,27528561
DA:1534,4223
DA:1536,4223
DA:1543,131
DA:1545,131
DA:1547,0
DA:1549,131
DA:1555,2136
DA:1557,2136
DA:1559,2136
DA:1561,2136
DA:1562,16688
DA:1564,12490
DA:1566,16688
DA:1571,4272
DA:1578,2008
DA:1580,2008
DA:1581,2008
DA:1582,16864
DA:1584,11610
DA:1586,16864
DA:1590,2008
DA:1622,8
DA:1624,8
DA:1625,8
DA:1626,8
DA:1627,8
DA:1628,8
DA:1629,16
DA:1630,8
DA:1638,2
DA:1640,6
DA:1641,2
DA:1642,2
DA:1643,2
DA:1645,2
DA:1647,0
DA:1648,0
DA:1651,2
DA:1653,0
DA:1657,2
DA:1658,2
DA:1659,12
DA:1661,10
DA:1662,52
DA:1664,42
DA:1665,42
DA:1666,42
DA:1668,20
DA:1670,42
DA:1672,20
DA:1674,42
DA:1676,10
DA:1677,10
DA:1678,10
DA:1683,2
DA:1684,2
DA:1685,2
DA:1686,2
DA:1688,2
DA:1689,2
DA:1735,48137
DA:1738,48137
DA:1740,0
DA:1742,48137
DA:1744,0
DA:1745,0
DA:1747,48137
DA:1755,257725
DA:1761,257725
DA:1762,257725
DA:1763,257725
DA:1765,25090904
DA:1767,24833179
DA:1768,24833179
DA:1770,24833179
DA:1772,5437154
DA:1774,19396025
DA:1776,6850573
DA:1780,12545452
DA:1781,12545452
DA:1783,0
DA:1785,12545452
DA:1786,12545452
DA:1794,12545452
DA:1795,12545452
DA:1798,257725
DA:1801,323306
DA:1803,323306
DA:1804,323306
DA:1806,9
DA:1808,323297
DA:1809,323297
DA:1810,323297
DA:1812,257725
DA:1813,257725
DA:1815,323297
DA:1822,11058292
DA:1824,17584454
DA:1829,28642746
DA:1831,28642746
DA:1833,11058292
DA:1834,11058292
DA:1835,11058292
DA:1836,11058292
DA:1839,17584454
DA:1840,17584454
DA:1841,17584454
DA:1842,17584454
DA:1843,17584454
DA:1844,17584454
DA:1846,0
DA:1847,0
DA:1851,17584454
DA:1852,17584454
DA:1860,11303207
DA:1871,11303207
DA:1872,11303207
DA:1874,11303207
DA:1875,11303207
DA:1877,17606215
DA:1879,17339539
DA:1880,17339539
DA:1881,17339539
DA:1882,17339539
DA:1884,17339539
DA:1886,0
DA:1890,17339539
DA:1892,17339539
DA:1893,17339539
DA:1895,17339539
DA:1897,17339539
DA:1903,11036531
DA:1907,266676
DA:1909,266676
DA:1915,11059311
DA:1920,11059311
DA:1921,11059311
DA:1923,1019
DA:1927,11058292
DA:1928,11058292
DA:1930,11059311
DA:1935,323306
DA:1937,323306
DA:1944,11312460
DA:1946,11059311
DA:1948,253149
DA:1950,323306
DA:1952,244915
DA:1954,323306
DA:1965,11583318
DA:1978,11583318
DA:1979,11583318
DA:1984,11583318
DA:1986,196916406
DA:1987,185333088
DA:1990,567582582
DA:1991,555999264
DA:1992,555999264
DA:1993,555999264
DA:1994,555999264
DA:1995,555999264
DA:1996,555999264
DA:1997,555999264
DA:2001,104249862
DA:2002,92666544
DA:2005,752915670
DA:2006,741332352
DA:2007,741332352
DA:2008,741332352
DA:2009,741332352
DA:2010,741332352
DA:2011,741332352
DA:2012,741332352
DA:2013,741332352
DA:2014,741332352
DA:2015,741332352
DA:2016,741332352
DA:2017,741332352
DA:2018,741332352
DA:2019,741332352
DA:2020,741332352
DA:2021,741332352
DA:2022,741332352
DA:2023,741332352
DA:2024,741332352
DA:2027,104249862
DA:2028,92666544
DA:2030,11583318
DA:2039,272406
DA:2045,272406
DA:2046,272406
DA:2048,272406
DA:2050,272406
DA:2051,272406
DA:2053,0
DA:2055,272406
DA:2061,545218
DA:2067,545218
DA:2068,545218
DA:2070,545218
DA:2072,545218
DA:2073,545218
DA:2075,0
DA:2077,545218
DA:2083,545218
DA:2089,545218
DA:2090,545218
DA:2092,545218
DA:2094,545218
DA:2095,545218
DA:2097,0
DA:2099,545218
LF:702
LH:675
end_of_record
TN:
SF:/home/runner/work/merklecpp/merklecpp/test/compare_hash_functions.cpp
FN:194,219,_Z5benchIN6merkle5TreeTILm32EXadL_ZNS0_L14sha256_opensslERKNS0_5HashTILm32EEES5_RS3_EEEEEvRKSt6vectorIS3_SaIS3_EERKNSt7__cxx1112basic_stringIcSt11char_traitsIcESaIcEEEm
FN:194,219,_Z5benchIN6merkle5TreeTILm32EXadL_ZNS0_L15sha256_compressERKNS0_5HashTILm32EEES5_RS3_EEEEEvRKSt6vectorIS3_SaIS3_EERKNSt7__cxx1112basic_stringIcSt11char_traitsIcESaIcEEEm
FN:222,247,_Z6benchTIN6merkle5TreeTILm48EXadL_ZNS0_L14sha384_opensslERKNS0_5HashTILm48EEES5_RS3_EEEELm48EEvRKSt6vectorINS2_IXT0_EEESaIS9_EERKNSt7__cxx1112basic_stringIcSt11char_traitsIcESaIcEEEm
FN:222,247,_Z6benchTIN6merkle5TreeTILm64EXadL_ZNS0_L14sha512_opensslERKNS0_5HashTILm64EEES5_RS3_EEEELm64EEvRKSt6vectorINS2_IXT0_EEESaIS9_EERKNSt7__cxx1112basic_stringIcSt11char_traitsIcESaIcEEEm
FN:284,371,main
FN:80,134,_Z26compare_compression_hashesv
FNDA:2,_Z5benchIN6merkle5TreeTILm32EXadL_ZNS0_L14sha256_opensslERKNS0_5HashTILm32EEES5_RS3_EEEEEvRKSt6vectorIS3_SaIS3_EERKNSt7__cxx1112basic_stringIcSt11char_traitsIcESaIcEEEm
FNDA:2,_Z5benchIN6merkle5TreeTILm32EXadL_ZNS0_L15sha256_compressERKNS0_5HashTILm32EEES5_RS3_EEEEEvRKSt6vectorIS3_SaIS3_EERKNSt7__cxx1112basic_stringIcSt11char_traitsIcESaIcEEEm
FNDA:2,_Z6benchTIN6merkle5TreeTILm48EXadL_ZNS0_L14sha384_opensslERKNS0_5HashTILm48EEES5_RS3_EEEELm48EEvRKSt6vectorINS2_IXT0_EEESaIS9_EERKNSt7__cxx1112basic_stringIcSt11char_traitsIcESaIcEEEm
FNDA:2,_Z6benchTIN6merkle5TreeTILm64EXadL_ZNS0_L14sha512_opensslERKNS0_5HashTILm64EEES5_RS3_EEEELm64EEvRKSt6vectorINS2_IXT0_EEESaIS9_EERKNSt7__cxx1112basic_stringIcSt11char_traitsIcESaIcEEEm
FNDA:2,main
FNDA:2,_Z26compare_compression_hashesv
FNF:6
FNH:6
DA:80,2
DA:83,2
DA:84,2
DA:90,2
DA:91,2
DA:93,2050
DA:95,2048
DA:102,2048
DA:103,2048
DA:105,1051648
DA:107,1049600
DA:113,1049600
DA:115,1049600
DA:121,34850
DA:129,2048
DA:131,2
DA:132,2
DA:133,2
DA:134,2
DA:194,4
DA:199,4
DA:200,4
DA:201,4
DA:202,524292
DA:204,524288
DA:205,524288
DA:207,4096
DA:210,4
DA:211,4
DA:212,4
DA:213,4
DA:215,4
DA:216,4
DA:217,4
DA:218,4
DA:219,4
DA:222,4
DA:227,4
DA:228,4
DA:229,4
DA:230,524292
DA:232,524288
DA:233,524288
DA:235,4096
DA:238,4
DA:239,4
DA:240,4
DA:241,4
DA:243,4
DA:244,4
DA:245,4
DA:246,4
DA:247,4
DA:284,2
DA:289,2
DA:291,2
DA:298,2
DA:299,2
DA:305,2
DA:308,2
DA:310,2
DA:316,2
DA:319,2
DA:324,2
DA:325,2
DA:326,2
DA:327,2
DA:330,2
DA:331,2
DA:332,2
DA:333,2
DA:358,2
DA:359,0
DA:361,0
DA:362,0
DA:363,0
DA:364,0
DA:366,0
DA:367,0
DA:368,0
DA:370,2
LF:81
LH:73
end_of_record
TN:
SF:/home/runner/work/merklecpp/merklecpp/test/demo_tree.cpp
FN:18,91,main
FNDA:2,main
FNF:1
FNH:1
DA:18,2
DA:22,2
DA:24,2
DA:27,2
DA:28,24
DA:30,22
DA:32,2
DA:33,2
DA:36,2
DA:37,24
DA:39,22
DA:40,22
DA:41,22
DA:42,22
DA:43,22
DA:45,0
DA:47,22
DA:48,22
DA:51,2
DA:52,2
DA:53,2
DA:54,2
DA:56,0
DA:59,2
DA:60,2
DA:64,2
DA:66,2
DA:67,24
DA:69,22
DA:71,2
DA:72,2
DA:73,2
DA:75,2
DA:79,0
DA:81,0
DA:82,0
DA:83,0
DA:84,0
DA:86,0
DA:87,0
DA:88,0
DA:90,2
LF:42
LH:32
end_of_record
TN:
SF:/home/runner/work/merklecpp/merklecpp/test/flush.cpp
FN:14,86,main
FNDA:2,main
FNF:1
FNH:1
DA:14,2
DA:16,2
DA:17,2
DA:18,2
DA:19,2
DA:24,2
DA:25,2
DA:26,2
DA:33,2
DA:34,2
DA:36,66
DA:40,64
DA:41,64
DA:43,64
DA:45,64
DA:46,1959966
DA:48,1959902
DA:49,1959902
DA:51,98314
DA:52,98314
DA:56,1088
DA:58,1024
DA:59,1024
DA:60,1024
DA:62,0
DA:66,64
DA:68,2
DA:69,2
DA:70,2
DA:72,64
DA:74,0
DA:76,0
DA:77,0
DA:78,0
DA:79,0
DA:81,0
DA:82,0
DA:83,0
DA:85,2
LF:39
LH:30
end_of_record
TN:
SF:/home/runner/work/merklecpp/merklecpp/test/partial_serialisation.cpp
FN:17,139,main
FNDA:2,main
FNF:1
FNH:1
DA:17,2
DA:19,2
DA:20,2
DA:21,2
DA:22,2
DA:27,2
DA:28,2
DA:29,2
DA:36,2
DA:37,2
DA:38,2
DA:39,2
DA:41,130
DA:44,128
DA:46,128
DA:47,128
DA:48,128
DA:51,128
DA:52,509340
DA:54,509212
DA:55,509212
DA:56,509212
DA:57,509212
DA:59,25332
DA:60,25332
DA:61,25332
DA:62,25332
DA:64,509212
DA:66,25512
DA:67,25512
DA:68,25512
DA:69,25512
DA:73,2136
DA:74,2136
DA:77,2008
DA:78,2008
DA:79,2008
DA:81,874
DA:85,2008
DA:86,2008
DA:89,2008
DA:92,2008
DA:93,2008
DA:94,2008
DA:95,2008
DA:96,2008
DA:97,2008
DA:98,2008
DA:100,2008
DA:101,4016
DA:102,4016
DA:105,0
DA:107,0
DA:108,0
DA:111,2008
DA:113,2008
DA:114,2008
DA:115,24
DA:117,2
DA:118,2
DA:119,2
DA:120,2
DA:122,2008
DA:123,128
DA:125,0
DA:127,0
DA:128,0
DA:129,0
DA:130,0
DA:131,0
DA:133,0
DA:134,0
DA:135,0
DA:136,0
DA:138,2
LF:75
LH:62
end_of_record
TN:
SF:/home/runner/work/merklecpp/merklecpp/test/past_paths.cpp
FN:15,29,_Z14past_root_specRKN6merkle5TreeTILm32EXadL_ZNS_L15sha256_compressERKNS_5HashTILm32EEES4_RS2_EEEEmm
FN:31,169,main
FNDA:2687,_Z14past_root_specRKN6merkle5TreeTILm32EXadL_ZNS_L15sha256_compressERKNS_5HashTILm32EEES4_RS2_EEEEmm
FNDA:2,main
FNF:2
FNH:2
DA:15,2687
DA:18,2687
DA:19,2687
DA:20,2687
DA:25,2687
DA:26,2687
DA:27,2687
DA:28,5374
DA:29,2687
DA:31,2
DA:33,2
DA:34,2
DA:35,2
DA:36,2
DA:38,2
DA:43,2
DA:44,2
DA:45,2
DA:52,2
DA:53,2
DA:54,2
DA:56,2
DA:58,2
DA:59,50
DA:61,48
DA:62,48
DA:64,48
DA:65,48
DA:67,48
DA:68,374361
DA:70,374313
DA:78,2735
DA:79,2735
DA:82,2687
DA:83,2687
DA:84,2687
DA:86,1342
DA:89,2687
DA:90,2687
DA:92,2687
DA:94,149
DA:96,41
DA:97,41
DA:98,41
DA:116,2687
DA:117,2687
DA:118,2687
DA:129,2687
DA:131,0
DA:134,2687
DA:136,0
DA:139,2687
DA:141,0
DA:144,2687
DA:146,48
DA:147,48
DA:148,48
DA:151,2687
DA:152,2687
DA:153,48
DA:154,2
DA:155,0
DA:157,0
DA:158,0
DA:159,0
DA:160,0
DA:161,0
DA:163,0
DA:164,0
DA:165,0
DA:166,0
DA:168,2
LF:72
LH:59
end_of_record
TN:
SF:/home/runner/work/merklecpp/merklecpp/test/past_root.cpp
FN:17,141,main
FNDA:2,main
FNF:1
FNH:1
DA:17,2
DA:19,2
DA:20,2
DA:21,2
DA:22,2
DA:24,2
DA:30,128
DA:32,126
DA:35,126
DA:37,126
DA:38,4284
DA:40,4158
DA:41,4158
DA:43,126
DA:46,126
DA:47,4284
DA:49,4158
DA:52,4284
DA:54,4158
DA:55,4158
DA:57,0
DA:58,0
DA:59,0
DA:60,0
DA:61,0
DA:63,4158
DA:64,126
DA:66,2
DA:69,2
DA:70,2
DA:76,2
DA:77,2
DA:79,130
DA:82,128
DA:83,128
DA:84,128
DA:85,128
DA:89,128
DA:90,557590
DA:92,557462
DA:93,557462
DA:95,27474
DA:98,128
DA:101,128
DA:102,557590
DA:104,557462
DA:108,27602
DA:110,27474
DA:111,27474
DA:112,27474
DA:114,0
DA:115,0
DA:116,0
DA:117,0
DA:119,27474
DA:121,128
DA:123,2
DA:124,2
DA:125,2
DA:127,128
DA:129,0
DA:131,0
DA:132,0
DA:133,0
DA:134,0
DA:136,0
DA:137,0
DA:138,0
DA:140,2
LF:69
LH:52
end_of_record
TN:
SF:/home/runner/work/merklecpp/merklecpp/test/paths.cpp
FN:15,88,main
FNDA:2,main
FNF:1
FNH:1
DA:15,2
DA:17,2
DA:18,2
DA:19,2
DA:20,2
DA:25,2
DA:26,2
DA:27,2
DA:34,2
DA:35,2
DA:37,130
DA:40,128
DA:41,128
DA:43,128
DA:44,128
DA:46,128
DA:48,128
DA:49,4219700
DA:51,4219572
DA:53,128
DA:55,2370
DA:58,2242
DA:59,2242
DA:60,2242
DA:62,0
DA:64,2242
DA:65,2242
DA:66,2242
DA:68,0
DA:70,2242
DA:71,128
DA:73,2
DA:74,2
DA:76,0
DA:78,0
DA:79,0
DA:80,0
DA:81,0
DA:83,0
DA:84,0
DA:85,0
DA:87,2
LF:42
LH:32
end_of_record
TN:
SF:/home/runner/work/merklecpp/merklecpp/test/retract.cpp
FN:15,99,main
FNDA:2,main
FNF:1
FNH:1
DA:15,2
DA:17,2
DA:18,2
DA:19,2
DA:20,2
DA:25,2
DA:26,2
DA:27,2
DA:34,2
DA:35,2
DA:37,258
DA:40,256
DA:41,256
DA:43,256
DA:45,256
DA:46,8653266
DA:48,8653010
DA:49,8653010
DA:51,4328452
DA:52,4328452
DA:53,4328452
DA:54,4328452
DA:55,4328452
DA:56,4328452
DA:58,0
DA:62,8653010
DA:64,431402
DA:65,431402
DA:69,936
DA:71,936
DA:72,936
DA:73,936
DA:75,256
DA:79,256
DA:81,2
DA:82,2
DA:83,2
DA:85,256
DA:87,0
DA:89,0
DA:90,0
DA:91,0
DA:92,0
DA:94,0
DA:95,0
DA:96,0
DA:98,2
LF:47
LH:38
end_of_record
TN:
SF:/home/runner/work/merklecpp/merklecpp/test/serialisation.cpp
FN:17,113,main
FNDA:2,main
FNF:1
FNH:1
DA:17,2
DA:19,2
DA:20,2
DA:21,2
DA:22,2
DA:27,2
DA:28,2
DA:34,2
DA:35,2
DA:36,2
DA:38,66
DA:41,64
DA:42,64
DA:43,64
DA:46,64
DA:47,1150188
DA:49,1150124
DA:50,1150124
DA:51,1150124
DA:52,1150124
DA:54,57662
DA:55,57662
DA:56,57662
DA:57,57662
DA:59,1150124
DA:61,57556
DA:62,57556
DA:63,57556
DA:64,57556
DA:69,64
DA:70,64
DA:73,64
DA:76,64
DA:77,128
DA:78,128
DA:79,64
DA:80,192
DA:81,64
DA:84,0
DA:86,0
DA:87,0
DA:90,64
DA:92,2
DA:93,2
DA:95,2
DA:97,64
DA:99,0
DA:101,0
DA:102,0
DA:103,0
DA:104,0
DA:105,0
DA:107,0
DA:108,0
DA:109,0
DA:110,0
DA:112,2
LF:57
LH:44
end_of_record
TN:
SF:/home/runner/work/merklecpp/merklecpp/test/serialise_to_file.cpp
FN:19,87,main
FNDA:2,main
FNF:1
FNH:1
DA:19,2
DA:23,2
DA:25,2
DA:26,2
DA:27,24
DA:29,22
DA:31,2
DA:32,2
DA:36,2
DA:37,2
DA:39,1
DA:40,1
DA:41,1
DA:42,369
DA:44,368
DA:45,368
DA:47,1
DA:48,1
DA:49,1
DA:50,2
DA:53,2
DA:54,2
DA:56,2
DA:57,2
DA:58,2
DA:59,740
DA:61,738
DA:62,738
DA:64,2
DA:65,2
DA:66,2
DA:67,2
DA:68,2
DA:70,0
DA:72,2
DA:73,2
DA:75,0
DA:77,0
DA:78,0
DA:79,0
DA:80,0
DA:82,0
DA:83,0
DA:84,0
DA:86,2
LF:45
LH:36
end_of_record
TN:
SF:/home/runner/work/merklecpp/merklecpp/test/time_large_trees.cpp
FN:17,150,main
FNDA:2,main
FNF:1
FNH:1
DA:17,2
DA:22,2
DA:23,2
DA:29,2
DA:31,2
DA:32,2
DA:33,2
DA:34,262146
DA:36,262144
DA:37,262144
DA:39,2048
DA:42,2
DA:43,2
DA:45,2
DA:46,2
DA:47,2
DA:48,4
DA:49,2
DA:53,2
DA:55,2
DA:56,2
DA:57,2
DA:58,262146
DA:60,262144
DA:61,262144
DA:63,2048
DA:66,2
DA:67,2
DA:69,2
DA:70,2
DA:71,2
DA:72,4
DA:73,2
DA:74,2
DA:77,2
DA:79,2
DA:80,2
DA:81,2
DA:82,262146
DA:84,262144
DA:85,262144
DA:87,2048
DA:90,2
DA:91,2
DA:93,2
DA:94,2
DA:95,2
DA:96,4
DA:97,2
DA:98,2
DA:137,2
DA:138,0
DA:140,0
DA:141,0
DA:142,0
DA:143,0
DA:145,0
DA:146,0
DA:147,0
DA:149,2
LF:60
LH:52
end_of_record
TN:
SF:/home/runner/work/merklecpp/merklecpp/test/unit_tests.cpp
FN:10,29,_ZL20DOCTEST_ANON_FUNC_14v
FN:117,136,_ZL20DOCTEST_ANON_FUNC_20v
FN:138,161,_ZL20DOCTEST_ANON_FUNC_22v
FN:163,213,_ZL20DOCTEST_ANON_FUNC_24v
FN:215,233,_ZL20DOCTEST_ANON_FUNC_26v
FN:235,254,_ZL20DOCTEST_ANON_FUNC_28v
FN:256,279,_ZL20DOCTEST_ANON_FUNC_30v
FN:281,331,_ZL20DOCTEST_ANON_FUNC_32v
FN:31,54,_ZL20DOCTEST_ANON_FUNC_16v
FN:333,351,_ZL20DOCTEST_ANON_FUNC_34v
FN:353,381,_ZL20DOCTEST_ANON_FUNC_36v
FN:56,114,_ZL20DOCTEST_ANON_FUNC_18v
FNDA:1,_ZL20DOCTEST_ANON_FUNC_14v
FNDA:1,_ZL20DOCTEST_ANON_FUNC_20v
FNDA:1,_ZL20DOCTEST_ANON_FUNC_22v
FNDA:1,_ZL20DOCTEST_ANON_FUNC_24v
FNDA:1,_ZL20DOCTEST_ANON_FUNC_26v
FNDA:1,_ZL20DOCTEST_ANON_FUNC_28v
FNDA:1,_ZL20DOCTEST_ANON_FUNC_30v
FNDA:1,_ZL20DOCTEST_ANON_FUNC_32v
FNDA:1,_ZL20DOCTEST_ANON_FUNC_16v
FNDA:1,_ZL20DOCTEST_ANON_FUNC_34v
FNDA:1,_ZL20DOCTEST_ANON_FUNC_36v
FNDA:1,_ZL20DOCTEST_ANON_FUNC_18v
FNF:12
FNH:12
DA:10,1
DA:12,1
DA:14,1
DA:15,1
DA:16,1
DA:18,1
DA:19,1
DA:20,1
DA:21,1
DA:23,1
DA:24,1
DA:26,1
DA:27,1
DA:28,2
DA:29,1
DA:31,1
DA:33,1
DA:34,1
DA:36,1
DA:37,1
DA:39,1
DA:40,1
DA:41,1
DA:42,1
DA:43,1
DA:44,1
DA:45,1
DA:47,1
DA:48,1
DA:50,1
DA:51,1
DA:52,1
DA:53,1
DA:54,1
DA:56,1
DA:58,1
DA:59,1
DA:61,1
DA:63,1
DA:64,1
DA:66,1
DA:68,1
DA:69,1
DA:71,1
DA:72,1
DA:73,1
DA:74,1
DA:75,1
DA:76,1
DA:77,1
DA:79,1
DA:80,1
DA:81,1
DA:82,1
DA:83,1
DA:85,1
DA:86,1
DA:87,1
DA:88,1
DA:89,1
DA:90,1
DA:91,1
DA:92,1
DA:93,1
DA:94,1
DA:96,1
DA:97,1
DA:98,1
DA:99,1
DA:101,1
DA:103,1
DA:104,1
DA:105,1
DA:107,1
DA:108,1
DA:109,1
DA:110,1
DA:112,1
DA:113,1
DA:114,1
DA:117,1
DA:119,1
DA:121,1
DA:122,1
DA:123,1
DA:125,1
DA:126,1
DA:127,1
DA:128,1
DA:130,1
DA:131,1
DA:133,1
DA:134,1
DA:135,2
DA:136,1
DA:138,1
DA:140,1
DA:141,1
DA:143,1
DA:144,1
DA:146,1
DA:147,1
DA:148,1
DA:149,1
DA:150,1
DA:151,1
DA:152,1
DA:154,1
DA:155,1
DA:157,1
DA:158,1
DA:159,1
DA:160,1
DA:161,1
DA:163,1
DA:165,1
DA:166,1
DA:168,1
DA:170,1
DA:171,1
DA:173,1
DA:175,1
DA:176,1
DA:178,1
DA:179,1
DA:180,1
DA:181,1
DA:182,1
DA:184,1
DA:185,1
DA:186,1
DA:187,1
DA:189,1
DA:190,1
DA:191,1
DA:192,1
DA:193,1
DA:195,1
DA:196,1
DA:197,1
DA:198,1
DA:200,1
DA:202,1
DA:203,1
DA:204,1
DA:206,1
DA:207,1
DA:208,1
DA:209,1
DA:211,1
DA:212,1
DA:213,1
DA:215,1
DA:217,1
DA:218,1
DA:220,1
DA:221,65
DA:222,64
DA:223,1
DA:225,65
DA:227,64
DA:228,64
DA:229,64
DA:230,64
DA:231,64
DA:232,64
DA:233,1
DA:235,1
DA:237,1
DA:239,1
DA:240,1
DA:241,1
DA:243,1
DA:244,1
DA:245,1
DA:246,1
DA:248,1
DA:249,1
DA:251,1
DA:252,1
DA:253,2
DA:254,1
DA:256,1
DA:258,1
DA:259,1
DA:261,1
DA:262,1
DA:264,1
DA:265,1
DA:266,1
DA:267,1
DA:268,1
DA:269,1
DA:270,1
DA:272,1
DA:273,1
DA:275,1
DA:276,1
DA:277,1
DA:278,1
DA:279,1
DA:281,1
DA:283,1
DA:284,1
DA:286,1
DA:288,1
DA:289,1
DA:291,1
DA:293,1
DA:294,1
DA:296,1
DA:297,1
DA:298,1
DA:299,1
DA:300,1
DA:302,1
DA:303,1
DA:304,1
DA:305,1
DA:307,1
DA:308,1
DA:309,1
DA:310,1
DA:311,1
DA:313,1
DA:314,1
DA:315,1
DA:316,1
DA:318,1
DA:320,1
DA:321,1
DA:322,1
DA:324,1
DA:325,1
DA:326,1
DA:327,1
DA:329,1
DA:330,1
DA:331,1
DA:333,1
DA:335,1
DA:336,1
DA:338,1
DA:339,65
DA:340,64
DA:341,1
DA:343,65
DA:345,64
DA:346,64
DA:347,64
DA:348,64
DA:349,64
DA:350,64
DA:351,1
DA:353,1
DA:355,1
DA:356,1
DA:357,1
DA:359,1
DA:360,1
DA:361,1
DA:363,1
DA:364,1
DA:365,1
DA:367,1
DA:368,1
DA:369,1
DA:370,1
DA:371,1
DA:372,1
DA:374,1
DA:375,1
DA:376,1
DA:378,1
DA:379,1
DA:380,1
DA:381,1
LF:277
LH:277
end_of_record
TN:
SF:/home/runner/work/merklecpp/merklecpp/test/util.h
FN:11,22,_Z11make_hashesmm
FN:25,37,_Z12make_hashesTILm48EESt6vectorIN6merkle5HashTIXT_EEESaIS3_EEmm
FN:25,37,_Z12make_hashesTILm64EESt6vectorIN6merkle5HashTIXT_EEESaIS3_EEmm
FN:39,44,_Z12random_indexRN6merkle5TreeTILm32EXadL_ZNS_L15sha256_compressERKNS_5HashTILm32EEES4_RS2_EEEE
FN:46,57,_Z11get_timeoutv
FN:59,69,_Z9timed_outdRKNSt6chrono10time_pointINS_3_V212system_clockENS_8durationIlSt5ratioILl1ELl1000000000EEEEEE
FNDA:2954,_Z11make_hashesmm
FNDA:5,_Z12make_hashesTILm48EESt6vectorIN6merkle5HashTIXT_EEESaIS3_EEmm
FNDA:5,_Z12make_hashesTILm64EESt6vectorIN6merkle5HashTIXT_EEESaIS3_EEmm
FNDA:707128,_Z12random_indexRN6merkle5TreeTILm32EXadL_ZNS_L15sha256_compressERKNS_5HashTILm32EEES4_RS2_EEEE
FNDA:14,_Z11get_timeoutv
FNDA:7705,_Z9timed_outdRKNSt6chrono10time_pointINS_3_V212system_clockENS_8durationIlSt5ratioILl1ELl1000000000EEEEEE
FNF:6
FNH:6
DA:11,2954
DA:13,2954
DA:14,2954
DA:15,18663116
DA:17,18660162
DA:18,18731645
DA:21,5908
DA:22,0
DA:25,10
DA:28,10
DA:29,10
DA:30,1048714
DA:32,1048704
DA:33,1052816
DA:36,20
DA:37,0
DA:39,707128
DA:42,707128
DA:43,707128
DA:46,14
DA:48,14
DA:49,14
DA:50,14
DA:52,0
DA:53,0
DA:55,14
DA:56,14
DA:59,7705
DA:63,7705
DA:65,7705
DA:66,7705
DA:67,7705
DA:68,7705
LF:33
LH:29
end_of_record
